 MiniX

 Timestamp is 562a53ed (Fri Oct 23 11:36:13 2015)

 Preferred load address is 10000000

 Start         Length     Name                   Class
 0001:00000000 000850b9H .textbss                DATA
 0002:00000000 0006b22eH .text                   CODE
 0002:0006b230 0000622cH .text$AFX_AUX           CODE
 0002:00071460 000150a1H .text$AFX_CMNCTL        CODE
 0002:00086510 0000a04dH .text$AFX_COL1          CODE
 0002:00090560 00006e57H .text$AFX_COL2          CODE
 0002:000973c0 0001d770H .text$AFX_CORE1         CODE
 0002:000b4b30 0000f869H .text$AFX_CORE2         CODE
 0002:000c43a0 00012221H .text$AFX_CORE3         CODE
 0002:000d65d0 00016e50H .text$AFX_CORE4         CODE
 0002:000ed420 00007d8eH .text$AFX_DBG1          CODE
 0002:000f51b0 0000fe3fH .text$AFX_DBG2          CODE
 0002:00104ff0 00001264H .text$AFX_INET          CODE
 0002:00106260 0000ef81H .text$AFX_INIT          CODE
 0002:001151f0 00005139H .text$AFX_OLE1          CODE
 0002:0011a330 000021adH .text$AFX_OLE3          CODE
 0002:0011c4e0 00002295H .text$AFX_OLE4          CODE
 0002:0011e780 00005be9H .text$AFX_OLE5          CODE
 0002:00124370 00002eecH .text$AFX_PRNT          CODE
 0002:00127260 0000151cH .text$AFX_TERM          CODE
 0002:00128780 00004fd2H .text$x                 CODE
 0002:0012d760 00001765H .text$yc                CODE
 0002:0012eed0 0000128cH .text$yd                CODE
 0003:00000000 0004011bH .rdata                  DATA
 0003:0004011c 00000179H .rdata$debug            DATA
 0003:00040298 000031feH .rdata$r                DATA
 0003:00043498 00000104H .rtc$IAA                DATA
 0003:0004359c 0000011cH .rtc$IMZ                DATA
 0003:000436b8 00000104H .rtc$IZZ                DATA
 0003:000437bc 00000104H .rtc$TAA                DATA
 0003:000438c0 0000011cH .rtc$TMZ                DATA
 0003:000439dc 00000104H .rtc$TZZ                DATA
 0003:00043ae0 00006364H .xdata$x                DATA
 0003:00049e44 00000104H ATL$__a                 DATA
 0003:00049f48 00000104H ATL$__z                 DATA
 0003:0004a050 000002d4H .edata                  DATA
 0004:00000000 00000104H .CRT$XCA                DATA
 0004:00000104 00000104H .CRT$XCAA               DATA
 0004:00000208 0000011cH .CRT$XCC                DATA
 0004:00000324 000001ebH .CRT$XCL                DATA
 0004:00000510 000001a6H .CRT$XCU                DATA
 0004:000006b8 00000104H .CRT$XCZ                DATA
 0004:000007bc 00000104H .CRT$XIA                DATA
 0004:000008c0 00000113H .CRT$XIC                DATA
 0004:000009d4 00000104H .CRT$XIY                DATA
 0004:00000ad8 00000104H .CRT$XIZ                DATA
 0004:00000bdc 00000104H .CRT$XPA                DATA
 0004:00000ce0 00000104H .CRT$XPX                DATA
 0004:00000de4 00000104H .CRT$XPZ                DATA
 0004:00000ee8 00000104H .CRT$XTA                DATA
 0004:00000fec 00000104H .CRT$XTB                DATA
 0004:000010f0 00000104H .CRT$XTZ                DATA
 0004:00001200 0000313aH .data                   DATA
 0004:00004340 00021d08H .bss                    DATA
 0005:00000000 000000f0H .idata$2                DATA
 0005:000000f0 00000014H .idata$3                DATA
 0005:00000104 00001060H .idata$4                DATA
 0005:00001164 00001060H .idata$5                DATA
 0005:000021c4 00003789H .idata$6                DATA
 0006:00000000 00000020H .didat$2                DATA
 0006:00000020 00000020H .didat$3                DATA
 0006:00000040 00000038H .didat$4                DATA
 0006:00000078 00000038H .didat$5                DATA
 0006:000000b0 00000155H .didat$6                DATA
 0006:00000208 00000111H .didat$7                DATA
 0007:00000000 0000122cH .rsrc$01                DATA
 0007:00001230 0003cf19H .rsrc$02                DATA

  Address         Publics by Value              Rva+Base     Lib:Object

 0000:00000000       __except_list              00000000     <absolute>
 0000:00000000       ___safe_se_handler_count   00000000     <absolute>
 0000:00000000       ___safe_se_handler_table   00000000     <absolute>
 0000:00000000       ___ImageBase               10000000     <linker-defined>
 0001:00000000       __enc$textbss$begin        10001000     <linker-defined>
 0001:000850b9       __enc$textbss$end          100860b9     <linker-defined>
 0002:00010820       ??0CColorEdit@@QAE@XZ      10097820 f   ColorControls.obj
 0002:00010910       ??_GCColorEdit@@UAEPAXI@Z  10097910 f i ColorControls.obj
 0002:00010910       ??_ECColorEdit@@UAEPAXI@Z  10097910 f i ColorControls.obj
 0002:00010980       ??1CColorEdit@@UAE@XZ      10097980 f   ColorControls.obj
 0002:00010a20       ?GetMessageMap@CColorEdit@@MBEPBUAFX_MSGMAP@@XZ 10097a20 f   ColorControls.obj
 0002:00010a60       ?SetTextColor@CColorEdit@@QAEXK@Z 10097a60 f   ColorControls.obj
 0002:00010ad0       ?SetBkColor@CColorEdit@@QAEXK@Z 10097ad0 f   ColorControls.obj
 0002:00010b60       ?CtlColor@CColorEdit@@IAEPAUHBRUSH__@@PAVCDC@@I@Z 10097b60 f   ColorControls.obj
 0002:00010c10       ?SetReadOnly@CColorEdit@@QAEHH@Z 10097c10 f   ColorControls.obj
 0002:00010ca0       ??0CColorStatic@@QAE@XZ    10097ca0 f   ColorControls.obj
 0002:00010d90       ??_GCColorStatic@@UAEPAXI@Z 10097d90 f i ColorControls.obj
 0002:00010d90       ??_ECColorStatic@@UAEPAXI@Z 10097d90 f i ColorControls.obj
 0002:00010e00       ??1CColorStatic@@UAE@XZ    10097e00 f   ColorControls.obj
 0002:00010ea0       ?GetMessageMap@CColorStatic@@MBEPBUAFX_MSGMAP@@XZ 10097ea0 f   ColorControls.obj
 0002:00010ee0       ?SetTextColor@CColorStatic@@QAEXK@Z 10097ee0 f   ColorControls.obj
 0002:00010f50       ?SetBkColor@CColorStatic@@QAEXK@Z 10097f50 f   ColorControls.obj
 0002:00010fe0       ?CtlColor@CColorStatic@@IAEPAUHBRUSH__@@PAVCDC@@I@Z 10097fe0 f   ColorControls.obj
 0002:00011090       ??0CINI@@QAE@V?$CStringT@DV?$StrTraitMFC@DV?$ChTraitsCRT@D@ATL@@@@@ATL@@@Z 10098090 f   INI.obj
 0002:00011260       ??_ECINI@@UAEPAXI@Z        10098260 f i INI.obj
 0002:00011260       ??_GCINI@@UAEPAXI@Z        10098260 f i INI.obj
 0002:000112d0       ??1CINI@@UAE@XZ            100982d0 f   INI.obj
 0002:00011440       ?getKeyValue@CINI@@QAE?AV?$CStringT@DV?$StrTraitMFC@DV?$ChTraitsCRT@D@ATL@@@@@ATL@@V23@0@Z 10098440 f   INI.obj
 0002:000115f0       ?setKey@CINI@@QAEJV?$CStringT@DV?$StrTraitMFC@DV?$ChTraitsCRT@D@ATL@@@@@ATL@@00@Z 100985f0 f   INI.obj
 0002:000116c0       ?DeleteKey@CINI@@QAEJV?$CStringT@DV?$StrTraitMFC@DV?$ChTraitsCRT@D@ATL@@@@@ATL@@0@Z 100986c0 f   INI.obj
 0002:00011780       ?DeleteSection@CINI@@QAEJV?$CStringT@DV?$StrTraitMFC@DV?$ChTraitsCRT@D@ATL@@@@@ATL@@@Z 10098780 f   INI.obj
 0002:00011830       ?sectionExists@CINI@@QAEHV?$CStringT@DV?$StrTraitMFC@DV?$ChTraitsCRT@D@ATL@@@@@ATL@@@Z 10098830 f   INI.obj
 0002:00011950       ?getSectionNames@CINI@@QAEPAVCStringList@@XZ 10098950 f   INI.obj
 0002:00011bd0       ?getSectionData@CINI@@QAEPAVCStringList@@V?$CStringT@DV?$StrTraitMFC@DV?$ChTraitsCRT@D@ATL@@@@@ATL@@@Z 10098bd0 f   INI.obj
 0002:00011e70       ?setINIFileName@CINI@@QAEXV?$CStringT@DV?$StrTraitMFC@DV?$ChTraitsCRT@D@ATL@@@@@ATL@@@Z 10098e70 f   INI.obj
 0002:00011f10       ??4?$CStringT@DV?$StrTraitMFC@DV?$ChTraitsCRT@D@ATL@@@@@ATL@@QAEAAV01@ABV01@@Z 10098f10 f i INI.obj
 0002:00011f70       ??HATL@@YA?AV?$CStringT@DV?$StrTraitMFC@DV?$ChTraitsCRT@D@ATL@@@@@0@ABV10@D@Z 10098f70 f i INI.obj
 0002:000120c0       ??9ATL@@YA_NABV?$CStringT@DV?$StrTraitMFC@DV?$ChTraitsCRT@D@ATL@@@@@0@PBD@Z 100990c0 f i INI.obj
 0002:00012120       ??0?$CStringT@DV?$StrTraitMFC@DV?$ChTraitsCRT@D@ATL@@@@@ATL@@QAE@PAUIAtlStringMgr@1@@Z 10099120 f i INI.obj
 0002:00012180       ?Compare@?$CStringT@DV?$StrTraitMFC@DV?$ChTraitsCRT@D@ATL@@@@@ATL@@QBEHPBD@Z 10099180 f i INI.obj
 0002:00012230       ??4?$CSimpleStringT@D$0A@@ATL@@QAEAAV01@ABV01@@Z 10099230 f i INI.obj
 0002:00012320       ?GetManager@?$CSimpleStringT@D$0A@@ATL@@QBEPAUIAtlStringMgr@2@XZ 10099320 f i INI.obj
 0002:000123a0       ?Concatenate@?$CSimpleStringT@D$0A@@ATL@@KAXAAV12@PBDH1H@Z 100993a0 f i INI.obj
 0002:00012450       ?StringCompare@?$ChTraitsCRT@D@ATL@@SAHPBD0@Z 10099450 f i INI.obj
 0002:000124b0       ?_AtlGetThreadACPThunk@ATL@@YGIXZ 100994b0 f i INI.obj
 0002:000125b0       ?InterlockedExchangePointer@@YGPAXPAPAXPAX@Z 100995b0 f i INI.obj
 0002:00012610       ?_AtlGetThreadACPFake@ATL@@YGIXZ 10099610 f i INI.obj
 0002:00012730       ?_AtlGetThreadACPReal@ATL@@YGIXZ 10099730 f i INI.obj
 0002:00012770       ?AtlIsValidString@ATL@@YAHPBDI@Z 10099770 f i INI.obj
 0002:000127e0       ?IsLocked@CStringData@ATL@@QBE_NXZ 100997e0 f i INI.obj
 0002:00012830       ?Release@CStringData@ATL@@QAEXXZ 10099830 f i INI.obj
 0002:000128e0       ??0?$CStringT@DV?$StrTraitMFC@DV?$ChTraitsCRT@D@ATL@@@@@ATL@@QAE@XZ 100998e0 f i INI.obj
 0002:00012940       ??0?$CStringT@DV?$StrTraitMFC@DV?$ChTraitsCRT@D@ATL@@@@@ATL@@QAE@ABV01@@Z 10099940 f i INI.obj
 0002:000129a0       ??0?$CStringT@DV?$StrTraitMFC@DV?$ChTraitsCRT@D@ATL@@@@@ATL@@QAE@PBD@Z 100999a0 f i INI.obj
 0002:00012a60       ??1?$CStringT@DV?$StrTraitMFC@DV?$ChTraitsCRT@D@ATL@@@@@ATL@@QAE@XZ 10099a60 f i INI.obj
 0002:00012ab0       ??B?$CSimpleStringT@D$0A@@ATL@@QBEPBDXZ 10099ab0 f i INI.obj
 0002:00012af0       ?GetLength@?$CSimpleStringT@D$0A@@ATL@@QBEHXZ 10099af0 f i INI.obj
 0002:00012b50       ??4?$CStringT@DV?$StrTraitMFC@DV?$ChTraitsCRT@D@ATL@@@@@ATL@@QAEAAV01@PBD@Z 10099b50 f i INI.obj
 0002:00012bb0       ?CheckImplicitLoad@?$CStringT@DV?$StrTraitMFC@DV?$ChTraitsCRT@D@ATL@@@@@ATL@@AAE_NPBX@Z 10099bb0 f i INI.obj
 0002:00012c80       ??0CTraceFileAndLineInfo@ATL@@QAE@PBDH@Z 10099c80 f i INI.obj
 0002:00012cd0       ??RCTraceFileAndLineInfo@ATL@@QBAXKIPBDZZ 10099cd0 f i INI.obj
 0002:00012d60       ?TraceV@CTrace@ATL@@QBAXPBDHKI0PAD@Z 10099d60 f i INI.obj
 0002:00012dd0       ??BCTraceCategory@ATL@@QBEKXZ 10099dd0 f i INI.obj
 0002:00012e10       ?LoadStringA@?$CStringT@DV?$StrTraitMFC@DV?$ChTraitsCRT@D@ATL@@@@@ATL@@QAEHI@Z 10099e10 f i INI.obj
 0002:00012e90       ?LoadStringA@?$CStringT@DV?$StrTraitMFC@DV?$ChTraitsCRT@D@ATL@@@@@ATL@@QAEHPAUHINSTANCE__@@I@Z 10099e90 f i INI.obj
 0002:00012f70       ?AtlGetStringResourceImage@ATL@@YAPBUATLSTRINGRESOURCEIMAGE@1@PAUHINSTANCE__@@I@Z 10099f70 f i INI.obj
 0002:00013010       ?_AtlGetStringResourceImage@ATL@@YAPBUATLSTRINGRESOURCEIMAGE@1@PAUHINSTANCE__@@PAUHRSRC__@@I@Z 1009a010 f i INI.obj
 0002:00013140       ??0?$CSimpleStringT@D$0A@@ATL@@QAE@PAUIAtlStringMgr@1@@Z 1009a140 f i INI.obj
 0002:000131f0       ??0?$CSimpleStringT@D$0A@@ATL@@QAE@ABV01@@Z 1009a1f0 f i INI.obj
 0002:00013270       ??1?$CSimpleStringT@D$0A@@ATL@@QAE@XZ 1009a270 f i INI.obj
 0002:000132d0       ?GetBuffer@?$CSimpleStringT@D$0A@@ATL@@QAEPADH@Z 1009a2d0 f i INI.obj
 0002:00013330       ?GetData@?$CSimpleStringT@D$0A@@ATL@@ABEPAUCStringData@2@XZ 1009a330 f i INI.obj
 0002:00013370       ?PrepareWrite@?$CSimpleStringT@D$0A@@ATL@@AAEPADH@Z 1009a370 f i INI.obj
 0002:00013410       ?FindStringResourceInstance@?$StrTraitMFC@DV?$ChTraitsCRT@D@ATL@@@@SAPAUHINSTANCE__@@I@Z 1009a410 f i INI.obj
 0002:00013460       ?GetDefaultManager@?$StrTraitMFC@DV?$ChTraitsCRT@D@ATL@@@@SAPAUIAtlStringMgr@ATL@@XZ 1009a460 f i INI.obj
 0002:000134b0       ??4?$CSimpleStringT@D$0A@@ATL@@QAEAAV01@PBD@Z 1009a4b0 f i INI.obj
 0002:00013510       ?ReleaseBufferSetLength@?$CSimpleStringT@D$0A@@ATL@@QAEXH@Z 1009a510 f i INI.obj
 0002:000135a0       ?SetLength@?$CSimpleStringT@D$0A@@ATL@@AAEXH@Z 1009a5a0 f i INI.obj
 0002:000136a0       ?AtlThrow@ATL@@YGXJ@Z      1009a6a0 f i INI.obj
 0002:00013750       ?Attach@?$CSimpleStringT@D$0A@@ATL@@AAEXPAUCStringData@2@@Z 1009a750 f i INI.obj
 0002:000137b0       ?data@CStringData@ATL@@QAEPAXXZ 1009a7b0 f i INI.obj
 0002:000137f0       ?PrepareWrite2@?$CSimpleStringT@D$0A@@ATL@@AAEXH@Z 1009a7f0 f i INI.obj
 0002:000138f0       ?IsShared@CStringData@ATL@@QBE_NXZ 1009a8f0 f i INI.obj
 0002:00013940       ?CloneData@?$CSimpleStringT@D$0A@@ATL@@CAPAUCStringData@2@PAU32@@Z 1009a940 f i INI.obj
 0002:00013a60       ?AddRef@CStringData@ATL@@QAEXXZ 1009aa60 f i INI.obj
 0002:00013af0       ?GetBaseTypeLength@?$ChTraitsCRT@D@ATL@@SAHPB_WH@Z 1009aaf0 f i INI.obj
 0002:00013b60       ?_AtlGetConversionACP@ATL@@YGIXZ 1009ab60 f i INI.obj
 0002:00013bc0       ?ConvertToBaseType@?$ChTraitsCRT@D@ATL@@SAXPADHPB_WH@Z 1009abc0 f i INI.obj
 0002:00013c40       ?SetString@?$CSimpleStringT@D$0A@@ATL@@QAEXPBD@Z 1009ac40 f i INI.obj
 0002:00013cb0       ?StringLength@?$CSimpleStringT@D$0A@@ATL@@SAHPBD@Z 1009acb0 f i INI.obj
 0002:00013d10       ?CopyChars@?$CSimpleStringT@D$0A@@ATL@@SAXPADPBDH@Z 1009ad10 f i INI.obj
 0002:00013d70       ?ThrowMemoryException@?$CSimpleStringT@D$0A@@ATL@@KAXXZ 1009ad70 f i INI.obj
 0002:00013dc0       ?Fork@?$CSimpleStringT@D$0A@@ATL@@AAEXH@Z 1009adc0 f i INI.obj
 0002:00013f00       ?Reallocate@?$CSimpleStringT@D$0A@@ATL@@AAEXH@Z 1009af00 f i INI.obj
 0002:00013fe0       ?SetString@?$CSimpleStringT@D$0A@@ATL@@QAEXPBDH@Z 1009afe0 f i INI.obj
 0002:000140e0       ?Empty@?$CSimpleStringT@D$0A@@ATL@@QAEXXZ 1009b0e0 f i INI.obj
 0002:000141b0       ?GetString@?$CSimpleStringT@D$0A@@ATL@@QBEPBDXZ 1009b1b0 f i INI.obj
 0002:000141f0       ?CopyCharsOverlapped@?$CSimpleStringT@D$0A@@ATL@@SAXPADPBDH@Z 1009b1f0 f i INI.obj
 0002:00014250       ?CreateObject@CDialogThread@@SGPAVCObject@@XZ 1009b250 f   MiniXAPI.obj
 0002:00014320       ??0CDialogThread@@QAE@XZ   1009b320 f i MiniXAPI.obj
 0002:00014380       ??_GCDialogThread@@UAEPAXI@Z 1009b380 f i MiniXAPI.obj
 0002:00014380       ??_ECDialogThread@@UAEPAXI@Z 1009b380 f i MiniXAPI.obj
 0002:000143f0       ??1CDialogThread@@UAE@XZ   1009b3f0 f i MiniXAPI.obj
 0002:00014440       ?GetRuntimeClass@CDialogThread@@UBEPAUCRuntimeClass@@XZ 1009b440 f   MiniXAPI.obj
 0002:00014480       ?InitInstance@CDialogThread@@UAEHXZ 1009b480 f   MiniXAPI.obj
 0002:00014590       ??1CMiniXDlg@@UAE@XZ       1009b590 f i MiniXAPI.obj
 0002:00014770       ?OpenMiniX@@YGXXZ          1009b770 f   MiniXAPI.obj
 0002:000147d0       ?isMiniXDlg@@YGEXZ         1009b7d0 f   MiniXAPI.obj
 0002:00014820       ?CloseMiniX@@YGXXZ         1009b820 f   MiniXAPI.obj
 0002:000148a0       ?SendMiniXCommand@@YGXE@Z  1009b8a0 f   MiniXAPI.obj
 0002:000149f0       ?MonitorToString@@YA?AV?$CStringT@DV?$StrTraitMFC@DV?$ChTraitsCRT@D@ATL@@@@@ATL@@PAU_MiniX_Monitor@@@Z 1009b9f0 f   MiniXAPI.obj
 0002:00015420       ?ReadMiniXMonitor@@YGXPAU_MiniX_Monitor@@@Z 1009c420 f   MiniXAPI.obj
 0002:000154d0       ?SetMiniXHV@@YGXN@Z        1009c4d0 f   MiniXAPI.obj
 0002:000155f0       ?SetMiniXCurrent@@YGXN@Z   1009c5f0 f   MiniXAPI.obj
 0002:00015710       ?ReadMiniXSettings@@YGXPAU_MiniX_Settings@@@Z 1009c710 f   MiniXAPI.obj
 0002:00015780       ?ReadMiniXSerialNumber@@YGJXZ 1009c780 f   MiniXAPI.obj
 0002:000157e0       ?ReadMinixOemMxDeviceType@@YGJXZ 1009c7e0 f   MiniXAPI.obj
 0002:00015840       ??Y?$CStringT@DV?$StrTraitMFC@DV?$ChTraitsCRT@D@ATL@@@@@ATL@@QAEAAV01@ABV?$CSimpleStringT@D$0A@@1@@Z 1009c840 f i MiniXAPI.obj
 0002:000158a0       ?Format@?$CStringT@DV?$StrTraitMFC@DV?$ChTraitsCRT@D@ATL@@@@@ATL@@QAAXPBDZZ 1009c8a0 f i MiniXAPI.obj
 0002:00015950       ??HATL@@YA?AV?$CStringT@DV?$StrTraitMFC@DV?$ChTraitsCRT@D@ATL@@@@@0@ABV10@PBD@Z 1009c950 f i MiniXAPI.obj
 0002:00015a90       ??HATL@@YA?AV?$CStringT@DV?$StrTraitMFC@DV?$ChTraitsCRT@D@ATL@@@@@0@PBDABV10@@Z 1009ca90 f i MiniXAPI.obj
 0002:00015bd0       ?FormatV@?$CStringT@DV?$StrTraitMFC@DV?$ChTraitsCRT@D@ATL@@@@@ATL@@QAEXPBDPAD@Z 1009cbd0 f i MiniXAPI.obj
 0002:00015cc0       ??Y?$CSimpleStringT@D$0A@@ATL@@QAEAAV01@ABV01@@Z 1009ccc0 f i MiniXAPI.obj
 0002:00015d20       ?Append@?$CSimpleStringT@D$0A@@ATL@@QAEXABV12@@Z 1009cd20 f i MiniXAPI.obj
 0002:00015d90       ?Append@?$CSimpleStringT@D$0A@@ATL@@QAEXPBDH@Z 1009cd90 f i MiniXAPI.obj
 0002:00015e60       ?GetFormattedLength@?$ChTraitsCRT@D@ATL@@SAHPBDPAD@Z 1009ce60 f i MiniXAPI.obj
 0002:00015ec0       ?Format@?$ChTraitsCRT@D@ATL@@SAHPADPBD0@Z 1009cec0 f i MiniXAPI.obj
 0002:00015f20       ??0CAboutDlg@@QAE@XZ       1009cf20 f   MiniXDlg.obj
 0002:00015f90       ??_GCAboutDlg@@UAEPAXI@Z   1009cf90 f i MiniXDlg.obj
 0002:00015f90       ??_ECAboutDlg@@UAEPAXI@Z   1009cf90 f i MiniXDlg.obj
 0002:00016000       ??1CAboutDlg@@UAE@XZ       1009d000 f i MiniXDlg.obj
 0002:00016050       ?DoDataExchange@CAboutDlg@@MAEXPAVCDataExchange@@@Z 1009d050 f   MiniXDlg.obj
 0002:000160b0       ?GetMessageMap@CAboutDlg@@MBEPBUAFX_MSGMAP@@XZ 1009d0b0 f   MiniXDlg.obj
 0002:000160f0       ?OnInitDialog@CAboutDlg@@MAEHXZ 1009d0f0 f   MiniXDlg.obj
 0002:000163c0       ??0CMiniXDlg@@QAE@PAVCWnd@@@Z 1009d3c0 f   MiniXDlg.obj
 0002:00016780       ??_ECMiniXDlg@@UAEPAXI@Z   1009d780 f i MiniXDlg.obj
 0002:00016780       ??_GCMiniXDlg@@UAEPAXI@Z   1009d780 f i MiniXDlg.obj
 0002:000167f0       ?DoDataExchange@CMiniXDlg@@MAEXPAVCDataExchange@@@Z 1009d7f0 f   MiniXDlg.obj
 0002:00016950       ?GetMessageMap@CMiniXDlg@@MBEPBUAFX_MSGMAP@@XZ 1009d950 f   MiniXDlg.obj
 0002:00016990       ?OnSysCommand@CMiniXDlg@@IAEXIJ@Z 1009d990 f   MiniXDlg.obj
 0002:00016aa0       ?OnPaint@CMiniXDlg@@IAEXXZ 1009daa0 f   MiniXDlg.obj
 0002:00016c80       ?OnQueryDragIcon@CMiniXDlg@@IAEPAUHICON__@@XZ 1009dc80 f   MiniXDlg.obj
 0002:00016cc0       ?OnInitDialog@CMiniXDlg@@MAEHXZ 1009dcc0 f   MiniXDlg.obj
 0002:00017210       ?LoadDLL@CMiniXDlg@@QAEHXZ 1009e210 f   MiniXDlg.obj
 0002:00017980       ?EE_Read@CMiniXDlg@@IAEKPAUft_program_data@@@Z 1009e980 f   MiniXDlg.obj
 0002:00017a30       ?EE_Program@CMiniXDlg@@IAEKPAUft_program_data@@@Z 1009ea30 f   MiniXDlg.obj
 0002:00017ae0       ?GetLatencyTimer@CMiniXDlg@@IAEKPAE@Z 1009eae0 f   MiniXDlg.obj
 0002:00017b90       ?SetLatencyTimer@CMiniXDlg@@IAEKE@Z 1009eb90 f   MiniXDlg.obj
 0002:00017c40       ?SetBitMode@CMiniXDlg@@IAEKEE@Z 1009ec40 f   MiniXDlg.obj
 0002:00017d00       ?Read@CMiniXDlg@@IAEKPAXKPAK@Z 1009ed00 f   MiniXDlg.obj
 0002:00017dc0       ?Write@CMiniXDlg@@IAEKPAXKPAK@Z 1009edc0 f   MiniXDlg.obj
 0002:00017e80       ?Open@CMiniXDlg@@IAEKPAX@Z 1009ee80 f   MiniXDlg.obj
 0002:00017f30       ?OpenEx@CMiniXDlg@@IAEKPAXK@Z 1009ef30 f   MiniXDlg.obj
 0002:00017ff0       ?ListDevices@CMiniXDlg@@IAEKPAX0K@Z 1009eff0 f   MiniXDlg.obj
 0002:000180a0       ?Close@CMiniXDlg@@IAEKXZ   1009f0a0 f   MiniXDlg.obj
 0002:00018150       ?ResetDevice@CMiniXDlg@@IAEKXZ 1009f150 f   MiniXDlg.obj
 0002:00018200       ?Purge@CMiniXDlg@@IAEKK@Z  1009f200 f   MiniXDlg.obj
 0002:000182b0       ?SetTimeouts@CMiniXDlg@@IAEKKK@Z 1009f2b0 f   MiniXDlg.obj
 0002:00018370       ?GetQueueStatus@CMiniXDlg@@IAEKPAK@Z 1009f370 f   MiniXDlg.obj
 0002:00018420       ?OnButtonSelectDevice@CMiniXDlg@@IAEXXZ 1009f420 f   MiniXDlg.obj
 0002:00018a80       ?GetDeviceSerialNumber@CMiniXDlg@@QAEXPAX@Z 1009fa80 f   MiniXDlg.obj
 0002:00018d50       ?OnButtonMpsseOn@CMiniXDlg@@IAEXXZ 1009fd50 f   MiniXDlg.obj
 0002:000190e0       ?OnButtonDisableMpsse@CMiniXDlg@@IAEXXZ 100a00e0 f   MiniXDlg.obj
 0002:00019270       ?OnButtonSetDacVoltage@CMiniXDlg@@IAEXXZ 100a0270 f   MiniXDlg.obj
 0002:00019800       ?OnButtonSetDacbVoltage@CMiniXDlg@@IAEXXZ 100a0800 f   MiniXDlg.obj
 0002:00019d00       ?OnButtonReadAdc@CMiniXDlg@@IAEXXZ 100a0d00 f   MiniXDlg.obj
 0002:0001a340       ?OnButtonReadAdc1@CMiniXDlg@@IAEXXZ 100a1340 f   MiniXDlg.obj
 0002:0001a980       ?ReadIOBitsIn@CMiniXDlg@@QAEXPAEE@Z 100a1980 f   MiniXDlg.obj
 0002:0001ab80       ?ReadMiniXDeviceType@CMiniXDlg@@QAEEXZ 100a1b80 f   MiniXDlg.obj
 0002:0001ac60       ?MonitorMiniXCtrlIO@CMiniXDlg@@QAEXXZ 100a1c60 f   MiniXDlg.obj
 0002:0001b3b0       ?AveMonitors@CMiniXDlg@@QAENNQAN_N@Z 100a23b0 f   MiniXDlg.obj
 0002:0001b4c0       ?OnTimer@CMiniXDlg@@IAEXI@Z 100a24c0 f   MiniXDlg.obj
 0002:0001bcf0       ?OnChangeEditDacVoltage@CMiniXDlg@@IAEXXZ 100a2cf0 f   MiniXDlg.obj
 0002:0001bd50       ?OnChangeEditDacbVoltage@CMiniXDlg@@IAEXXZ 100a2d50 f   MiniXDlg.obj
 0002:0001bdb0       ?SetHighVoltageDAC@CMiniXDlg@@QAEXN@Z 100a2db0 f   MiniXDlg.obj
 0002:0001be30       ?OnBnClickedSethighvoltagecontrolbutton@CMiniXDlg@@QAEXXZ 100a2e30 f   MiniXDlg.obj
 0002:0001c050       ?OnBnClickedStartmonitorbutton@CMiniXDlg@@QAEXXZ 100a3050 f   MiniXDlg.obj
 0002:0001c0d0       ?OnBnClickedStopmonitorbutton@CMiniXDlg@@QAEXXZ 100a30d0 f   MiniXDlg.obj
 0002:0001c130       ?SetCurrentDAC@CMiniXDlg@@QAEXN@Z 100a3130 f   MiniXDlg.obj
 0002:0001c1b0       ?OnBnClickedSetcurrentcontrolbutton@CMiniXDlg@@QAEXXZ 100a31b0 f   MiniXDlg.obj
 0002:0001c3d0       ?OnBnClickedHvOff@CMiniXDlg@@QAEXXZ 100a33d0 f   MiniXDlg.obj
 0002:0001c700       ?OnBnClickedHvOn@CMiniXDlg@@QAEXXZ 100a3700 f   MiniXDlg.obj
 0002:0001c960       ?MXControllerSetup@CMiniXDlg@@QAEXXZ 100a3960 f   MiniXDlg.obj
 0002:0001cad0       ?TubeControllerString@CMiniXDlg@@QAE?AV?$CStringT@DV?$StrTraitMFC@DV?$ChTraitsCRT@D@ATL@@@@@ATL@@W4_MINIX_CONTROLLER_ENUM@@_N@Z 100a3ad0 f   MiniXDlg.obj
 0002:0001cd10       ?ReadMXSetup@CMiniXDlg@@QAEXW4_MINIX_CONTROLLER_ENUM@@@Z 100a3d10 f   MiniXDlg.obj
 0002:0001cdb0       ?OnBnClickedStartMiniXController@CMiniXDlg@@QAEXXZ 100a3db0 f   MiniXDlg.obj
 0002:0001d050       ?FailSafe@CMiniXDlg@@QAEXXZ 100a4050 f   MiniXDlg.obj
 0002:0001d1a0       ?FsMessageBox@CMiniXDlg@@QAEXV?$CStringT@DV?$StrTraitMFC@DV?$ChTraitsCRT@D@ATL@@@@@ATL@@@Z 100a41a0 f   MiniXDlg.obj
 0002:0001d280       ?DllMessageBox@CMiniXDlg@@QAEXV?$CStringT@DV?$StrTraitMFC@DV?$ChTraitsCRT@D@ATL@@@@@ATL@@@Z 100a4280 f   MiniXDlg.obj
 0002:0001d360       ?OnClose@CMiniXDlg@@QAEXXZ 100a4360 f   MiniXDlg.obj
 0002:0001d400       ?OnCancel@CMiniXDlg@@MAEXXZ 100a4400 f   MiniXDlg.obj
 0002:0001d4a0       ?OnDestroy@CMiniXDlg@@QAEXXZ 100a44a0 f   MiniXDlg.obj
 0002:0001d530       ?OnOK@CMiniXDlg@@MAEXXZ    100a4530 f   MiniXDlg.obj
 0002:0001d5a0       ?OnBnClickedOk@CMiniXDlg@@QAEXXZ 100a45a0 f   MiniXDlg.obj
 0002:0001d610       ?EnableMINIXButtons@CMiniXDlg@@QAEX_N@Z 100a4610 f   MiniXDlg.obj
 0002:0001d6c0       ?BOOLtobool@CMiniXDlg@@QAE_NH@Z 100a46c0 f   MiniXDlg.obj
 0002:0001d710       ?EnableMINIXButtonsHVOn@CMiniXDlg@@QAE_N_N0@Z 100a4710 f   MiniXDlg.obj
 0002:0001d7d0       ?ReadMiniXSetup@CMiniXDlg@@QAEXXZ 100a47d0 f   MiniXDlg.obj
 0002:0001dbe0       ?ReadMiniXSetup50kv@CMiniXDlg@@QAEXXZ 100a4be0 f   MiniXDlg.obj
 0002:0001dff0       ?ReadMiniXSetup50kv4W@CMiniXDlg@@QAEXXZ 100a4ff0 f   MiniXDlg.obj
 0002:0001e040       ?ReadMiniXSetup50kv10W@CMiniXDlg@@QAEXXZ 100a5040 f   MiniXDlg.obj
 0002:0001e420       ?ReadMiniXSetup70kv10W@CMiniXDlg@@QAEXXZ 100a5420 f   MiniXDlg.obj
 0002:0001e800       ?ShowStatus@CMiniXDlg@@QAEXV?$CStringT@DV?$StrTraitMFC@DV?$ChTraitsCRT@D@ATL@@@@@ATL@@@Z 100a5800 f   MiniXDlg.obj
 0002:0001e8d0       ?SetClkDivisor@CMiniXDlg@@QAEXXZ 100a58d0 f   MiniXDlg.obj
 0002:0001ea20       ?OnBnClickedSethighvoltageandcurrentbutton@CMiniXDlg@@QAEXXZ 100a5a20 f   MiniXDlg.obj
 0002:0001f4c0       ?HV_InRange@CMiniXDlg@@QAE_NNN_N@Z 100a64c0 f   MiniXDlg.obj
 0002:0001f580       ?I_InRange@CMiniXDlg@@QAE_NNN_N@Z 100a6580 f   MiniXDlg.obj
 0002:0001f640       ?CreateLog@CMiniXDlg@@QAEXXZ 100a6640 f   MiniXDlg.obj
 0002:0001f830       ?CreateDateTimeStamp@CMiniXDlg@@QAE?AV?$CStringT@DV?$StrTraitMFC@DV?$ChTraitsCRT@D@ATL@@@@@ATL@@XZ 100a6830 f   MiniXDlg.obj
 0002:0001f9a0       ?AppendLog@CMiniXDlg@@QAEXV?$CStringT@DV?$StrTraitMFC@DV?$ChTraitsCRT@D@ATL@@@@@ATL@@@Z 100a69a0 f   MiniXDlg.obj
 0002:0001fb30       ?ReadTemperature@CMiniXDlg@@QAEXXZ 100a6b30 f   MiniXDlg.obj
 0002:00020320       ?SetTempSensor@CMiniXDlg@@QAEXXZ 100a7320 f   MiniXDlg.obj
 0002:00020820       ?GetTemp@CMiniXDlg@@QAENEE_N@Z 100a7820 f   MiniXDlg.obj
 0002:00020900       ?OnWindowPosChanging@CMiniXDlg@@QAEXPAUtagWINDOWPOS@@@Z 100a7900 f   MiniXDlg.obj
 0002:00020980       ?OnBnClickedGetstatusbutton@CMiniXDlg@@QAEXXZ 100a7980 f   MiniXDlg.obj
 0002:00020b00       ?CopyMiniXMonitor@CMiniXDlg@@QAEXPAU_MiniX_Monitor@@@Z 100a7b00 f   MiniXDlg.obj
 0002:00020c10       ?CopyMiniXSettings@CMiniXDlg@@QAEXPAU_MiniX_Settings@@@Z 100a7c10 f   MiniXDlg.obj
 0002:00020c90       ?GetEnabledButtons@CMiniXDlg@@QAEEXZ 100a7c90 f   MiniXDlg.obj
 0002:00020dc0       ?GetWindowDouble@CMiniXDlg@@QAENH@Z 100a7dc0 f   MiniXDlg.obj
 0002:00020ee0       ?Left@?$CStringT@DV?$StrTraitMFC@DV?$ChTraitsCRT@D@ATL@@@@@ATL@@QBE?AV12@H@Z 100a7ee0 f i MiniXDlg.obj
 0002:00020fc0       ?IsEmpty@?$CSimpleStringT@D$0A@@ATL@@QBE_NXZ 100a7fc0 f i MiniXDlg.obj
 0002:00021020       ??0?$CStringT@DV?$StrTraitMFC@DV?$ChTraitsCRT@D@ATL@@@@@ATL@@QAE@PBDHPAUIAtlStringMgr@1@@Z 100a8020 f i MiniXDlg.obj
 0002:00021090       ??0?$CSimpleStringT@D$0A@@ATL@@QAE@PBDHPAUIAtlStringMgr@1@@Z 100a8090 f i MiniXDlg.obj
 0002:000211a0       ?GetMessageMap@CMiniXDLLApp@@MBEPBUAFX_MSGMAP@@XZ 100a81a0 f   MiniXDLL.obj
 0002:000211e0       ??0CMiniXDLLApp@@QAE@XZ    100a81e0 f   MiniXDLL.obj
 0002:00021240       ??_ECMiniXDLLApp@@UAEPAXI@Z 100a8240 f i MiniXDLL.obj
 0002:00021240       ??_GCMiniXDLLApp@@UAEPAXI@Z 100a8240 f i MiniXDLL.obj
 0002:000212b0       ??1CMiniXDLLApp@@UAE@XZ    100a82b0 f i MiniXDLL.obj
 0002:00021300       ?InitInstance@CMiniXDLLApp@@UAEHXZ 100a8300 f   MiniXDLL.obj
 0002:00021360       _DllGetClassObject@12      100a8360 f   MiniXDLL.obj
 0002:000213c0       _DllCanUnloadNow@0         100a83c0 f   MiniXDLL.obj
 0002:00021410       _DllRegisterServer@0       100a8410 f   MiniXDLL.obj
 0002:00021460       ?GetEnvironmentVariableWThunk@ATL@@YGKPB_WPA_WK@Z 100a8460 f i stdafx.obj
 0002:000214e0       ?_AtlInstallStringThunk@ATL@@YAXPAPAXPAX1@Z 100a84e0 f i stdafx.obj
 0002:000215a0       ?GetEnvironmentVariableWFake@ATL@@YGKPB_WPA_WK@Z 100a85a0 f i stdafx.obj
 0002:00021880       ?CompareStringWThunk@ATL@@YGHKKPB_WH0H@Z 100a8880 f i stdafx.obj
 0002:00021910       ?CompareStringWFake@ATL@@YGHKKPB_WH0H@Z 100a8910 f i stdafx.obj
 0002:00021c50       ?_AtlVerifyStackAvailable@_ATL_SAFE_ALLOCA_IMPL@ATL@@YA_NK@Z 100a8c50 f i stdafx.obj
 0002:00021d70       ?AtlW2AHelper@@YGPADPADPB_WHI@Z 100a8d70 f i stdafx.obj
 0002:00021ec0       ?GetStringTypeExWThunk@ATL@@YGHKKPB_WHPAG@Z 100a8ec0 f i stdafx.obj
 0002:00021f50       ?GetStringTypeExWFake@ATL@@YGHKKPB_WHPAG@Z 100a8f50 f i stdafx.obj
 0002:00022100       ?lstrcmpiWThunk@ATL@@YGHPB_W0@Z 100a9100 f i stdafx.obj
 0002:00022180       ?lstrcmpiWFake@ATL@@YGHPB_W0@Z 100a9180 f i stdafx.obj
 0002:00022300       ?CharLowerWThunk@ATL@@YGPA_WPA_W@Z 100a9300 f i stdafx.obj
 0002:00022380       ?CharLowerWFake@ATL@@YGPA_WPA_W@Z 100a9380 f i stdafx.obj
 0002:00022520       ?AtlA2WHelper@@YGPA_WPA_WPBDHI@Z 100a9520 f i stdafx.obj
 0002:00022660       ?CharUpperWThunk@ATL@@YGPA_WPA_W@Z 100a9660 f i stdafx.obj
 0002:000226e0       ?CharUpperWFake@ATL@@YGPA_WPA_W@Z 100a96e0 f i stdafx.obj
 0002:00022880       ??0?$CAtlSafeAllocBufferManager@VCCRTAllocator@ATL@@@_ATL_SAFE_ALLOCA_IMPL@ATL@@QAE@XZ 100a9880 f i stdafx.obj
 0002:000228d0       ?Allocate@?$CAtlSafeAllocBufferManager@VCCRTAllocator@ATL@@@_ATL_SAFE_ALLOCA_IMPL@ATL@@QAEPAXK@Z 100a98d0 f i stdafx.obj
 0002:00022960       ?Allocate@CCRTAllocator@ATL@@SAPAXI@Z 100a9960 f i stdafx.obj
 0002:000229b0       ??1?$CAtlSafeAllocBufferManager@VCCRTAllocator@ATL@@@_ATL_SAFE_ALLOCA_IMPL@ATL@@QAE@XZ 100a99b0 f i stdafx.obj
 0002:00022a30       ?Free@CCRTAllocator@ATL@@SAXPAX@Z 100a9a30 f i stdafx.obj
 0002:00022a80       ??0?$CTempBuffer@D$0IA@VCCRTAllocator@ATL@@@ATL@@QAE@XZ 100a9a80 f i stdafx.obj
 0002:00022ad0       ??1?$CTempBuffer@D$0IA@VCCRTAllocator@ATL@@@ATL@@QAE@XZ 100a9ad0 f i stdafx.obj
 0002:00022b30       ??B?$CTempBuffer@D$0IA@VCCRTAllocator@ATL@@@ATL@@QBEPADXZ 100a9b30 f i stdafx.obj
 0002:00022b70       ?Allocate@?$CTempBuffer@D$0IA@VCCRTAllocator@ATL@@@ATL@@QAEPADI@Z 100a9b70 f i stdafx.obj
 0002:00022bd0       ??0?$CW2AEX@$0IA@@ATL@@QAE@PB_W@Z 100a9bd0 f i stdafx.obj
 0002:00022c40       ??1?$CW2AEX@$0IA@@ATL@@QAE@XZ 100a9c40 f i stdafx.obj
 0002:00022cb0       ??B?$CW2AEX@$0IA@@ATL@@QBEPADXZ 100a9cb0 f i stdafx.obj
 0002:00022cf0       ?AllocateBytes@?$CTempBuffer@D$0IA@VCCRTAllocator@ATL@@@ATL@@QAEPADI@Z 100a9cf0 f i stdafx.obj
 0002:00022da0       ?FreeHeap@?$CTempBuffer@D$0IA@VCCRTAllocator@ATL@@@ATL@@AAEXXZ 100a9da0 f i stdafx.obj
 0002:00022e00       ?Init@?$CW2AEX@$0IA@@ATL@@AAEXPB_WI@Z 100a9e00 f i stdafx.obj
 0002:00022f10       ?AtlThrowLastWin32@ATL@@YGXXZ 100a9f10 f i stdafx.obj
 0002:00022fb0       ?GetData@CAtlSafeAllocBufferNode@?$CAtlSafeAllocBufferManager@VCCRTAllocator@ATL@@@_ATL_SAFE_ALLOCA_IMPL@ATL@@QAEPAXXZ 100a9fb0 f i stdafx.obj
 0002:00022ff0       ?AllocateHeap@?$CTempBuffer@D$0IA@VCCRTAllocator@ATL@@@ATL@@AAEXI@Z 100a9ff0 f i stdafx.obj
 0002:00023070       ??0CSXButton@@QAE@XZ       100aa070 f   Sxbutton.obj
 0002:00023180       ??_ECSXButton@@UAEPAXI@Z   100aa180 f i Sxbutton.obj
 0002:00023180       ??_GCSXButton@@UAEPAXI@Z   100aa180 f i Sxbutton.obj
 0002:000231f0       ??1CSXButton@@UAE@XZ       100aa1f0 f   Sxbutton.obj
 0002:000232c0       ?GetMessageMap@CSXButton@@MBEPBUAFX_MSGMAP@@XZ 100aa2c0 f   Sxbutton.obj
 0002:00023300       ?SetIcon@CSXButton@@QAEHIHH@Z 100aa300 f   Sxbutton.obj
 0002:000233d0       ?Redraw@CSXButton@@AAEXXZ  100aa3d0 f i Sxbutton.obj
 0002:00023430       ?SetBitmap@CSXButton@@QAEHIHH@Z 100aa430 f   Sxbutton.obj
 0002:000234a0       ?SetMaskedBitmap@CSXButton@@QAEHIHHK@Z 100aa4a0 f   Sxbutton.obj
 0002:00023510       ?SetBitmapCommon@CSXButton@@AAEHIHHKH@Z 100aa510 f   Sxbutton.obj
 0002:000236e0       ?SetColorTab@CSXButton@@QAEXK@Z 100aa6e0 f   Sxbutton.obj
 0002:00023750       ?SetDefaultButton@CSXButton@@QAEHH@Z 100aa750 f   Sxbutton.obj
 0002:000237f0       ?SetImageOffset@CSXButton@@QAEHH@Z 100aa7f0 f   Sxbutton.obj
 0002:00023870       ?SetTextOffset@CSXButton@@QAEHH@Z 100aa870 f   Sxbutton.obj
 0002:000238f0       ?SetImagePos@CSXButton@@QAE?AVCPoint@@V2@@Z 100aa8f0 f   Sxbutton.obj
 0002:000239d0       ?SetTextPos@CSXButton@@QAE?AVCPoint@@V2@@Z 100aa9d0 f   Sxbutton.obj
 0002:00023ab0       ?CheckPointForCentering@CSXButton@@AAEXAAVCPoint@@HH@Z 100aaab0 f   Sxbutton.obj
 0002:00023ba0       ?DrawItem@CSXButton@@UAEXPAUtagDRAWITEMSTRUCT@@@Z 100aaba0 f   Sxbutton.obj
 0002:00024550       ?HasImage@CSXButton@@QAEHXZ 100ab550 f i Sxbutton.obj
 0002:000245b0       ??0CVersionInfo@@QAE@XZ    100ab5b0 f   VersionInfo.obj
 0002:000246d0       ??_GCVersionInfo@@UAEPAXI@Z 100ab6d0 f i VersionInfo.obj
 0002:000246d0       ??_ECVersionInfo@@UAEPAXI@Z 100ab6d0 f i VersionInfo.obj
 0002:00024740       ??0CVersionInfo@@QAE@PBD@Z 100ab740 f   VersionInfo.obj
 0002:00024890       ??1CVersionInfo@@UAE@XZ    100ab890 f   VersionInfo.obj
 0002:00024900       ?GetProductName@CVersionInfo@@QBE?AV?$CStringT@DV?$StrTraitMFC@DV?$ChTraitsCRT@D@ATL@@@@@ATL@@XZ 100ab900 f   VersionInfo.obj
 0002:00024980       ?GetProductVersion@CVersionInfo@@QBE?AV?$CStringT@DV?$StrTraitMFC@DV?$ChTraitsCRT@D@ATL@@@@@ATL@@XZ 100ab980 f   VersionInfo.obj
 0002:00024a00       ?GetCompanyName@CVersionInfo@@QBE?AV?$CStringT@DV?$StrTraitMFC@DV?$ChTraitsCRT@D@ATL@@@@@ATL@@XZ 100aba00 f   VersionInfo.obj
 0002:00024a80       ?GetCopyright@CVersionInfo@@QBE?AV?$CStringT@DV?$StrTraitMFC@DV?$ChTraitsCRT@D@ATL@@@@@ATL@@XZ 100aba80 f   VersionInfo.obj
 0002:00024b00       ?GetComments@CVersionInfo@@QBE?AV?$CStringT@DV?$StrTraitMFC@DV?$ChTraitsCRT@D@ATL@@@@@ATL@@XZ 100abb00 f   VersionInfo.obj
 0002:00024b80       ?GetFileDescription@CVersionInfo@@QBE?AV?$CStringT@DV?$StrTraitMFC@DV?$ChTraitsCRT@D@ATL@@@@@ATL@@XZ 100abb80 f   VersionInfo.obj
 0002:00024c00       ?GetFileVersion@CVersionInfo@@QBE?AV?$CStringT@DV?$StrTraitMFC@DV?$ChTraitsCRT@D@ATL@@@@@ATL@@XZ 100abc00 f   VersionInfo.obj
 0002:00024c80       ?GetInternalName@CVersionInfo@@QBE?AV?$CStringT@DV?$StrTraitMFC@DV?$ChTraitsCRT@D@ATL@@@@@ATL@@XZ 100abc80 f   VersionInfo.obj
 0002:00024d00       ?GetLegalTrademarks@CVersionInfo@@QBE?AV?$CStringT@DV?$StrTraitMFC@DV?$ChTraitsCRT@D@ATL@@@@@ATL@@XZ 100abd00 f   VersionInfo.obj
 0002:00024d80       ?GetPrivateBuild@CVersionInfo@@QBE?AV?$CStringT@DV?$StrTraitMFC@DV?$ChTraitsCRT@D@ATL@@@@@ATL@@XZ 100abd80 f   VersionInfo.obj
 0002:00024e00       ?GetSpecialBuild@CVersionInfo@@QBE?AV?$CStringT@DV?$StrTraitMFC@DV?$ChTraitsCRT@D@ATL@@@@@ATL@@XZ 100abe00 f   VersionInfo.obj
 0002:00024e80       ?InitVer@CVersionInfo@@AAEXPBD@Z 100abe80 f   VersionInfo.obj
 0002:00025010       ?GetValue@CVersionInfo@@ABE?AV?$CStringT@DV?$StrTraitMFC@DV?$ChTraitsCRT@D@ATL@@@@@ATL@@PBD@Z 100ac010 f   VersionInfo.obj
 0002:000251e0       ??Y?$CStringT@DV?$StrTraitMFC@DV?$ChTraitsCRT@D@ATL@@@@@ATL@@QAEAAV01@PBD@Z 100ac1e0 f i VersionInfo.obj
 0002:00025240       ??Y?$CSimpleStringT@D$0A@@ATL@@QAEAAV01@PBD@Z 100ac240 f i VersionInfo.obj
 0002:000252a0       ?Append@?$CSimpleStringT@D$0A@@ATL@@QAEXPBD@Z 100ac2a0 f i VersionInfo.obj
 0002:00025310       ?ReleaseBuffer@?$CSimpleStringT@D$0A@@ATL@@QAEXH@Z 100ac310 f i VersionInfo.obj
 0002:00025390       _DllMain@12                100ac390 f   nafxcwd:dllmodul.obj
 0002:00025520       _RawDllMain@12             100ac520 f   nafxcwd:dllmodul.obj
 0002:00025530       ?AfxTermDllState@@YAXXZ    100ac530 f   nafxcwd:dllmodul.obj
 0002:000255c0       _IsPlatformNT              100ac5c0 f   nafxcwd:wincore.obj
 0002:00025620       _InitMultipleMonitorStubs  100ac620 f   nafxcwd:wincore.obj
 0002:000257a0       _xGetSystemMetrics@4       100ac7a0 f   nafxcwd:wincore.obj
 0002:00025820       _xMonitorFromPoint@12      100ac820 f   nafxcwd:wincore.obj
 0002:00025880       _xMonitorFromRect@8        100ac880 f   nafxcwd:wincore.obj
 0002:000258f0       _xMonitorFromWindow@8      100ac8f0 f   nafxcwd:wincore.obj
 0002:00025970       _xGetMonitorInfo@8         100ac970 f   nafxcwd:wincore.obj
 0002:00025a60       _xEnumDisplayMonitors@16   100aca60 f   nafxcwd:wincore.obj
 0002:00025b90       _xEnumDisplayDevices@16    100acb90 f   nafxcwd:wincore.obj
 0002:00025c20       ?AtlIAccessibleInvokeHelper@ATL@@YGJPAUIAccessible@@JABU_GUID@@KGPAUtagDISPPARAMS@@PAUtagVARIANT@@PAUtagEXCEPINFO@@PAI@Z 100acc20 f   nafxcwd:wincore.obj
 0002:00026a40       ?AtlIAccessibleGetIDsOfNamesHelper@ATL@@YGJABU_GUID@@PAPA_WIKPAJ@Z 100ada40 f   nafxcwd:wincore.obj
 0002:00027010       __tcscmp                   100ae010 f i nafxcwd:wincore.obj
 0002:00027030       ??1CNoTrackObject@@UAE@XZ  100ae030 f i nafxcwd:wincore.obj
 0002:00027050       ?GetNextWindow@@YAPAUHWND__@@PAU1@I@Z 100ae050 f i nafxcwd:wincore.obj
 0002:00027070       ?UnlockResource@@YGHPAX@Z  100ae070 f i nafxcwd:wincore.obj
 0002:00027080       ?A2T@@YAPADPAD@Z           100ae080 f i nafxcwd:wincore.obj
 0002:00027090       ?SetWindowLongPtrA@@YAJPAUHWND__@@HJ@Z 100ae090 f i nafxcwd:wincore.obj
 0002:000270b0       ?GetWindowLongPtrA@@YAJPAUHWND__@@H@Z 100ae0b0 f i nafxcwd:wincore.obj
 0002:000270d0       ?LookupPermanent@CHandleMap@@QAEPAVCObject@@PAX@Z 100ae0d0 f i nafxcwd:wincore.obj
 0002:00027100       ?LookupTemporary@CHandleMap@@QAEPAVCObject@@PAX@Z 100ae100 f i nafxcwd:wincore.obj
 0002:00027130       ??0CAccessibleProxy@ATL@@QAE@XZ 100ae130 f i nafxcwd:wincore.obj
 0002:00027170       ??1CAccessibleProxy@ATL@@UAE@XZ 100ae170 f i nafxcwd:wincore.obj
 0002:00027180       ?GetWindow@CAccessibleProxy@ATL@@UAGJPAPAUHWND__@@@Z 100ae180 f i nafxcwd:wincore.obj
 0002:00027190       ?ContextSensitiveHelp@CAccessibleProxy@ATL@@UAGJH@Z 100ae190 f i nafxcwd:wincore.obj
 0002:000271a0       ??0?$CComObjectRootEx@VCComSingleThreadModel@ATL@@@ATL@@QAE@XZ 100ae1a0 f i nafxcwd:wincore.obj
 0002:000271c0       ??0IOleWindow@@QAE@XZ      100ae1c0 f i nafxcwd:wincore.obj
 0002:000271e0       ??0IUnknown@@QAE@XZ        100ae1e0 f i nafxcwd:wincore.obj
 0002:00027200       ?_InternalQueryInterface@CAccessibleProxy@ATL@@QAEJABU_GUID@@PAPAX@Z 100ae200 f i nafxcwd:wincore.obj
 0002:00027230       ?_GetEntries@CAccessibleProxy@ATL@@SGPBU_ATL_INTMAP_ENTRY@2@XZ 100ae230 f i nafxcwd:wincore.obj
 0002:00027240       ?FinalRelease@CAccessibleProxy@ATL@@QAEJXZ 100ae240 f i nafxcwd:wincore.obj
 0002:00027280       ??0CComObjectRootBase@ATL@@QAE@XZ 100ae280 f i nafxcwd:wincore.obj
 0002:000272a0       ?FinalConstruct@CComObjectRootBase@ATL@@QAEJXZ 100ae2a0 f i nafxcwd:wincore.obj
 0002:000272b0       ?_AtlFinalConstruct@CComObjectRootBase@ATL@@QAEJXZ 100ae2b0 f i nafxcwd:wincore.obj
 0002:000272c0       ?InternalQueryInterface@CComObjectRootBase@ATL@@SGJPAXPBU_ATL_INTMAP_ENTRY@2@ABU_GUID@@PAPAX@Z 100ae2c0 f i nafxcwd:wincore.obj
 0002:00027390       ?SetVoid@CComObjectRootBase@ATL@@QAEXPAX@Z 100ae390 f i nafxcwd:wincore.obj
 0002:000273a0       ?InternalFinalConstructAddRef@CComObjectRootBase@ATL@@QAEXXZ 100ae3a0 f i nafxcwd:wincore.obj
 0002:000273b0       ?InternalFinalConstructRelease@CComObjectRootBase@ATL@@QAEXXZ 100ae3b0 f i nafxcwd:wincore.obj
 0002:00027400       ?InternalAddRef@?$CComObjectRootEx@VCComSingleThreadModel@ATL@@@ATL@@QAEKXZ 100ae400 f i nafxcwd:wincore.obj
 0002:00027450       ?Increment@CComSingleThreadModel@ATL@@SGKPAJ@Z 100ae450 f i nafxcwd:wincore.obj
 0002:00027470       ?InternalRelease@?$CComObjectRootEx@VCComSingleThreadModel@ATL@@@ATL@@QAEKXZ 100ae470 f i nafxcwd:wincore.obj
 0002:000274d0       ?Decrement@CComSingleThreadModel@ATL@@SGKPAJ@Z 100ae4d0 f i nafxcwd:wincore.obj
 0002:000274f0       ?GetBufferSetLength@?$CSimpleStringT@D$0A@@ATL@@QAEPADH@Z 100ae4f0 f i nafxcwd:wincore.obj
 0002:00027530       _IsEqualGUID               100ae530 f i nafxcwd:cmdtarg.obj
 0002:00027560       ?DrawState@@YGHPAUHDC__@@PAUHBRUSH__@@P6GH0JIHH@ZJIHHHHI@Z 100ae560 f i nafxcwd:afxinl2.obj
 0002:000275b0       ??2@YAPAXIPAX@Z            100ae5b0 f i nafxcwd:list_s.obj
 0002:000275c0       ??4?$CStringT@DV?$StrTraitMFC@DV?$ChTraitsCRT@D@ATL@@@@@ATL@@QAEAAV01@PB_W@Z 100ae5c0 f i nafxcwd:list_s.obj
 0002:00027660       ??1?$CTempBuffer@_W$0IA@VCCRTAllocator@ATL@@@ATL@@QAE@XZ 100ae660 f i nafxcwd:list_s.obj
 0002:00027690       ??B?$CTempBuffer@_W$0IA@VCCRTAllocator@ATL@@@ATL@@QBEPA_WXZ 100ae690 f i nafxcwd:list_s.obj
 0002:000276b0       ?Allocate@?$CTempBuffer@_W$0IA@VCCRTAllocator@ATL@@@ATL@@QAEPA_WI@Z 100ae6b0 f i nafxcwd:list_s.obj
 0002:000276e0       ?GetBaseTypeLength@?$ChTraitsCRT@D@ATL@@SAHPB_W@Z 100ae6e0 f i nafxcwd:list_s.obj
 0002:00027710       ?AllocateBytes@?$CTempBuffer@_W$0IA@VCCRTAllocator@ATL@@@ATL@@QAEPA_WI@Z 100ae710 f i nafxcwd:list_s.obj
 0002:00027790       ?FreeHeap@?$CTempBuffer@_W$0IA@VCCRTAllocator@ATL@@@ATL@@AAEXXZ 100ae790 f i nafxcwd:list_s.obj
 0002:000277b0       ?AllocateHeap@?$CTempBuffer@_W$0IA@VCCRTAllocator@ATL@@@ATL@@AAEXI@Z 100ae7b0 f i nafxcwd:list_s.obj
 0002:00027800       ??0AFX_CLASSINIT@@QAE@PAUCRuntimeClass@@@Z 100ae800 f i nafxcwd:list_s.obj
 0002:00027820       __tcschr                   100ae820 f i nafxcwd:winstr.obj
 0002:00027840       ?GetBaseTypeLength@?$ChTraitsCRT@_W@ATL@@SAHPBD@Z 100ae840 f i nafxcwd:strcore.obj
 0002:00027870       ?ConvertToBaseType@?$ChTraitsCRT@_W@ATL@@SAXPA_WHPBDH@Z 100ae870 f i nafxcwd:strcore.obj
 0002:000278a0       ??0CComBSTR@ATL@@QAE@ABV01@@Z 100ae8a0 f i nafxcwd:strcore.obj
 0002:000278f0       ??1CComBSTR@ATL@@QAE@XZ    100ae8f0 f i nafxcwd:strcore.obj
 0002:00027910       ?Length@CComBSTR@ATL@@QBEIXZ 100ae910 f i nafxcwd:strcore.obj
 0002:00027950       ?Copy@CComBSTR@ATL@@QBEPA_WXZ 100ae950 f i nafxcwd:strcore.obj
 0002:00027990       ??7CComBSTR@ATL@@QBE_NXZ   100ae990 f i nafxcwd:strcore.obj
 0002:000279b0       ??0CNilStringData@ATL@@QAE@XZ 100ae9b0 f i nafxcwd:strcore.obj
 0002:00027a10       ?SetManager@CNilStringData@ATL@@QAEXPAUIAtlStringMgr@2@@Z 100aea10 f i nafxcwd:strcore.obj
 0002:00027a60       ?ocslen@@YAHPB_W@Z         100aea60 f i nafxcwd:olemisc.obj
 0002:00027a80       ?ocscpy@@YAPA_WPA_WPB_W@Z  100aea80 f i nafxcwd:olemisc.obj
 0002:00027ab0       ?AtlDevModeA2W@@YAPAU_devicemodeW@@PAU1@PBU_devicemodeA@@@Z 100aeab0 f i nafxcwd:olemisc.obj
 0002:00027c60       ?AtlDevModeW2A@@YGPAU_devicemodeA@@PAU1@PBU_devicemodeW@@@Z 100aec60 f i nafxcwd:olemisc.obj
 0002:00027dd0       ??Y?$CStringT@DV?$StrTraitMFC@DV?$ChTraitsCRT@D@ATL@@@@@ATL@@QAEAAV01@D@Z 100aedd0 f i nafxcwd:olemisc.obj
 0002:00027e00       ??Y?$CSimpleStringT@D$0A@@ATL@@QAEAAV01@D@Z 100aee00 f i nafxcwd:olemisc.obj
 0002:00027e30       ?AppendChar@?$CSimpleStringT@D$0A@@ATL@@QAEXD@Z 100aee30 f i nafxcwd:olemisc.obj
 0002:00027e90       ?GetHead@CSimpleList@@QBEPAXXZ 100aee90 f i nafxcwd:thrdcore.obj
 0002:00027eb0       ??_9@$BBFE@AE              100aeeb0 f i nafxcwd:dlgcore.obj
 0002:00027ec0       ??_9@$BBFI@AE              100aeec0 f i nafxcwd:dlgcore.obj
 0002:00027ed0       ?T2CA@@YAPBDPBD@Z          100aeed0 f i nafxcwd:appcore.obj
 0002:00027ee0       ?SetResourceInstance@CAtlBaseModule@ATL@@QAEPAUHINSTANCE__@@PAU3@@Z 100aeee0 f i nafxcwd:appcore.obj
 0002:00027f10       ?GetSize@CRecentFileList@@QBEHXZ 100aef10 f i nafxcwd:appcore.obj
 0002:00027f30       ??ACRecentFileList@@QAEAAV?$CStringT@DV?$StrTraitMFC@DV?$ChTraitsCRT@D@ATL@@@@@ATL@@H@Z 100aef30 f i nafxcwd:appcore.obj
 0002:00027f80       ?GetBuffer@?$CSimpleStringT@D$0A@@ATL@@QAEPADXZ 100aef80 f i nafxcwd:appui2.obj
 0002:00027fd0       _!=                        100aefd0 f i nafxcwd:olefact.obj
 0002:00027ff0       _==                        100aeff0 f i nafxcwd:olefact.obj
 0002:00028010       ??3@YAXPAX0@Z              100af010 f i nafxcwd:afxtls.obj
 0002:00028020       ??0CSimpleList@@QAE@H@Z    100af020 f i nafxcwd:afxtls.obj
 0002:00028050       ?Construct@CSimpleList@@QAEXH@Z 100af050 f i nafxcwd:afxtls.obj
 0002:00028090       ?GetNextPtr@CSimpleList@@QBEPAPAXPAX@Z 100af090 f i nafxcwd:afxtls.obj
 0002:000280d0       ??2CThreadSlotData@@SGPAXIPAX@Z 100af0d0 f i nafxcwd:afxtls.obj
 0002:000280e0       ?GetAllocSize@CFixedAllocNoSync@@QAEIXZ 100af0e0 f i nafxcwd:winhand.obj
 0002:00028100       ??_ECHandleMap@@UAEPAXI@Z  100af100 f i nafxcwd:winhand.obj
 0002:00028100       ??_GCHandleMap@@UAEPAXI@Z  100af100 f i nafxcwd:winhand.obj
 0002:00028140       ??1CHandleMap@@UAE@XZ      100af140 f i nafxcwd:winhand.obj
 0002:000281d0       ??0CTraceCategory@ATL@@QAE@PBDI@Z 100af1d0 f i nafxcwd:appinit.obj
 0002:00028230       ?ChangeCategory@CTrace@ATL@@QAE_NKIW4ATLTRACESTATUS@2@@Z 100af230 f i nafxcwd:appinit.obj
 0002:00028260       ?RegisterCategory@CTrace@ATL@@QAEKPBD@Z 100af260 f i nafxcwd:appinit.obj
 0002:00028290       ??0CTypeLibCache@@QAE@XZ   100af290 f i nafxcwd:afxstate.obj
 0002:000282e0       ??_Estringdispid@CComTypeInfoHolder@ATL@@QAEPAXI@Z 100af2e0 f i nafxcwd:objcore.obj
 0002:00028370       ??1stringdispid@CComTypeInfoHolder@ATL@@QAE@XZ 100af370 f i nafxcwd:objcore.obj
 0002:00028390       ??0CAtlWinModule@ATL@@QAE@XZ 100af390 f i nafxcwd:objcore.obj
 0002:000283e0       ??0_ATL_WIN_MODULE70@ATL@@QAE@XZ 100af3e0 f i nafxcwd:objcore.obj
 0002:00028410       ??0CComCriticalSection@ATL@@QAE@XZ 100af410 f i nafxcwd:objcore.obj
 0002:00028440       ??0?$CSimpleArray@GV?$CSimpleArrayEqualHelper@G@ATL@@@ATL@@QAE@XZ 100af440 f i nafxcwd:objcore.obj
 0002:00028480       ??1CAtlWinModule@ATL@@QAE@XZ 100af480 f i nafxcwd:objcore.obj
 0002:000284e0       ?Term@CAtlWinModule@ATL@@QAEXXZ 100af4e0 f i nafxcwd:objcore.obj
 0002:00028510       ?GetModuleInstance@CAtlBaseModule@ATL@@QAEPAUHINSTANCE__@@XZ 100af510 f i nafxcwd:objcore.obj
 0002:00028530       ??1_ATL_WIN_MODULE70@ATL@@QAE@XZ 100af530 f i nafxcwd:objcore.obj
 0002:00028550       ?AtlWinModuleTerm@ATL@@YGJPAU_ATL_WIN_MODULE70@1@PAUHINSTANCE__@@@Z 100af550 f i nafxcwd:objcore.obj
 0002:00028610       ?Term@CComCriticalSection@ATL@@QAEJXZ 100af610 f i nafxcwd:objcore.obj
 0002:00028630       ??1?$CSimpleArray@GV?$CSimpleArrayEqualHelper@G@ATL@@@ATL@@QAE@XZ 100af630 f i nafxcwd:objcore.obj
 0002:00028650       ?GetSize@?$CSimpleArray@GV?$CSimpleArrayEqualHelper@G@ATL@@@ATL@@QBEHXZ 100af650 f i nafxcwd:objcore.obj
 0002:00028670       ?RemoveAll@?$CSimpleArray@GV?$CSimpleArrayEqualHelper@G@ATL@@@ATL@@QAEXXZ 100af670 f i nafxcwd:objcore.obj
 0002:000286f0       ??A?$CSimpleArray@GV?$CSimpleArrayEqualHelper@G@ATL@@@ATL@@QAEAAGH@Z 100af6f0 f i nafxcwd:objcore.obj
 0002:00028770       ?_AtlRaiseException@ATL@@YAXKK@Z 100af770 f i nafxcwd:objcore.obj
 0002:00028790       ?_wcstombsz@ATL@@YAHPADPB_WK@Z 100af790 f i nafxcwd:dumpcont.obj
 0002:00028820       ?AtlGetCommCtrlVersion@ATL@@YAJPAK0@Z 100af820 f i nafxcwd:winctrl3.obj
 0002:00028900       ?AtlGetDllVersion@ATL@@YAJPBDPAU_DLLVERSIONINFO@@@Z 100af900 f i nafxcwd:winctrl3.obj
 0002:00028960       ?AtlHresultFromLastError@ATL@@YAJXZ 100af960 f i nafxcwd:winctrl3.obj
 0002:000289b0       ?AtlGetDllVersion@ATL@@YAJPAUHINSTANCE__@@PAU_DLLVERSIONINFO@@@Z 100af9b0 f i nafxcwd:winctrl3.obj
 0002:00028a30       ?AtlIsValidString@ATL@@YAHPB_WI@Z 100afa30 f i nafxcwd:validadd.obj
 0002:00028b20       ?AtlIsValidAddress@ATL@@YAHPBXIH@Z 100afb20 f i nafxcwd:validadd.obj
 0002:00028b80       ??0CAssoc@CMapStringToString@@QAE@PBD@Z 100afb80 f i nafxcwd:map_ss.obj
 0002:00028bb0       ??0CPair@CMapStringToString@@IAE@PBD@Z 100afbb0 f i nafxcwd:map_ss.obj
 0002:00028be0       ??1CPair@CMapStringToString@@QAE@XZ 100afbe0 f i nafxcwd:map_ss.obj
 0002:00028c10       __tcsrchr                  100afc10 f i nafxcwd:dlgfile.obj
 0002:00028c30       __tcsinc                   100afc30 f i nafxcwd:dlgfile.obj
 0002:00028c50       ??1CCommonDialog@@UAE@XZ   100afc50 f i nafxcwd:dlgfile.obj
 0002:00028c80       ?AfxCheckError@@YGXJ@Z     100afc80 f   nafxcwd:olevar.obj
 0002:00028cb0       ?_AfxCompareSafeArrays@@YGHPAUtagSAFEARRAY@@0@Z 100afcb0 f   nafxcwd:olevar.obj
 0002:00029100       ?_AfxCreateOneDimArray@@YGXAAUtagVARIANT@@K@Z 100b0100 f   nafxcwd:olevar.obj
 0002:00029220       ?_AfxCopyBinaryData@@YGXPAUtagSAFEARRAY@@PBXK@Z 100b0220 f   nafxcwd:olevar.obj
 0002:00029270       ??0COleVariant@@QAE@ABUtagVARIANT@@@Z 100b0270 f   nafxcwd:olevar.obj
 0002:000292a0       ??0COleVariant@@QAE@PBUtagVARIANT@@@Z 100b02a0 f   nafxcwd:olevar.obj
 0002:000292d0       ??0COleVariant@@QAE@ABV0@@Z 100b02d0 f   nafxcwd:olevar.obj
 0002:00029300       ??0COleVariant@@QAE@PBDG@Z 100b0300 f   nafxcwd:olevar.obj
 0002:00029410       ?SetString@COleVariant@@QAEXPBDG@Z 100b0410 f   nafxcwd:olevar.obj
 0002:00029530       ??0COleVariant@@QAE@FG@Z   100b0530 f   nafxcwd:olevar.obj
 0002:000295b0       ??0COleVariant@@QAE@JG@Z   100b05b0 f   nafxcwd:olevar.obj
 0002:000296f0       ?ChangeType@COleVariant@@QAEXGPAUtagVARIANT@@@Z 100b06f0 f   nafxcwd:olevar.obj
 0002:00029740       ?Attach@COleVariant@@QAEXAAUtagVARIANT@@@Z 100b0740 f   nafxcwd:olevar.obj
 0002:00029770       ?Detach@COleVariant@@QAE?AUtagVARIANT@@XZ 100b0770 f   nafxcwd:olevar.obj
 0002:000297c0       ?GetByteArrayFromVariantArray@COleVariant@@QAEXAAVCByteArray@@@Z 100b07c0 f   nafxcwd:olevar.obj
 0002:000298e0       ??8COleVariant@@QBEHABUtagVARIANT@@@Z 100b08e0 f   nafxcwd:olevar.obj
 0002:00029c60       ??4COleVariant@@QAEABV0@ABUtagVARIANT@@@Z 100b0c60 f   nafxcwd:olevar.obj
 0002:00029c90       ??4COleVariant@@QAEABV0@PBUtagVARIANT@@@Z 100b0c90 f   nafxcwd:olevar.obj
 0002:00029cc0       ??4COleVariant@@QAEABV0@ABV0@@Z 100b0cc0 f   nafxcwd:olevar.obj
 0002:00029cf0       ??4COleVariant@@QAEABV0@QBD@Z 100b0cf0 f   nafxcwd:olevar.obj
 0002:00029dc0       ??4COleVariant@@QAEABV0@ABV?$CStringT@DV?$StrTraitMFC@DV?$ChTraitsCRT@D@ATL@@@@@ATL@@@Z 100b0dc0 f   nafxcwd:olevar.obj
 0002:00029e80       ??4COleVariant@@QAEABV0@E@Z 100b0e80 f   nafxcwd:olevar.obj
 0002:00029ec0       ??4COleVariant@@QAEABV0@F@Z 100b0ec0 f   nafxcwd:olevar.obj
 0002:00029f30       ??4COleVariant@@QAEABV0@J@Z 100b0f30 f   nafxcwd:olevar.obj
 0002:00029fb0       ??4COleVariant@@QAEABV0@ABVCOleCurrency@@@Z 100b0fb0 f   nafxcwd:olevar.obj
 0002:00029ff0       ??4COleVariant@@QAEABV0@M@Z 100b0ff0 f   nafxcwd:olevar.obj
 0002:0002a030       ??4COleVariant@@QAEABV0@N@Z 100b1030 f   nafxcwd:olevar.obj
 0002:0002a070       ??4COleVariant@@QAEABV0@ABVCOleDateTime@ATL@@@Z 100b1070 f   nafxcwd:olevar.obj
 0002:0002a0b0       ??4COleVariant@@QAEABV0@ABVCByteArray@@@Z 100b10b0 f   nafxcwd:olevar.obj
 0002:0002a110       ??4COleVariant@@QAEABV0@ABVCLongBinary@@@Z 100b1110 f   nafxcwd:olevar.obj
 0002:0002a180       ?AfxVariantInit@@YGXPAUtagVARIANT@@@Z 100b1180 f   nafxcwd:olevar.obj
 0002:0002a1a0       ??6@YGAAVCDumpContext@@AAV0@VCOleVariant@@@Z 100b11a0 f   nafxcwd:olevar.obj
 0002:0002a6b0       ??6@YGAAVCArchive@@AAV0@VCOleVariant@@@Z 100b16b0 f   nafxcwd:olevar.obj
 0002:0002ac20       ??5@YGAAVCArchive@@AAV0@AAVCOleVariant@@@Z 100b1c20 f   nafxcwd:olevar.obj
 0002:0002b080       ??6@YGAAVCArchive@@AAV0@VCComBSTR@ATL@@@Z 100b2080 f   nafxcwd:olevar.obj
 0002:0002b100       ??5@YGAAVCArchive@@AAV0@AAVCComBSTR@ATL@@@Z 100b2100 f   nafxcwd:olevar.obj
 0002:0002b170       ??$CopyElements@VCOleVariant@@@@YGXPAVCOleVariant@@PBV0@H@Z 100b2170 f   nafxcwd:olevar.obj
 0002:0002b210       ??$SerializeElements@VCOleVariant@@@@YGXAAVCArchive@@PAVCOleVariant@@H@Z 100b2210 f   nafxcwd:olevar.obj
 0002:0002b2c0       ??$DumpElements@VCOleVariant@@@@YGXAAVCDumpContext@@PBVCOleVariant@@H@Z 100b22c0 f   nafxcwd:olevar.obj
 0002:0002b310       ??$HashKey@ABUtagVARIANT@@@@YGIABUtagVARIANT@@@Z 100b2310 f   nafxcwd:olevar.obj
 0002:0002b430       ??0COleCurrency@@QAE@JJ@Z  100b2430 f   nafxcwd:olevar.obj
 0002:0002b460       ??4COleCurrency@@QAEABV0@TtagCY@@@Z 100b2460 f   nafxcwd:olevar.obj
 0002:0002b490       ??4COleCurrency@@QAEABV0@ABV0@@Z 100b2490 f   nafxcwd:olevar.obj
 0002:0002b4c0       ??4COleCurrency@@QAEABV0@ABUtagVARIANT@@@Z 100b24c0 f   nafxcwd:olevar.obj
 0002:0002b5d0       ??MCOleCurrency@@QBEHABV0@@Z 100b25d0 f   nafxcwd:olevar.obj
 0002:0002b660       ??OCOleCurrency@@QBEHABV0@@Z 100b2660 f   nafxcwd:olevar.obj
 0002:0002b6f0       ??NCOleCurrency@@QBEHABV0@@Z 100b26f0 f   nafxcwd:olevar.obj
 0002:0002b780       ??PCOleCurrency@@QBEHABV0@@Z 100b2780 f   nafxcwd:olevar.obj
 0002:0002b810       ??HCOleCurrency@@QBE?AV0@ABV0@@Z 100b2810 f   nafxcwd:olevar.obj
 0002:0002b8f0       ??GCOleCurrency@@QBE?AV0@ABV0@@Z 100b28f0 f   nafxcwd:olevar.obj
 0002:0002b9d0       ??GCOleCurrency@@QBE?AV0@XZ 100b29d0 f   nafxcwd:olevar.obj
 0002:0002ba60       ??DCOleCurrency@@QBE?AV0@J@Z 100b2a60 f   nafxcwd:olevar.obj
 0002:0002bc60       ??KCOleCurrency@@QBE?AV0@J@Z 100b2c60 f   nafxcwd:olevar.obj
 0002:0002bd50       ?SetCurrency@COleCurrency@@QAEXJJ@Z 100b2d50 f   nafxcwd:olevar.obj
 0002:0002be00       ?ParseCurrency@COleCurrency@@QAEHPBDKK@Z 100b2e00 f   nafxcwd:olevar.obj
 0002:0002bfc0       ?Format@COleCurrency@@QBE?AV?$CStringT@DV?$StrTraitMFC@DV?$ChTraitsCRT@D@ATL@@@@@ATL@@KK@Z 100b2fc0 f   nafxcwd:olevar.obj
 0002:0002c170       ??6@YGAAVCDumpContext@@AAV0@VCOleCurrency@@@Z 100b3170 f   nafxcwd:olevar.obj
 0002:0002c210       ??6@YGAAVCArchive@@AAV0@VCOleCurrency@@@Z 100b3210 f   nafxcwd:olevar.obj
 0002:0002c240       ??5@YGAAVCArchive@@AAV0@AAVCOleCurrency@@@Z 100b3240 f   nafxcwd:olevar.obj
 0002:0002c280       ??6@YGAAVCDumpContext@@AAV0@VCOleDateTime@ATL@@@Z 100b3280 f   nafxcwd:olevar.obj
 0002:0002c320       ??6@YGAAVCArchive@@AAV0@VCOleDateTime@ATL@@@Z 100b3320 f   nafxcwd:olevar.obj
 0002:0002c350       ??5@YGAAVCArchive@@AAV0@AAVCOleDateTime@ATL@@@Z 100b3350 f   nafxcwd:olevar.obj
 0002:0002c380       ??6@YGAAVCDumpContext@@AAV0@VCOleDateTimeSpan@ATL@@@Z 100b3380 f   nafxcwd:olevar.obj
 0002:0002c430       ??6@YGAAVCArchive@@AAV0@VCOleDateTimeSpan@ATL@@@Z 100b3430 f   nafxcwd:olevar.obj
 0002:0002c460       ??5@YGAAVCArchive@@AAV0@AAVCOleDateTimeSpan@ATL@@@Z 100b3460 f   nafxcwd:olevar.obj
 0002:0002c490       ??0COleSafeArray@@QAE@ABUtagSAFEARRAY@@G@Z 100b3490 f   nafxcwd:olevar.obj
 0002:0002c4f0       ??0COleSafeArray@@QAE@PBUtagSAFEARRAY@@G@Z 100b34f0 f   nafxcwd:olevar.obj
 0002:0002c550       ??0COleSafeArray@@QAE@ABV0@@Z 100b3550 f   nafxcwd:olevar.obj
 0002:0002c5a0       ??0COleSafeArray@@QAE@ABUtagVARIANT@@@Z 100b35a0 f   nafxcwd:olevar.obj
 0002:0002c5f0       ??0COleSafeArray@@QAE@ABVCOleVariant@@@Z 100b35f0 f   nafxcwd:olevar.obj
 0002:0002c640       ??0COleSafeArray@@QAE@PBUtagVARIANT@@@Z 100b3640 f   nafxcwd:olevar.obj
 0002:0002c690       ?Attach@COleSafeArray@@QAEXAAUtagVARIANT@@@Z 100b3690 f   nafxcwd:olevar.obj
 0002:0002c700       ?Detach@COleSafeArray@@QAE?AUtagVARIANT@@XZ 100b3700 f   nafxcwd:olevar.obj
 0002:0002c750       ?GetByteArray@COleSafeArray@@QAEXAAVCByteArray@@@Z 100b3750 f   nafxcwd:olevar.obj
 0002:0002c870       ??4COleSafeArray@@QAEAAV0@ABV0@@Z 100b3870 f   nafxcwd:olevar.obj
 0002:0002c8d0       ??4COleSafeArray@@QAEAAV0@ABUtagVARIANT@@@Z 100b38d0 f   nafxcwd:olevar.obj
 0002:0002c930       ??4COleSafeArray@@QAEAAV0@PBUtagVARIANT@@@Z 100b3930 f   nafxcwd:olevar.obj
 0002:0002c990       ??4COleSafeArray@@QAEAAV0@ABVCOleVariant@@@Z 100b3990 f   nafxcwd:olevar.obj
 0002:0002c9f0       ??8COleSafeArray@@QBEHABUtagSAFEARRAY@@@Z 100b39f0 f   nafxcwd:olevar.obj
 0002:0002ca10       ??8COleSafeArray@@QBEHPBUtagSAFEARRAY@@@Z 100b3a10 f   nafxcwd:olevar.obj
 0002:0002ca30       ??8COleSafeArray@@QBEHABV0@@Z 100b3a30 f   nafxcwd:olevar.obj
 0002:0002ca70       ??8COleSafeArray@@QBEHABUtagVARIANT@@@Z 100b3a70 f   nafxcwd:olevar.obj
 0002:0002cab0       ??8COleSafeArray@@QBEHPBUtagVARIANT@@@Z 100b3ab0 f   nafxcwd:olevar.obj
 0002:0002caf0       ??8COleSafeArray@@QBEHABVCOleVariant@@@Z 100b3af0 f   nafxcwd:olevar.obj
 0002:0002cb30       ?_AfxDumpSafeArrayElement@@YAXAAVCDumpContext@@AAVCOleSafeArray@@PAJ@Z 100b3b30 f   nafxcwd:olevar.obj
 0002:0002ce10       ??6@YGAAVCDumpContext@@AAV0@AAVCOleSafeArray@@@Z 100b3e10 f   nafxcwd:olevar.obj
 0002:0002d090       ?CreateOneDim@COleSafeArray@@QAEXGKPBXJ@Z 100b4090 f   nafxcwd:olevar.obj
 0002:0002d120       ?GetOneDimSize@COleSafeArray@@QAEKXZ 100b4120 f   nafxcwd:olevar.obj
 0002:0002d180       ?ResizeOneDim@COleSafeArray@@QAEXK@Z 100b4180 f   nafxcwd:olevar.obj
 0002:0002d1e0       ?Create@COleSafeArray@@QAEXGKPAK@Z 100b41e0 f   nafxcwd:olevar.obj
 0002:0002d310       ?Create@COleSafeArray@@QAEXGKPAUtagSAFEARRAYBOUND@@@Z 100b4310 f   nafxcwd:olevar.obj
 0002:0002d490       ?AccessData@COleSafeArray@@QAEXPAPAX@Z 100b4490 f   nafxcwd:olevar.obj
 0002:0002d4c0       ?UnaccessData@COleSafeArray@@QAEXXZ 100b44c0 f   nafxcwd:olevar.obj
 0002:0002d4e0       ?AllocData@COleSafeArray@@QAEXXZ 100b44e0 f   nafxcwd:olevar.obj
 0002:0002d500       ?AllocDescriptor@COleSafeArray@@QAEXK@Z 100b4500 f   nafxcwd:olevar.obj
 0002:0002d530       ?Copy@COleSafeArray@@QAEXPAPAUtagSAFEARRAY@@@Z 100b4530 f   nafxcwd:olevar.obj
 0002:0002d560       ?GetLBound@COleSafeArray@@QAEXKPAJ@Z 100b4560 f   nafxcwd:olevar.obj
 0002:0002d590       ?GetUBound@COleSafeArray@@QAEXKPAJ@Z 100b4590 f   nafxcwd:olevar.obj
 0002:0002d5c0       ?GetElement@COleSafeArray@@QAEXPAJPAX@Z 100b45c0 f   nafxcwd:olevar.obj
 0002:0002d5f0       ?PtrOfIndex@COleSafeArray@@QAEXPAJPAPAX@Z 100b45f0 f   nafxcwd:olevar.obj
 0002:0002d620       ?PutElement@COleSafeArray@@QAEXPAJPAX@Z 100b4620 f   nafxcwd:olevar.obj
 0002:0002d650       ?Redim@COleSafeArray@@QAEXPAUtagSAFEARRAYBOUND@@@Z 100b4650 f   nafxcwd:olevar.obj
 0002:0002d680       ?Lock@COleSafeArray@@QAEXXZ 100b4680 f   nafxcwd:olevar.obj
 0002:0002d6a0       ?Unlock@COleSafeArray@@QAEXXZ 100b46a0 f   nafxcwd:olevar.obj
 0002:0002d6c0       ?Destroy@COleSafeArray@@QAEXXZ 100b46c0 f   nafxcwd:olevar.obj
 0002:0002d6e0       ?DestroyData@COleSafeArray@@QAEXXZ 100b46e0 f   nafxcwd:olevar.obj
 0002:0002d700       ?DestroyDescriptor@COleSafeArray@@QAEXXZ 100b4700 f   nafxcwd:olevar.obj
 0002:0002d720       ?AfxSafeArrayInit@@YGXPAVCOleSafeArray@@@Z 100b4720 f   nafxcwd:olevar.obj
 0002:0002d740       ?DDX_Text@@YGXPAVCDataExchange@@HAAVCOleDateTime@ATL@@@Z 100b4740 f   nafxcwd:olevar.obj
 0002:0002d860       ?DDX_Text@@YGXPAVCDataExchange@@HAAU_FILETIME@@@Z 100b4860 f   nafxcwd:olevar.obj
 0002:0002d9e0       ?DDX_Text@@YGXPAVCDataExchange@@HAAVCOleCurrency@@@Z 100b49e0 f   nafxcwd:olevar.obj
 0002:0002db00       ?DDX_Text@@YGXPAVCDataExchange@@HAAUtagDEC@@@Z 100b4b00 f   nafxcwd:olevar.obj
 0002:0002dce0       ?DDX_Text@@YGXPAVCDataExchange@@HAAU_GUID@@@Z 100b4ce0 f   nafxcwd:olevar.obj
 0002:0002f380       ?Attach@CComBSTR@ATL@@QAEXPA_W@Z 100b6380 f i nafxcwd:olevar.obj
 0002:0002f3c0       ?Detach@CComBSTR@ATL@@QAEPA_WXZ 100b63c0 f i nafxcwd:olevar.obj
 0002:0002f3f0       ??$HashKey@K@@YGIK@Z       100b63f0 f i nafxcwd:olevar.obj
 0002:0002f400       ?Empty@CComBSTR@ATL@@QAEXXZ 100b6400 f i nafxcwd:olevar.obj
 0002:0002f430       ?ParseDateTime@COleDateTime@ATL@@QAE_NPBDKK@Z 100b6430 f i nafxcwd:olevar.obj
 0002:0002f6c0       ?Format@COleDateTime@ATL@@QBE?AV?$CStringT@DV?$StrTraitMFC@DV?$ChTraitsCRT@D@ATL@@@@@2@KK@Z 100b66c0 f i nafxcwd:olevar.obj
 0002:0002f940       ??0CComBSTR@ATL@@QAE@XZ    100b6940 f i nafxcwd:olevar.obj
 0002:0002f960       ??BCComBSTR@ATL@@QBEPA_WXZ 100b6960 f i nafxcwd:olevar.obj
 0002:0002f980       ??ICComBSTR@ATL@@QAEPAPA_WXZ 100b6980 f i nafxcwd:olevar.obj
 0002:0002f9a0       ??0?$CStringT@DV?$StrTraitMFC@DV?$ChTraitsCRT@D@ATL@@@@@ATL@@QAE@PB_W@Z 100b69a0 f i nafxcwd:olevar.obj
 0002:0002fa30       ?AtlAllocTaskWideString@ATL@@YAPA_WPBD@Z 100b6a30 f i nafxcwd:olecnvrt.obj
 0002:0002faf0       ?AtlAllocTaskAnsiString@ATL@@YAPADPB_W@Z 100b6af0 f i nafxcwd:olecnvrt.obj
 0002:0002fbb0       ??RCTraceFileAndLineInfo@ATL@@QBAXPBDZZ 100b6bb0 f i nafxcwd:winfrm.obj
 0002:0002fc10       ?_mbstowcsz@ATL@@YAHPA_WPBDK@Z 100b6c10 f i nafxcwd:winfrm.obj
 0002:0002fcb0       ??0CPushRoutingFrame@@QAE@PAVCFrameWnd@@@Z 100b6cb0 f i nafxcwd:winfrm.obj
 0002:0002fd30       ??1CPushRoutingFrame@@QAE@XZ 100b6d30 f i nafxcwd:winfrm.obj
 0002:0002fdb0       ?Pop@CPushRoutingFrame@@QAEXXZ 100b6db0 f i nafxcwd:winfrm.obj
 0002:0002fe50       ?GetFileTitle@@YGFPBDPADG@Z 100b6e50 f i nafxcwd:filecore.obj
 0002:0002fe70       __tcsdec                   100b6e70 f i nafxcwd:docmgr.obj
 0002:0002fe90       ??0CFixedAllocNoSync@@QAE@II@Z 100b6e90 f   nafxcwd:fixalloc.obj
 0002:0002ff10       ??1CFixedAllocNoSync@@QAE@XZ 100b6f10 f   nafxcwd:fixalloc.obj
 0002:0002ff30       ?FreeAll@CFixedAllocNoSync@@QAEXXZ 100b6f30 f   nafxcwd:fixalloc.obj
 0002:0002ff60       ?Alloc@CFixedAllocNoSync@@QAEPAXXZ 100b6f60 f   nafxcwd:fixalloc.obj
 0002:00030030       ?Free@CFixedAllocNoSync@@QAEXPAX@Z 100b7030 f   nafxcwd:fixalloc.obj
 0002:00030060       ??0CFixedAlloc@@QAE@II@Z   100b7060 f   nafxcwd:fixalloc.obj
 0002:00030090       ??1CFixedAlloc@@QAE@XZ     100b7090 f   nafxcwd:fixalloc.obj
 0002:000300b0       ?FreeAll@CFixedAlloc@@QAEXXZ 100b70b0 f   nafxcwd:fixalloc.obj
 0002:00030160       ?Alloc@CFixedAlloc@@QAEPAXXZ 100b7160 f   nafxcwd:fixalloc.obj
 0002:00030220       ?Free@CFixedAlloc@@QAEXPAX@Z 100b7220 f   nafxcwd:fixalloc.obj
 0002:000303f0       ??0IStream@@QAE@XZ         100b73f0 f i nafxcwd:arcstrm.obj
 0002:00030410       ??0ISequentialStream@@QAE@XZ 100b7410 f i nafxcwd:arcstrm.obj
 0002:00030430       ?EnableTypeLib@CCmdTarget@@QAEXXZ 100b7430 f   nafxcwd:oletyplb.obj
 0002:00030480       ?GetTypeInfoOfGuid@CCmdTarget@@QAEJKABU_GUID@@PAPAUITypeInfo@@@Z 100b7480 f   nafxcwd:oletyplb.obj
 0002:00030640       ?AfxGetTypeLibCache@@YGPAVCTypeLibCache@@PBU_GUID@@@Z 100b7640 f   nafxcwd:oletyplb.obj
 0002:00030830       ?Lock@CTypeLibCache@@QAEXXZ 100b7830 f   nafxcwd:oletyplb.obj
 0002:00030880       ?Lookup@CTypeLibCache@@QAEHKPAPAUITypeLib@@@Z 100b7880 f   nafxcwd:oletyplb.obj
 0002:000308f0       ?Cache@CTypeLibCache@@QAEXKPAUITypeLib@@@Z 100b78f0 f   nafxcwd:oletyplb.obj
 0002:000309b0       ?LookupTypeInfo@CTypeLibCache@@QAEHKABU_GUID@@PAPAUITypeInfo@@@Z 100b79b0 f   nafxcwd:oletyplb.obj
 0002:00030a60       ?CacheTypeInfo@CTypeLibCache@@QAEXKABU_GUID@@PAUITypeInfo@@@Z 100b7a60 f   nafxcwd:oletyplb.obj
 0002:00030c90       ??0CTypeLibCacheMap@@QAE@XZ 100b7c90 f i nafxcwd:oletyplb.obj
 0002:00030cc0       ??_GCTypeLibCacheMap@@UAEPAXI@Z 100b7cc0 f i nafxcwd:oletyplb.obj
 0002:00030cc0       ??_ECTypeLibCacheMap@@UAEPAXI@Z 100b7cc0 f i nafxcwd:oletyplb.obj
 0002:00030d00       ??1CTypeLibCacheMap@@UAE@XZ 100b7d00 f i nafxcwd:oletyplb.obj
 0002:00030d20       ??_9@$BBGA@AE              100b7d20 f i nafxcwd:viewcore.obj
 0002:00030d30       ??0CPushRoutingView@@QAE@PAVCView@@@Z 100b7d30 f i nafxcwd:viewcore.obj
 0002:00030db0       ??1CPushRoutingView@@QAE@XZ 100b7db0 f i nafxcwd:viewcore.obj
 0002:00030e30       ?Pop@CPushRoutingView@@QAEXXZ 100b7e30 f i nafxcwd:viewcore.obj
 0002:00030ed0       ?_JumpToContinuation@@YGXPAXPAUEHRegistrationNode@@@Z 100b7ed0 f   libcmtd:trnsctrl.obj
 0002:00030f10       ?_CallMemberFunction0@@YGXPAX0@Z 100b7f10 f   libcmtd:trnsctrl.obj
 0002:00030f20       ?_CallMemberFunction1@@YGXPAX00@Z 100b7f20 f   libcmtd:trnsctrl.obj
 0002:00030f30       ?_CallMemberFunction2@@YGXPAX00H@Z 100b7f30 f   libcmtd:trnsctrl.obj
 0002:00030f40       ?_UnwindNestedFrames@@YGXPAUEHRegistrationNode@@PAUEHExceptionRecord@@@Z 100b7f40 f   libcmtd:trnsctrl.obj
 0002:00030fb0       ___CxxFrameHandler         100b7fb0 f   libcmtd:trnsctrl.obj
 0002:00031000       ___CxxLongjmpUnwind@4      100b8000 f   libcmtd:trnsctrl.obj
 0002:00031030       ?_CallCatchBlock2@@YAPAXPAUEHRegistrationNode@@PBU_s_FuncInfo@@PAXHK@Z 100b8030 f   libcmtd:trnsctrl.obj
 0002:00031130       ?_CallSETranslator@@YAHPAUEHExceptionRecord@@PAUEHRegistrationNode@@PAX2PBU_s_FuncInfo@@H1@Z 100b8130 f   libcmtd:trnsctrl.obj
 0002:00031350       ?_GetRangeOfTrysToCheck@@YAPBU_s_TryBlockMapEntry@@PBU_s_FuncInfo@@HHPAI1@Z 100b8350 f   libcmtd:trnsctrl.obj
 0002:00031400       ?_CreateFrameInfo@@YAPAUFrameInfo@@PAU1@PAX@Z 100b8400 f   libcmtd:trnsctrl.obj
 0002:00031440       ?IsExceptionObjectToBeDestroyed@@YAHPAX@Z 100b8440 f   libcmtd:trnsctrl.obj
 0002:00031480       ?_FindAndUnlinkFrame@@YAXPAUFrameInfo@@@Z 100b8480 f   libcmtd:trnsctrl.obj
 0002:000314ec       __global_unwind2           100b84ec f   libcmtd:exsup.obj
 0002:0003152e       __local_unwind2            100b852e f   libcmtd:exsup.obj
 0002:00031586       __NLG_Return2              100b8586     libcmtd:exsup.obj
 0002:00031596       __abnormal_termination     100b8596 f   libcmtd:exsup.obj
 0002:000315b9       __NLG_Notify1              100b85b9 f   libcmtd:exsup.obj
 0002:000315c2       __NLG_Notify               100b85c2 f   libcmtd:exsup.obj
 0002:000315d5       __NLG_Dispatch             100b85d5     libcmtd:exsup.obj
 0002:00031620       __RTC_CheckEsp             100b8620 f   libcmtd:stack.obj
 0002:00031650       @_RTC_CheckStackVars@8     100b8650 f   libcmtd:stack.obj
 0002:000316d0       __RTC_InitBase             100b86d0 f   libcmtd:init.obj
 0002:00031710       __RTC_Shutdown             100b8710 f   libcmtd:init.obj
 0002:00031730       __CrtDbgBreak              100b8730 f   libcmtd:dbgrpt.obj
 0002:00031740       __CrtSetReportMode         100b8740 f   libcmtd:dbgrpt.obj
 0002:000317b0       __CrtSetReportFile         100b87b0 f   libcmtd:dbgrpt.obj
 0002:00031850       __CrtSetReportHook         100b8850 f   libcmtd:dbgrpt.obj
 0002:00031880       __CrtSetReportHook2        100b8880 f   libcmtd:dbgrpt.obj
 0002:00031b60       __CrtDbgReport             100b8b60 f   libcmtd:dbgrpt.obj
 0002:000324a0       __mbscmp                   100b94a0 f   libcmtd:mbscmp.obj
 0002:00032620       _strlen                    100b9620 f   libcmtd:strlen.obj
 0002:000326d0       _memcpy                    100b96d0 f   libcmtd:memcpy.obj
 0002:00032ae0       _memmove                   100b9ae0 f   libcmtd:memmove.obj
 0002:00032ef0       __fpmath                   100b9ef0 f   libcmtd:fpinit.obj
 0002:00032f20       __fpclear                  100b9f20 f   libcmtd:fpinit.obj
 0002:00032f30       __cfltcvt_init             100b9f30 f   libcmtd:fpinit.obj
 0002:00032f90       ___setfflag                100b9f90 f   libcmtd:fpinit.obj
 0002:00032fc0       _vsprintf                  100b9fc0 f   libcmtd:vsprintf.obj
 0002:000330e0       __vscprintf                100ba0e0 f   libcmtd:vsprintf.obj
 0002:00033180       _atol                      100ba180 f   libcmtd:atox.obj
 0002:000332d0       _atoi                      100ba2d0 f   libcmtd:atox.obj
 0002:000332f0       __atoi64                   100ba2f0 f   libcmtd:atox.obj
 0002:00033474       __ftol2                    100ba474 f   libcmtd:ftol2.obj
 0002:00033510       _atof                      100ba510 f   libcmtd:atof.obj
 0002:00033570       _fclose                    100ba570 f   libcmtd:fclose.obj
 0002:00033660       __fclose_lk                100ba660 f   libcmtd:fclose.obj
 0002:00033740       _fprintf                   100ba740 f   libcmtd:fprintf.obj
 0002:00033870       __fsopen                   100ba870 f   libcmtd:fopen.obj
 0002:000339f0       _fopen                     100ba9f0 f   libcmtd:fopen.obj
 0002:00033a10       __onexit                   100baa10 f   libcmtd:onexit.obj
 0002:00033bb0       _atexit                    100babb0 f   libcmtd:onexit.obj
 0002:00033bd0       ___onexitinit              100babd0 f   libcmtd:onexit.obj
 0002:00033c30       __alloca_probe             100bac30     libcmtd:chkstk.obj
 0002:00033c30       __chkstk                   100bac30 f   libcmtd:chkstk.obj
 0002:00033c80       __resetstkoflw             100bac80 f   libcmtd:resetstk.obj
 0002:00033e24       __except_handler3          100bae24 f   libcmtd:exsup3.obj
 0002:00033f0a       __seh_longjmp_unwind@4     100baf0a f   libcmtd:exsup3.obj
 0002:00033f70       _wcscat                    100baf70 f   libcmtd:wcscat.obj
 0002:00033fe0       _wcscpy                    100bafe0 f   libcmtd:wcscat.obj
 0002:00034030       _malloc                    100bb030 f   libcmtd:dbgheap.obj
 0002:00034060       __malloc_dbg               100bb060 f   libcmtd:dbgheap.obj
 0002:000340a0       __nh_malloc                100bb0a0 f   libcmtd:dbgheap.obj
 0002:000340d0       __nh_malloc_dbg            100bb0d0 f   libcmtd:dbgheap.obj
 0002:000341a0       __heap_alloc               100bb1a0 f   libcmtd:dbgheap.obj
 0002:000341c0       __heap_alloc_dbg           100bb1c0 f   libcmtd:dbgheap.obj
 0002:000345a0       _calloc                    100bb5a0 f   libcmtd:dbgheap.obj
 0002:000345d0       __calloc_dbg               100bb5d0 f   libcmtd:dbgheap.obj
 0002:00034650       _realloc                   100bb650 f   libcmtd:dbgheap.obj
 0002:00034680       __realloc_dbg              100bb680 f   libcmtd:dbgheap.obj
 0002:00034d90       __expand                   100bbd90 f   libcmtd:dbgheap.obj
 0002:00034dc0       __expand_dbg               100bbdc0 f   libcmtd:dbgheap.obj
 0002:00034e70       _free                      100bbe70 f   libcmtd:dbgheap.obj
 0002:00034e90       __free_lk                  100bbe90 f   libcmtd:dbgheap.obj
 0002:00034eb0       __free_dbg                 100bbeb0 f   libcmtd:dbgheap.obj
 0002:00034f40       __free_dbg_lk              100bbf40 f   libcmtd:dbgheap.obj
 0002:00035460       __msize                    100bc460 f   libcmtd:dbgheap.obj
 0002:00035480       __msize_dbg                100bc480 f   libcmtd:dbgheap.obj
 0002:00035650       __CrtSetBreakAlloc         100bc650 f   libcmtd:dbgheap.obj
 0002:00035680       __CrtSetDbgBlockType       100bc680 f   libcmtd:dbgheap.obj
 0002:00035790       __CrtSetAllocHook          100bc790 f   libcmtd:dbgheap.obj
 0002:00035820       __CrtCheckMemory           100bc820 f   libcmtd:dbgheap.obj
 0002:00035c60       __CrtSetDbgFlag            100bcc60 f   libcmtd:dbgheap.obj
 0002:00035d30       __CrtDoForAllClientObjects 100bcd30 f   libcmtd:dbgheap.obj
 0002:00035e00       __CrtIsValidPointer        100bce00 f   libcmtd:dbgheap.obj
 0002:00035e60       __CrtIsValidHeapPointer    100bce60 f   libcmtd:dbgheap.obj
 0002:00035f40       __CrtIsMemoryBlock         100bcf40 f   libcmtd:dbgheap.obj
 0002:000360b0       __CrtReportBlockType       100bd0b0 f   libcmtd:dbgheap.obj
 0002:000360f0       __CrtSetDumpClient         100bd0f0 f   libcmtd:dbgheap.obj
 0002:00036120       __CrtMemCheckpoint         100bd120 f   libcmtd:dbgheap.obj
 0002:00036320       __CrtMemDifference         100bd320 f   libcmtd:dbgheap.obj
 0002:00036480       __CrtMemDumpAllObjectsSince 100bd480 f   libcmtd:dbgheap.obj
 0002:00036980       __CrtDumpMemoryLeaks       100bd980 f   libcmtd:dbgheap.obj
 0002:00036a00       __CrtMemDumpStatistics     100bda00 f   libcmtd:dbgheap.obj
 0002:00036ae0       __aligned_malloc           100bdae0 f   libcmtd:dbgheap.obj
 0002:00036b10       __aligned_malloc_dbg       100bdb10 f   libcmtd:dbgheap.obj
 0002:00036b40       __aligned_realloc          100bdb40 f   libcmtd:dbgheap.obj
 0002:00036b70       __aligned_realloc_dbg      100bdb70 f   libcmtd:dbgheap.obj
 0002:00036ba0       __aligned_offset_malloc    100bdba0 f   libcmtd:dbgheap.obj
 0002:00036bd0       __aligned_offset_malloc_dbg 100bdbd0 f   libcmtd:dbgheap.obj
 0002:00036d60       __aligned_offset_realloc   100bdd60 f   libcmtd:dbgheap.obj
 0002:00036d90       __aligned_offset_realloc_dbg 100bdd90 f   libcmtd:dbgheap.obj
 0002:00037080       __aligned_free             100be080 f   libcmtd:dbgheap.obj
 0002:000370a0       __aligned_free_dbg         100be0a0 f   libcmtd:dbgheap.obj
 0002:00037170       __CRT_INIT@12              100be170 f   libcmtd:dllcrt0.obj
 0002:00037450       __DllMainCRTStartup@12     100be450 f   libcmtd:dllcrt0.obj
 0002:00037630       __amsg_exit                100be630 f   libcmtd:dllcrt0.obj
 0002:00037680       @__security_check_cookie@4 100be680 f   libcmtd:secchk.obj
 0002:00037730       ??1type_info@@UAE@XZ       100be730 f   libcmtd:typinfo.obj
 0002:000377e0       ??_Gtype_info@@UAEPAXI@Z   100be7e0 f i libcmtd:typinfo.obj
 0002:000377e0       ??_Etype_info@@UAEPAXI@Z   100be7e0 f i libcmtd:typinfo.obj
 0002:00037820       ??8type_info@@QBEHABV0@@Z  100be820 f   libcmtd:typinfo.obj
 0002:00037860       ??9type_info@@QBEHABV0@@Z  100be860 f   libcmtd:typinfo.obj
 0002:000378a0       ?before@type_info@@QBEHABV1@@Z 100be8a0 f   libcmtd:typinfo.obj
 0002:000378e0       ?raw_name@type_info@@QBEPBDXZ 100be8e0 f   libcmtd:typinfo.obj
 0002:00037900       ??0type_info@@AAE@ABV0@@Z  100be900 f   libcmtd:typinfo.obj
 0002:00037920       ??4type_info@@AAEAAV0@ABV0@@Z 100be920 f   libcmtd:typinfo.obj
 0002:00037940       _memset                    100be940 f   libcmtd:memset.obj
 0002:000379c0       __CxxThrowException@8      100be9c0 f   libcmtd:throw.obj
 0002:00037a20       _sprintf                   100bea20 f   libcmtd:sprintf.obj
 0002:00037b50       __scprintf                 100beb50 f   libcmtd:sprintf.obj
 0002:00037bf0       __purecall                 100bebf0 f   libcmtd:purevirt.obj
 0002:00037c20       __set_purecall_handler     100bec20 f   libcmtd:purevirt.obj
 0002:00037c50       _memcmp                    100bec50 f   libcmtd:memcmp.obj
 0002:00037d40       _abs                       100bed40 f   libcmtd:abs.obj
 0002:00037d70       __abs64                    100bed70 f   libcmtd:abs.obj
 0002:00037dc0       __mbschr                   100bedc0 f   libcmtd:mbschr.obj
 0002:00037ec0       _wcslen                    100beec0 f   libcmtd:wcslen.obj
 0002:00037f00       _swprintf                  100bef00 f   libcmtd:swprintf.obj
 0002:00038080       __scwprintf                100bf080 f   libcmtd:swprintf.obj
 0002:00038120       __beginthreadex            100bf120 f   libcmtd:threadex.obj
 0002:00038380       __endthreadex              100bf380 f   libcmtd:threadex.obj
 0002:000383e0       _sscanf                    100bf3e0 f   libcmtd:sscanf.obj
 0002:000384b0       __snprintf                 100bf4b0 f   libcmtd:snprintf.obj
 0002:000385e0       __strdup                   100bf5e0 f   libcmtd:strdup.obj
 0002:00038640       __cinit                    100bf640 f   libcmtd:crt0dat.obj
 0002:000386c0       _exit                      100bf6c0 f   libcmtd:crt0dat.obj
 0002:000386e0       __exit                     100bf6e0 f   libcmtd:crt0dat.obj
 0002:00038700       __cexit                    100bf700 f   libcmtd:crt0dat.obj
 0002:00038720       __c_exit                   100bf720 f   libcmtd:crt0dat.obj
 0002:000388c0       ___crtExitProcess          100bf8c0 f   libcmtd:crt0dat.obj
 0002:00038920       __lockexit                 100bf920 f   libcmtd:crt0dat.obj
 0002:00038940       __unlockexit               100bf940 f   libcmtd:crt0dat.obj
 0002:000389e0       ??_M@YGXPAXIHP6EX0@Z@Z     100bf9e0 f   libcmtd:ehvecdtr.obj
 0002:00038ab0       ?__ArrayUnwind@@YGXPAXIHP6EX0@Z@Z 100bfab0 f   libcmtd:ehvecdtr.obj
 0002:00038b90       __dosmaperr                100bfb90 f   libcmtd:dosmap.obj
 0002:00038c50       __errno                    100bfc50 f   libcmtd:dosmap.obj
 0002:00038c60       ___doserrno                100bfc60 f   libcmtd:dosmap.obj
 0002:00038c70       __mbsrchr                  100bfc70 f   libcmtd:mbsrchr.obj
 0002:00038d70       __mbsinc                   100bfd70 f   libcmtd:mbsinc.obj
 0002:00038dc0       _labs                      100bfdc0 f   libcmtd:labs.obj
 0002:00038df0       __allshl                   100bfdf0 f   libcmtd:llshl.obj
 0002:00038e20       __allmul                   100bfe20 f   libcmtd:llmul.obj
 0002:00038e70       __aullshr                  100bfe70 f   libcmtd:ullshr.obj
 0002:00038ea0       __alldiv                   100bfea0 f   libcmtd:lldiv.obj
 0002:00038f80       ___updatetmbcinfo          100bff80 f   libcmtd:mbctype.obj
 0002:00039080       __setmbcp                  100c0080 f   libcmtd:mbctype.obj
 0002:00039c10       __getmbcp                  100c0c10 f   libcmtd:mbctype.obj
 0002:00039c30       ___initmbctable            100c0c30 f   libcmtd:mbctype.obj
 0002:00039c60       ??_L@YGXPAXIHP6EX0@Z1@Z    100c0c60 f   libcmtd:ehvecctr.obj
 0002:00039d30       __mbsdec                   100c0d30 f   libcmtd:mbsdec.obj
 0002:00039de0       __mbsspn                   100c0de0 f   libcmtd:mbsspn.obj
 0002:00039e30       ___mbsspn_mt               100c0e30 f   libcmtd:mbsspn.obj
 0002:00039f80       __mbscspn                  100c0f80 f   libcmtd:mbscspn.obj
 0002:00039fd0       ___mbscspn_mt              100c0fd0 f   libcmtd:mbscspn.obj
 0002:0003a120       __vsnprintf                100c1120 f   libcmtd:vsnprint.obj
 0002:0003a220       __gcvt                     100c1220 f   libcmtd:gcvt.obj
 0002:0003a3c0       __mbspbrk                  100c13c0 f   libcmtd:mbspbrk.obj
 0002:0003a410       ___mbspbrk_mt              100c1410 f   libcmtd:mbspbrk.obj
 0002:0003a560       __ctime64                  100c1560 f   libcmtd:ctime64.obj
 0002:0003a5a0       __ismbcspace               100c15a0 f   libcmtd:ismbspc.obj
 0002:0003a6a0       ___InternalCxxFrameHandler 100c16a0 f   libcmtd:frame.obj
 0002:0003ad70       ___FrameUnwindToState      100c1d70 f   libcmtd:frame.obj
 0002:0003b6b0       ___DestructExceptionObject 100c26b0 f   libcmtd:frame.obj
 0002:0003b7c0       ?__uncaught_exception@@YA_NXZ 100c27c0 f   libcmtd:frame.obj
 0002:0003b7e0       ___CxxExceptionFilter      100c27e0 f   libcmtd:frame.obj
 0002:0003ba00       ___CxxRegisterExceptionObject 100c2a00 f   libcmtd:frame.obj
 0002:0003bb60       ___CxxDetectRethrow        100c2b60 f   libcmtd:frame.obj
 0002:0003bbd0       ___CxxUnregisterExceptionObject 100c2bd0 f   libcmtd:frame.obj
 0002:0003bcd0       ___CxxQueryExceptionSize   100c2cd0 f   libcmtd:frame.obj
 0002:0003bce0       ___CxxCallUnwindDtor       100c2ce0 f   libcmtd:frame.obj
 0002:0003bd60       ___CxxCallUnwindVecDtor    100c2d60 f   libcmtd:frame.obj
 0002:0003bdf0       __CallSettingFrame@12      100c2df0 f   libcmtd:lowhelpr.obj
 0002:0003be17       __NLG_Return               100c2e17     libcmtd:lowhelpr.obj
 0002:0003be50       ___crtTlsAlloc@4           100c2e50 f   libcmtd:tidtable.obj
 0002:0003be60       __mtinit                   100c2e60 f   libcmtd:tidtable.obj
 0002:0003c000       __mtterm                   100c3000 f   libcmtd:tidtable.obj
 0002:0003c040       __initptd                  100c3040 f   libcmtd:tidtable.obj
 0002:0003c060       __getptd                   100c3060 f   libcmtd:tidtable.obj
 0002:0003c130       __freefls@4                100c3130 f   libcmtd:tidtable.obj
 0002:0003c440       __freeptd                  100c3440 f   libcmtd:tidtable.obj
 0002:0003c490       ___threadid                100c3490 f   libcmtd:tidtable.obj
 0002:0003c4a0       ___threadhandle            100c34a0 f   libcmtd:tidtable.obj
 0002:0003c4b0       ?terminate@@YAXXZ          100c34b0 f   libcmtd:hooks.obj
 0002:0003c540       ?unexpected@@YAXXZ         100c3540 f   libcmtd:hooks.obj
 0002:0003c570       ?_inconsistency@@YAXXZ     100c3570 f   libcmtd:hooks.obj
 0002:0003c600       ?_RTC_Failure@@YAXPAXH@Z   100c3600 f   libcmtd:error.obj
 0002:0003c8f0       ?_RTC_MemFailure@@YAXPAXHPBX@Z 100c38f0 f   libcmtd:error.obj
 0002:0003cbd0       ?_RTC_StackFailure@@YAXPAXPBD@Z 100c3bd0 f   libcmtd:error.obj
 0002:0003ccc0       __RTC_UninitUse            100c3cc0 f   libcmtd:error.obj
 0002:0003cef0       __RTC_NumErrors            100c3ef0 f   libcmtd:userapi.obj
 0002:0003cf00       __RTC_GetErrDesc           100c3f00 f   libcmtd:userapi.obj
 0002:0003cf30       __RTC_SetErrorType         100c3f30 f   libcmtd:userapi.obj
 0002:0003cf60       __RTC_SetErrorFunc         100c3f60 f   libcmtd:userapi.obj
 0002:0003cf80       ?_RTC_GetErrorFunc@@YAP6AHHPBDH00ZZPBX@Z 100c3f80 f   libcmtd:userapi.obj
 0002:0003cf90       __chkesp                   100c3f90 f   libcmtd:chkesp.obj
 0002:0003cfe0       __CRT_RTC_INIT             100c3fe0 f   libcmtd:chkesp.obj
 0002:0003cff0       __mtinitlocks              100c3ff0 f   libcmtd:mlock.obj
 0002:0003d0a0       __mtdeletelocks            100c40a0 f   libcmtd:mlock.obj
 0002:0003d190       __mtinitlocknum            100c4190 f   libcmtd:mlock.obj
 0002:0003d300       __lock                     100c4300 f   libcmtd:mlock.obj
 0002:0003d350       __unlock                   100c4350 f   libcmtd:mlock.obj
 0002:0003d370       __lockerr_exit             100c4370 f   libcmtd:mlock.obj
 0002:0003d3a0       __itoa                     100c43a0 f   libcmtd:xtoa.obj
 0002:0003d500       __ltoa                     100c4500 f   libcmtd:xtoa.obj
 0002:0003d550       __ultoa                    100c4550 f   libcmtd:xtoa.obj
 0002:0003d580       __i64toa                   100c4580 f   libcmtd:xtoa.obj
 0002:0003d710       __ui64toa                  100c4710 f   libcmtd:xtoa.obj
 0002:0003d740       _strcpy                    100c4740 f   libcmtd:strcat.obj
 0002:0003d750       _strcat                    100c4750 f   libcmtd:strcat.obj
 0002:0003d880       _signal                    100c4880 f   libcmtd:winsig.obj
 0002:0003dc80       _raise                     100c4c80 f   libcmtd:winsig.obj
 0002:0003dfe0       ___fpecode                 100c4fe0 f   libcmtd:winsig.obj
 0002:0003dff0       ___pxcptinfoptrs           100c4ff0 f   libcmtd:winsig.obj
 0002:0003e000       ___crtMessageBoxA          100c5000 f   libcmtd:crtmbox.obj
 0002:0003e1d0       _strncpy                   100c51d0 f   libcmtd:strncpy.obj
 0002:0003e340       _strcmp                    100c5340 f   libcmtd:strcmp.obj
 0002:0003e3f0       __setdefaultprecision      100c53f0 f   libcmtd:fp8.obj
 0002:0003e410       __ms_p5_test_fdiv          100c5410 f   libcmtd:testfdiv.obj
 0002:0003e480       __ms_p5_mp_test_fdiv       100c5480 f   libcmtd:testfdiv.obj
 0002:0003e4e0       __forcdecpt                100c54e0 f   libcmtd:cvt.obj
 0002:0003e580       __cropzeros                100c5580 f   libcmtd:cvt.obj
 0002:0003e690       __positive                 100c5690 f   libcmtd:cvt.obj
 0002:0003e6d0       __fassign                  100c56d0 f   libcmtd:cvt.obj
 0002:0003e730       __cftoe                    100c5730 f   libcmtd:cvt.obj
 0002:0003e9b0       __cftof                    100c59b0 f   libcmtd:cvt.obj
 0002:0003ebe0       __cftog                    100c5be0 f   libcmtd:cvt.obj
 0002:0003ed20       __cfltcvt                  100c5d20 f   libcmtd:cvt.obj
 0002:0003ede0       __flsbuf                   100c5de0 f   libcmtd:_flsbuf.obj
 0002:0003f0d0       __output                   100c60d0 f   libcmtd:output.obj
 0002:00040440       __chvalidator              100c7440 f   libcmtd:isctype.obj
 0002:00040490       __chvalidator_mt           100c7490 f   libcmtd:isctype.obj
 0002:000404e0       __isctype                  100c74e0 f   libcmtd:isctype.obj
 0002:00040530       ___isctype_mt              100c7530 f   libcmtd:isctype.obj
 0002:00040620       ____setlc_active_func      100c7620 f   libcmtd:setlocal.obj
 0002:00040630       ____unguarded_readlc_active_add_func 100c7630 f   libcmtd:setlocal.obj
 0002:00040640       ___freetlocinfo            100c7640 f   libcmtd:setlocal.obj
 0002:00040820       ___updatetlocinfo          100c7820 f   libcmtd:setlocal.obj
 0002:00040af0       _setlocale                 100c7af0 f   libcmtd:setlocal.obj
 0002:00041860       __expandlocale             100c8860 f   libcmtd:setlocal.obj
 0002:00041ab0       ___init_dummy              100c8ab0 f   libcmtd:setlocal.obj
 0002:00041ac0       __strcats                  100c8ac0 f   libcmtd:setlocal.obj
 0002:00041b30       ___lc_strtolc              100c8b30 f   libcmtd:setlocal.obj
 0002:00041d00       ___lc_lctostr              100c8d00 f   libcmtd:setlocal.obj
 0002:00041d80       __fltin2                   100c8d80 f   libcmtd:cfin.obj
 0002:00041e90       _isalpha                   100c8e90 f   libcmtd:_ctype.obj
 0002:00041f10       _isupper                   100c8f10 f   libcmtd:_ctype.obj
 0002:00041f90       _islower                   100c8f90 f   libcmtd:_ctype.obj
 0002:00042010       _isdigit                   100c9010 f   libcmtd:_ctype.obj
 0002:00042090       _isxdigit                  100c9090 f   libcmtd:_ctype.obj
 0002:00042110       _isspace                   100c9110 f   libcmtd:_ctype.obj
 0002:00042190       _ispunct                   100c9190 f   libcmtd:_ctype.obj
 0002:00042210       _isalnum                   100c9210 f   libcmtd:_ctype.obj
 0002:00042290       _isprint                   100c9290 f   libcmtd:_ctype.obj
 0002:00042310       _isgraph                   100c9310 f   libcmtd:_ctype.obj
 0002:00042390       _iscntrl                   100c9390 f   libcmtd:_ctype.obj
 0002:00042410       ___isascii                 100c9410 f   libcmtd:_ctype.obj
 0002:00042430       ___toascii                 100c9430 f   libcmtd:_ctype.obj
 0002:00042440       ___iscsymf                 100c9440 f   libcmtd:_ctype.obj
 0002:00042480       ___iscsym                  100c9480 f   libcmtd:_ctype.obj
 0002:000424c0       ___iob_func                100c94c0 f   libcmtd:_file.obj
 0002:000424d0       ___initstdio               100c94d0 f   libcmtd:_file.obj
 0002:00042650       ___endstdio                100c9650 f   libcmtd:_file.obj
 0002:00042670       __lock_file                100c9670 f   libcmtd:_file.obj
 0002:000426c0       __lock_file2               100c96c0 f   libcmtd:_file.obj
 0002:00042700       __unlock_file              100c9700 f   libcmtd:_file.obj
 0002:00042750       __unlock_file2             100c9750 f   libcmtd:_file.obj
 0002:00042790       __close                    100c9790 f   libcmtd:close.obj
 0002:000428c0       __close_lk                 100c98c0 f   libcmtd:close.obj
 0002:000429a0       __freebuf                  100c99a0 f   libcmtd:_freebuf.obj
 0002:00042a50       _fflush                    100c9a50 f   libcmtd:fflush.obj
 0002:00042b00       __fflush_lk                100c9b00 f   libcmtd:fflush.obj
 0002:00042b50       __flush                    100c9b50 f   libcmtd:fflush.obj
 0002:00042c30       __flushall                 100c9c30 f   libcmtd:fflush.obj
 0002:00042e50       __stbuf                    100c9e50 f   libcmtd:_sftbuf.obj
 0002:00042ff0       __ftbuf                    100c9ff0 f   libcmtd:_sftbuf.obj
 0002:000430a0       __openfile                 100ca0a0 f   libcmtd:_open.obj
 0002:00043510       __getstream                100ca510 f   libcmtd:stream.obj
 0002:000437c0       __ValidateEH3RN            100ca7c0 f   libcmtd:eh3valid.obj
 0002:00043cb0       ?_set_new_handler@@YAP6AHI@ZP6AHI@Z@Z 100cacb0 f   libcmtd:handler.obj
 0002:00043cf0       ?_query_new_handler@@YAP6AHI@ZXZ 100cacf0 f   libcmtd:handler.obj
 0002:00043d00       __callnewh                 100cad00 f   libcmtd:handler.obj
 0002:00043d40       __malloc_base              100cad40 f   libcmtd:malloc.obj
 0002:00043d70       __nh_malloc_base           100cad70 f   libcmtd:malloc.obj
 0002:00043de0       __heap_alloc_base          100cade0 f   libcmtd:malloc.obj
 0002:00043ee0       __CrtDefaultAllocHook      100caee0 f   libcmtd:dbghook.obj
 0002:00043ef0       __expand_base              100caef0 f   libcmtd:expand.obj
 0002:00044060       __realloc_base             100cb060 f   libcmtd:realloc.obj
 0002:000443c0       __free_base                100cb3c0 f   libcmtd:free.obj
 0002:000444c0       __heapchk                  100cb4c0 f   libcmtd:heapchk.obj
 0002:000445b0       __heapset                  100cb5b0 f   libcmtd:heapchk.obj
 0002:000445c0       ___heap_select             100cb5c0 f   libcmtd:heapinit.obj
 0002:00044600       __heap_init                100cb600 f   libcmtd:heapinit.obj
 0002:00044690       __heap_term                100cb690 f   libcmtd:heapinit.obj
 0002:00044770       __get_heap_handle          100cb770 f   libcmtd:heapinit.obj
 0002:00044780       __get_sbh_threshold        100cb780 f   libcmtd:sbheap.obj
 0002:000447a0       __set_sbh_threshold        100cb7a0 f   libcmtd:sbheap.obj
 0002:00044830       ___sbh_heap_init           100cb830 f   libcmtd:sbheap.obj
 0002:000448b0       ___sbh_find_block          100cb8b0 f   libcmtd:sbheap.obj
 0002:00044920       ___sbh_verify_block        100cb920 f   libcmtd:sbheap.obj
 0002:00044990       ___sbh_free_block          100cb990 f   libcmtd:sbheap.obj
 0002:000450c0       ___sbh_alloc_block         100cc0c0 f   libcmtd:sbheap.obj
 0002:00045720       ___sbh_alloc_new_region    100cc720 f   libcmtd:sbheap.obj
 0002:00045870       ___sbh_alloc_new_group     100cc870 f   libcmtd:sbheap.obj
 0002:00045ae0       ___sbh_resize_block        100ccae0 f   libcmtd:sbheap.obj
 0002:00046220       ___sbh_heapmin             100cd220 f   libcmtd:sbheap.obj
 0002:000463a0       ___sbh_heap_check          100cd3a0 f   libcmtd:sbheap.obj
 0002:00046a00       __ioinit                   100cda00 f   libcmtd:ioinit.obj
 0002:00046e70       __ioterm                   100cde70 f   libcmtd:ioinit.obj
 0002:00046f40       __setenvp                  100cdf40 f   libcmtd:stdenvp.obj
 0002:00047120       __setargv                  100ce120 f   libcmtd:stdargv.obj
 0002:00047680       ___crtGetEnvironmentStringsA 100ce680 f   libcmtd:a_env.obj
 0002:00047920       __RTC_Initialize           100ce920 f   libcmtd:initsect.obj
 0002:000479c0       __RTC_Terminate            100ce9c0 f   libcmtd:initsect.obj
 0002:00047a60       ___CppXcptFilter           100cea60 f   libcmtd:winxfltr.obj
 0002:00047a90       __XcptFilter               100cea90 f   libcmtd:winxfltr.obj
 0002:00047d30       __FF_MSGBANNER             100ced30 f   libcmtd:crt0msg.obj
 0002:00047d90       __NMSG_WRITE               100ced90 f   libcmtd:crt0msg.obj
 0002:00048030       __GET_RTERRMSG             100cf030 f   libcmtd:crt0msg.obj
 0002:000480a0       ___security_init_cookie    100cf0a0 f   libcmtd:seccinit.obj
 0002:00048160       ___security_error_handler  100cf160 f   libcmtd:secfail.obj
 0002:00048410       __set_security_error_handler 100cf410 f   libcmtd:secfail.obj
 0002:00048440       ___buffer_overrun          100cf440 f   libcmtd:secfail.obj
 0002:00048460       ___set_buffer_overrun_handler 100cf460 f   libcmtd:secfail.obj
 0002:00048480       ?__CxxUnhandledExceptionFilter@@YGJPAU_EXCEPTION_POINTERS@@@Z 100cf480 f   libcmtd:unhandld.obj
 0002:00048510       ?__CxxSetUnhandledExceptionFilter@@YAHXZ 100cf510 f   libcmtd:unhandld.obj
 0002:00048530       ?__CxxRestoreUnhandledExceptionFilter@@YAXXZ 100cf530 f   libcmtd:unhandld.obj
 0002:00048560       _strchr                    100cf560 f   libcmtd:strchr.obj
 0002:00048566       ___from_strstr_to_strchr   100cf566     libcmtd:strchr.obj
 0002:00048660       __woutput                  100cf660 f   libcmtd:woutput.obj
 0002:000498f0       __input                    100d08f0 f   libcmtd:input.obj
 0002:0004b280       _strrchr                   100d2280 f   libcmtd:strrchr.obj
 0002:0004b2c0       ___crtLCMapStringA         100d22c0 f   libcmtd:a_map.obj
 0002:0004b9e0       ___crtGetStringTypeA       100d29e0 f   libcmtd:a_str.obj
 0002:0004bd20       _strspn                    100d2d20 f   libcmtd:strspn.obj
 0002:0004bd80       _strcspn                   100d2d80 f   libcmtd:strcspn.obj
 0002:0004bde0       __fltout2                  100d2de0 f   libcmtd:cfout.obj
 0002:0004be90       ___dtold                   100d2e90 f   libcmtd:cfout.obj
 0002:0004c030       _strpbrk                   100d3030 f   libcmtd:strpbrk.obj
 0002:0004c080       _asctime                   100d3080 f   libcmtd:asctime.obj
 0002:0004c300       __localtime64              100d3300 f   libcmtd:loctim64.obj
 0002:0004c6c0       ?_ValidateRead@@YAHPBXI@Z  100d36c0 f   libcmtd:validate.obj
 0002:0004c700       ?_ValidateWrite@@YAHPAXI@Z 100d3700 f   libcmtd:validate.obj
 0002:0004c740       ?_ValidateExecute@@YAHP6GHXZ@Z 100d3740 f   libcmtd:validate.obj
 0002:0004c770       _abort                     100d3770 f   libcmtd:abort.obj
 0002:0004c7a0       ?_RTC_GetSrcLine@@YAHKPADHPAHPAPAD@Z 100d37a0 f   libcmtd:pdblkup.obj
 0002:0004d260       ___crtInitCritSecAndSpinCount 100d4260 f   libcmtd:initcrit.obj
 0002:0004d3b0       __aulldiv                  100d43b0 f   libcmtd:ulldiv.obj
 0002:0004d440       __aullrem                  100d4440 f   libcmtd:ullrem.obj
 0002:0004d4e0       __statusfp                 100d44e0 f   libcmtd:ieee87.obj
 0002:0004d500       __clearfp                  100d4500 f   libcmtd:ieee87.obj
 0002:0004d520       __control87                100d4520 f   libcmtd:ieee87.obj
 0002:0004d580       __controlfp                100d4580 f   libcmtd:ieee87.obj
 0002:0004d5a0       __fpreset                  100d45a0 f   libcmtd:ieee87.obj
 0002:0004da10       __tolower                  100d4a10 f   libcmtd:tolower.obj
 0002:0004da20       _tolower                   100d4a20 f   libcmtd:tolower.obj
 0002:0004da70       ___tolower_mt              100d4a70 f   libcmtd:tolower.obj
 0002:0004dc00       __ZeroTail                 100d4c00 f   libcmtd:intrncvt.obj
 0002:0004dcb0       __IncMan                   100d4cb0 f   libcmtd:intrncvt.obj
 0002:0004dd90       __RoundMan                 100d4d90 f   libcmtd:intrncvt.obj
 0002:0004dea0       __CopyMan                  100d4ea0 f   libcmtd:intrncvt.obj
 0002:0004df00       __FillZeroMan              100d4f00 f   libcmtd:intrncvt.obj
 0002:0004df40       __IsZeroMan                100d4f40 f   libcmtd:intrncvt.obj
 0002:0004df90       __ShrMan                   100d4f90 f   libcmtd:intrncvt.obj
 0002:0004e0c0       __ld12cvt                  100d50c0 f   libcmtd:intrncvt.obj
 0002:0004e390       __ld12tod                  100d5390 f   libcmtd:intrncvt.obj
 0002:0004e3b0       __ld12tof                  100d53b0 f   libcmtd:intrncvt.obj
 0002:0004e3d0       __ld12told                 100d53d0 f   libcmtd:intrncvt.obj
 0002:0004e4b0       __atodbl                   100d54b0 f   libcmtd:intrncvt.obj
 0002:0004e510       __atoldbl                  100d5510 f   libcmtd:intrncvt.obj
 0002:0004e570       __atoflt                   100d5570 f   libcmtd:intrncvt.obj
 0002:0004e5d0       __fptostr                  100d55d0 f   libcmtd:_fptostr.obj
 0002:0004e710       __fptrap                   100d5710 f   libcmtd:crt0fp.obj
 0002:0004e730       __lseek                    100d5730 f   libcmtd:lseek.obj
 0002:0004e880       __lseek_lk                 100d5880 f   libcmtd:lseek.obj
 0002:0004e960       __write                    100d5960 f   libcmtd:write.obj
 0002:0004eab0       __write_lk                 100d5ab0 f   libcmtd:write.obj
 0002:0004ee50       __getbuf                   100d5e50 f   libcmtd:_getbuf.obj
 0002:0004ef40       __isatty                   100d5f40 f   libcmtd:isatty.obj
 0002:0004ef80       _wctomb                    100d5f80 f   libcmtd:wctomb.obj
 0002:0004efd0       ___wctomb_mt               100d5fd0 f   libcmtd:wctomb.obj
 0002:0004f090       ___pwctype_func            100d6090 f   libcmtd:ctype.obj
 0002:0004f0a0       ___pctype_func             100d60a0 f   libcmtd:ctype.obj
 0002:0004f0b0       __Getdays                  100d60b0 f   libcmtd:strftime.obj
 0002:0004f220       __Getmonths                100d6220 f   libcmtd:strftime.obj
 0002:0004f3a0       __Gettnames                100d63a0 f   libcmtd:strftime.obj
 0002:0004f820       _strftime                  100d6820 f   libcmtd:strftime.obj
 0002:0004f850       __Strftime                 100d6850 f   libcmtd:strftime.obj
 0002:0004f8b0       __Strftime_mt              100d68b0 f   libcmtd:strftime.obj
 0002:00050f60       _localeconv                100d7f60 f   libcmtd:lconv.obj
 0002:00050f70       ___init_time               100d7f70 f   libcmtd:inittime.obj
 0002:000516f0       ___free_lc_time            100d86f0 f   libcmtd:inittime.obj
 0002:00051ac0       ___init_numeric            100d8ac0 f   libcmtd:initnum.obj
 0002:00051ed0       ___free_lconv_num          100d8ed0 f   libcmtd:initnum.obj
 0002:00051fa0       ___init_monetary           100d8fa0 f   libcmtd:initmon.obj
 0002:000524a0       ___free_lconv_mon          100d94a0 f   libcmtd:initmon.obj
 0002:00052660       ___init_ctype              100d9660 f   libcmtd:initctyp.obj
 0002:000529d0       ____mb_cur_max_func        100d99d0 f   libcmtd:initctyp.obj
 0002:000529e0       ____lc_codepage_func       100d99e0 f   libcmtd:initctyp.obj
 0002:00052a20       ____lc_collate_cp_func     100d9a20 f   libcmtd:initctyp.obj
 0002:00052a60       ____lc_handle_func         100d9a60 f   libcmtd:initctyp.obj
 0002:00052aa0       ___init_collate            100d9aa0 f   libcmtd:initcoll.obj
 0002:00052ab0       _strncmp                   100d9ab0 f   libcmtd:strncmp.obj
 0002:00052b00       ___get_qualified_locale    100d9b00 f   libcmtd:getqloc.obj
 0002:00053c80       ___strgtold12              100dac80 f   libcmtd:strgtold.obj
 0002:00054900       ___STRINGTOLD              100db900 f   libcmtd:strgtold.obj
 0002:00054980       __fcloseall                100db980 f   libcmtd:closeall.obj
 0002:00054ae0       __alloc_osfhnd             100dbae0 f   libcmtd:osfinfo.obj
 0002:00054e00       __set_osfhnd               100dbe00 f   libcmtd:osfinfo.obj
 0002:00054ef0       __free_osfhnd              100dbef0 f   libcmtd:osfinfo.obj
 0002:00055000       __get_osfhandle            100dc000 f   libcmtd:osfinfo.obj
 0002:00055080       __open_osfhandle           100dc080 f   libcmtd:osfinfo.obj
 0002:00055220       __lock_fhandle             100dc220 f   libcmtd:osfinfo.obj
 0002:00055350       __unlock_fhandle           100dc350 f   libcmtd:osfinfo.obj
 0002:00055380       __commit                   100dc380 f   libcmtd:commit.obj
 0002:000554e0       __open                     100dc4e0 f   libcmtd:open.obj
 0002:000555b0       __sopen                    100dc5b0 f   libcmtd:open.obj
 0002:00055cc0       _mbtowc                    100dccc0 f   libcmtd:mbtowc.obj
 0002:00055d10       ___mbtowc_mt               100dcd10 f   libcmtd:mbtowc.obj
 0002:00055ec0       _fputwc                    100dcec0 f   libcmtd:fputwc.obj
 0002:00055f90       __putwc_lk                 100dcf90 f   libcmtd:fputwc.obj
 0002:00056180       _putwc                     100dd180 f   libcmtd:fputwc.obj
 0002:000561a0       __filbuf                   100dd1a0 f   libcmtd:_filbuf.obj
 0002:000563f0       _ungetc                    100dd3f0 f   libcmtd:ungetc.obj
 0002:000564c0       __ungetc_lk                100dd4c0 f   libcmtd:ungetc.obj
 0002:00056640       ___ansicp                  100dd640 f   libcmtd:convrtcp.obj
 0002:000566b0       ___convertcp               100dd6b0 f   libcmtd:convrtcp.obj
 0002:00056a00       _$I10_OUTPUT               100dda00 f   libcmtd:x10fout.obj
 0002:00057010       ___tzset                   100de010 f   libcmtd:tzset.obj
 0002:000570c0       __tzset                    100de0c0 f   libcmtd:tzset.obj
 0002:00057660       __isindst                  100de660 f   libcmtd:tzset.obj
 0002:00057db0       __gmtime64                 100dedb0 f   libcmtd:gmtime64.obj
 0002:000581b0       __allrem                   100df1b0 f   libcmtd:llrem.obj
 0002:00058290       ___addl                    100df290 f   libcmtd:mantold.obj
 0002:000582e0       ___add_12                  100df2e0 f   libcmtd:mantold.obj
 0002:000583c0       ___shl_12                  100df3c0 f   libcmtd:mantold.obj
 0002:00058440       ___shr_12                  100df440 f   libcmtd:mantold.obj
 0002:000584c0       ___mtold12                 100df4c0 f   libcmtd:mantold.obj
 0002:00058660       __lseeki64                 100df660 f   libcmtd:lseeki64.obj
 0002:000587c0       __lseeki64_lk              100df7c0 f   libcmtd:lseeki64.obj
 0002:000588c0       ___ascii_stricmp           100df8c0 f   libcmtd:_stricmp.obj
 0002:00058930       ___getlocaleinfo           100df930 f   libcmtd:inithelp.obj
 0002:00058c20       __stricmp                  100dfc20 f   libcmtd:stricmp.obj
 0002:00058cf0       __strnicmp                 100dfcf0 f   libcmtd:strnicmp.obj
 0002:00058de0       ___ld12mul                 100dfde0 f   libcmtd:tenpow.obj
 0002:000592d0       ___multtenpow12            100e02d0 f   libcmtd:tenpow.obj
 0002:000593e0       __chsize                   100e03e0 f   libcmtd:chsize.obj
 0002:00059500       __chsize_lk                100e0500 f   libcmtd:chsize.obj
 0002:00059760       __read                     100e0760 f   libcmtd:read.obj
 0002:000598b0       __read_lk                  100e08b0 f   libcmtd:read.obj
 0002:00059e00       __flswbuf                  100e0e00 f   libcmtd:_flswbuf.obj
 0002:0005a110       _getenv                    100e1110 f   libcmtd:getenv.obj
 0002:0005a1a0       __getenv_lk                100e11a0 f   libcmtd:getenv.obj
 0002:0005a2a0       ___crtGetLocaleInfoW       100e12a0 f   libcmtd:w_loc.obj
 0002:0005a500       ___crtGetLocaleInfoA       100e1500 f   libcmtd:a_loc.obj
 0002:0005a770       ___ascii_strnicmp          100e1770 f   libcmtd:_strnicm.obj
 0002:0005a7f0       __setmode                  100e17f0 f   libcmtd:setmode.obj
 0002:0005a910       __setmode_lk               100e1910 f   libcmtd:setmode.obj
 0002:0005aa20       __mbsnbicoll               100e1a20 f   libcmtd:mbsnbico.obj
 0002:0005aab0       ___wtomb_environ           100e1ab0 f   libcmtd:wtombenv.obj
 0002:0005abd0       ___crtCompareStringA       100e1bd0 f   libcmtd:a_cmp.obj
 0002:0005b300       ___crtsetenv               100e2300 f   libcmtd:setenv.obj
 0002:0005b92a       _GetPrivateProfileStringA@24 100e292a f   kernel32:KERNEL32.dll
 0002:0005b930       _WritePrivateProfileStringA@16 100e2930 f   kernel32:KERNEL32.dll
 0002:0005b936       _GetPrivateProfileSectionNamesA@12 100e2936 f   kernel32:KERNEL32.dll
 0002:0005b93c       _GetPrivateProfileSectionA@16 100e293c f   kernel32:KERNEL32.dll
 0002:0005b942       _GetVersionExA@4           100e2942 f   kernel32:KERNEL32.dll
 0002:0005b948       _InterlockedExchange@8     100e2948 f   kernel32:KERNEL32.dll
 0002:0005b94e       _GetACP@0                  100e294e f   kernel32:KERNEL32.dll
 0002:0005b954       _GetLocaleInfoA@16         100e2954 f   kernel32:KERNEL32.dll
 0002:0005b95a       _GetThreadLocale@0         100e295a f   kernel32:KERNEL32.dll
 0002:0005b960       _IsBadStringPtrA@8         100e2960 f   kernel32:KERNEL32.dll
 0002:0005b966       _FindResourceA@12          100e2966 f   kernel32:KERNEL32.dll
 0002:0005b96c       _SizeofResource@8          100e296c f   kernel32:KERNEL32.dll
 0002:0005b972       _LockResource@4            100e2972 f   kernel32:KERNEL32.dll
 0002:0005b978       _LoadResource@8            100e2978 f   kernel32:KERNEL32.dll
 0002:0005b97e       _WideCharToMultiByte@32    100e297e f   kernel32:KERNEL32.dll
 0002:0005b984       _Sleep@4                   100e2984 f   kernel32:KERNEL32.dll
 0002:0005b98a       _GetProcAddress@8          100e298a f   kernel32:KERNEL32.dll
 0002:0005b990       _LoadLibraryA@4            100e2990 f   kernel32:KERNEL32.dll
 0002:0005b996       _GetLocalTime@4            100e2996 f   kernel32:KERNEL32.dll
 0002:0005b99c       _GetEnvironmentVariableW@12 100e299c f   kernel32:KERNEL32.dll
 0002:0005b9a2       _GetVersion@0              100e29a2 f   kernel32:KERNEL32.dll
 0002:0005b9a8       _MultiByteToWideChar@24    100e29a8 f   kernel32:KERNEL32.dll
 0002:0005b9ae       _GetEnvironmentVariableA@12 100e29ae f   kernel32:KERNEL32.dll
 0002:0005b9b4       _CompareStringW@24         100e29b4 f   kernel32:KERNEL32.dll
 0002:0005b9ba       _CompareStringA@24         100e29ba f   kernel32:KERNEL32.dll
 0002:0005b9c0       _lstrlenW@4                100e29c0 f   kernel32:KERNEL32.dll
 0002:0005b9c6       _GetStringTypeExW@20       100e29c6 f   kernel32:KERNEL32.dll
 0002:0005b9cc       _GetStringTypeExA@20       100e29cc f   kernel32:KERNEL32.dll
 0002:0005b9d2       _lstrcmpiW@8               100e29d2 f   kernel32:KERNEL32.dll
 0002:0005b9d8       _lstrcmpiA@8               100e29d8 f   kernel32:KERNEL32.dll
 0002:0005b9de       _lstrlenA@4                100e29de f   kernel32:KERNEL32.dll
 0002:0005b9e4       _GetLastError@0            100e29e4 f   kernel32:KERNEL32.dll
 0002:0005b9ea       _GetModuleHandleA@4        100e29ea f   kernel32:KERNEL32.dll
 0002:0005b9f0       _lstrcpynA@12              100e29f0 f   kernel32:KERNEL32.dll
 0002:0005b9f6       _lstrcmpW@8                100e29f6 f   kernel32:KERNEL32.dll
 0002:0005b9fc       _GlobalDeleteAtom@4        100e29fc f   kernel32:KERNEL32.dll
 0002:0005ba02       _GlobalFindAtomA@4         100e2a02 f   kernel32:KERNEL32.dll
 0002:0005ba08       _GlobalAddAtomA@4          100e2a08 f   kernel32:KERNEL32.dll
 0002:0005ba0e       _GlobalGetAtomNameA@12     100e2a0e f   kernel32:KERNEL32.dll
 0002:0005ba14       _GetCurrentThreadId@0      100e2a14 f   kernel32:KERNEL32.dll
 0002:0005ba1a       _lstrcatA@8                100e2a1a f   kernel32:KERNEL32.dll
 0002:0005ba20       _FreeLibrary@4             100e2a20 f   kernel32:KERNEL32.dll
 0002:0005ba26       _FreeResource@4            100e2a26 f   kernel32:KERNEL32.dll
 0002:0005ba2c       _SetThreadPriority@8       100e2a2c f   kernel32:KERNEL32.dll
 0002:0005ba32       _GetThreadPriority@4       100e2a32 f   kernel32:KERNEL32.dll
 0002:0005ba38       _ResumeThread@4            100e2a38 f   kernel32:KERNEL32.dll
 0002:0005ba3e       _SuspendThread@4           100e2a3e f   kernel32:KERNEL32.dll
 0002:0005ba44       _SetLastError@4            100e2a44 f   kernel32:KERNEL32.dll
 0002:0005ba4a       _MulDiv@12                 100e2a4a f   kernel32:KERNEL32.dll
 0002:0005ba50       _GlobalUnlock@4            100e2a50 f   kernel32:KERNEL32.dll
 0002:0005ba56       _GlobalLock@4              100e2a56 f   kernel32:KERNEL32.dll
 0002:0005ba5c       _LocalFree@4               100e2a5c f   kernel32:KERNEL32.dll
 0002:0005ba62       _FormatMessageA@28         100e2a62 f   kernel32:KERNEL32.dll
 0002:0005ba68       _GlobalAlloc@8             100e2a68 f   kernel32:KERNEL32.dll
 0002:0005ba6e       _GlobalSize@4              100e2a6e f   kernel32:KERNEL32.dll
 0002:0005ba74       _CopyFileA@12              100e2a74 f   kernel32:KERNEL32.dll
 0002:0005ba7a       _GlobalFree@4              100e2a7a f   kernel32:KERNEL32.dll
 0002:0005ba80       _CloseHandle@4             100e2a80 f   kernel32:KERNEL32.dll
 0002:0005ba86       _WaitForSingleObject@8     100e2a86 f   kernel32:KERNEL32.dll
 0002:0005ba8c       _SetEvent@4                100e2a8c f   kernel32:KERNEL32.dll
 0002:0005ba92       _CreateEventA@16           100e2a92 f   kernel32:KERNEL32.dll
 0002:0005ba98       _GetModuleFileNameA@12     100e2a98 f   kernel32:KERNEL32.dll
 0002:0005ba9e       _EnumResourceLanguagesA@20 100e2a9e f   kernel32:KERNEL32.dll
 0002:0005baa4       _ConvertDefaultLocale@4    100e2aa4 f   kernel32:KERNEL32.dll
 0002:0005baaa       _lstrcpyA@8                100e2aaa f   kernel32:KERNEL32.dll
 0002:0005bab0       _GetCurrentThread@0        100e2ab0 f   kernel32:KERNEL32.dll
 0002:0005bab6       _lstrcmpA@8                100e2ab6 f   kernel32:KERNEL32.dll
 0002:0005babc       _LocalAlloc@8              100e2abc f   kernel32:KERNEL32.dll
 0002:0005bac2       _InitializeCriticalSection@4 100e2ac2 f   kernel32:KERNEL32.dll
 0002:0005bac8       _TlsAlloc@0                100e2ac8 f   kernel32:KERNEL32.dll
 0002:0005bace       _DeleteCriticalSection@4   100e2ace f   kernel32:KERNEL32.dll
 0002:0005bad4       _GlobalHandle@4            100e2ad4 f   kernel32:KERNEL32.dll
 0002:0005bada       _TlsFree@4                 100e2ada f   kernel32:KERNEL32.dll
 0002:0005bae0       _LeaveCriticalSection@4    100e2ae0 f   kernel32:KERNEL32.dll
 0002:0005bae6       _GlobalReAlloc@12          100e2ae6 f   kernel32:KERNEL32.dll
 0002:0005baec       _EnterCriticalSection@4    100e2aec f   kernel32:KERNEL32.dll
 0002:0005baf2       _TlsSetValue@8             100e2af2 f   kernel32:KERNEL32.dll
 0002:0005baf8       _LocalReAlloc@12           100e2af8 f   kernel32:KERNEL32.dll
 0002:0005bafe       _TlsGetValue@4             100e2afe f   kernel32:KERNEL32.dll
 0002:0005bb04       _SetErrorMode@4            100e2b04 f   kernel32:KERNEL32.dll
 0002:0005bb0a       _InterlockedDecrement@4    100e2b0a f   kernel32:KERNEL32.dll
 0002:0005bb10       _RaiseException@16         100e2b10 f   kernel32:KERNEL32.dll
 0002:0005bb16       _GlobalFlags@4             100e2b16 f   kernel32:KERNEL32.dll
 0002:0005bb1c       _GetCPInfo@8               100e2b1c f   kernel32:KERNEL32.dll
 0002:0005bb22       _GetOEMCP@0                100e2b22 f   kernel32:KERNEL32.dll
 0002:0005bb28       _InterlockedIncrement@4    100e2b28 f   kernel32:KERNEL32.dll
 0002:0005bb2e       _IsBadWritePtr@8           100e2b2e f   kernel32:KERNEL32.dll
 0002:0005bb34       _IsBadReadPtr@8            100e2b34 f   kernel32:KERNEL32.dll
 0002:0005bb3a       _VirtualProtect@16         100e2b3a f   kernel32:KERNEL32.dll
 0002:0005bb40       _GetProfileIntA@12         100e2b40 f   kernel32:KERNEL32.dll
 0002:0005bb46       _FileTimeToSystemTime@8    100e2b46 f   kernel32:KERNEL32.dll
 0002:0005bb4c       _SystemTimeToFileTime@8    100e2b4c f   kernel32:KERNEL32.dll
 0002:0005bb52       _GetPrivateProfileIntA@16  100e2b52 f   kernel32:KERNEL32.dll
 0002:0005bb58       _GetCurrentDirectoryA@8    100e2b58 f   kernel32:KERNEL32.dll
 0002:0005bb5e       _DuplicateHandle@28        100e2b5e f   kernel32:KERNEL32.dll
 0002:0005bb64       _GetCurrentProcess@0       100e2b64 f   kernel32:KERNEL32.dll
 0002:0005bb6a       _CreateFileA@28            100e2b6a f   kernel32:KERNEL32.dll
 0002:0005bb70       _ReadFile@20               100e2b70 f   kernel32:KERNEL32.dll
 0002:0005bb76       _WriteFile@20              100e2b76 f   kernel32:KERNEL32.dll
 0002:0005bb7c       _SetFilePointer@16         100e2b7c f   kernel32:KERNEL32.dll
 0002:0005bb82       _FlushFileBuffers@4        100e2b82 f   kernel32:KERNEL32.dll
 0002:0005bb88       _LockFile@20               100e2b88 f   kernel32:KERNEL32.dll
 0002:0005bb8e       _UnlockFile@20             100e2b8e f   kernel32:KERNEL32.dll
 0002:0005bb94       _SetEndOfFile@4            100e2b94 f   kernel32:KERNEL32.dll
 0002:0005bb9a       _GetFileSize@8             100e2b9a f   kernel32:KERNEL32.dll
 0002:0005bba0       _MoveFileA@8               100e2ba0 f   kernel32:KERNEL32.dll
 0002:0005bba6       _DeleteFileA@4             100e2ba6 f   kernel32:KERNEL32.dll
 0002:0005bbac       _FindClose@4               100e2bac f   kernel32:KERNEL32.dll
 0002:0005bbb2       _FindFirstFileA@8          100e2bb2 f   kernel32:KERNEL32.dll
 0002:0005bbb8       _GetVolumeInformationA@32  100e2bb8 f   kernel32:KERNEL32.dll
 0002:0005bbbe       _GetFullPathNameA@16       100e2bbe f   kernel32:KERNEL32.dll
 0002:0005bbc4       _GetShortPathNameA@12      100e2bc4 f   kernel32:KERNEL32.dll
 0002:0005bbca       _FindResourceExA@16        100e2bca f   kernel32:KERNEL32.dll
 0002:0005bbd0       _GetFileAttributesA@4      100e2bd0 f   kernel32:KERNEL32.dll
 0002:0005bbd6       _SetFileTime@16            100e2bd6 f   kernel32:KERNEL32.dll
 0002:0005bbdc       _GetFileTime@16            100e2bdc f   kernel32:KERNEL32.dll
 0002:0005bbe2       _GetTempFileNameA@16       100e2be2 f   kernel32:KERNEL32.dll
 0002:0005bbe8       _GetDiskFreeSpaceA@20      100e2be8 f   kernel32:KERNEL32.dll
 0002:0005bbee       _LocalFileTimeToFileTime@8 100e2bee f   kernel32:KERNEL32.dll
 0002:0005bbf4       _SetFileAttributesA@8      100e2bf4 f   kernel32:KERNEL32.dll
 0002:0005bbfa       _LocalUnlock@4             100e2bfa f   kernel32:KERNEL32.dll
 0002:0005bc00       _LocalLock@4               100e2c00 f   kernel32:KERNEL32.dll
 0002:0005bc06       _RtlUnwind@16              100e2c06 f   kernel32:KERNEL32.dll
 0002:0005bc0c       _DebugBreak@0              100e2c0c f   kernel32:KERNEL32.dll
 0002:0005bc12       _GetStdHandle@4            100e2c12 f   kernel32:KERNEL32.dll
 0002:0005bc18       _OutputDebugStringA@4      100e2c18 f   kernel32:KERNEL32.dll
 0002:0005bc1e       _VirtualAlloc@16           100e2c1e f   kernel32:KERNEL32.dll
 0002:0005bc24       _GetSystemInfo@4           100e2c24 f   kernel32:KERNEL32.dll
 0002:0005bc2a       _VirtualQuery@12           100e2c2a f   kernel32:KERNEL32.dll
 0002:0005bc30       _HeapValidate@12           100e2c30 f   kernel32:KERNEL32.dll
 0002:0005bc36       _GetCommandLineA@0         100e2c36 f   kernel32:KERNEL32.dll
 0002:0005bc3c       _ExitProcess@4             100e2c3c f   kernel32:KERNEL32.dll
 0002:0005bc42       _CreateThread@24           100e2c42 f   kernel32:KERNEL32.dll
 0002:0005bc48       _ExitThread@4              100e2c48 f   kernel32:KERNEL32.dll
 0002:0005bc4e       _TerminateProcess@8        100e2c4e f   kernel32:KERNEL32.dll
 0002:0005bc54       _FatalAppExitA@8           100e2c54 f   kernel32:KERNEL32.dll
 0002:0005bc5a       _SetConsoleCtrlHandler@8   100e2c5a f   kernel32:KERNEL32.dll
 0002:0005bc60       _HeapAlloc@12              100e2c60 f   kernel32:KERNEL32.dll
 0002:0005bc66       _HeapReAlloc@16            100e2c66 f   kernel32:KERNEL32.dll
 0002:0005bc6c       _HeapFree@12               100e2c6c f   kernel32:KERNEL32.dll
 0002:0005bc72       _HeapDestroy@4             100e2c72 f   kernel32:KERNEL32.dll
 0002:0005bc78       _HeapCreate@12             100e2c78 f   kernel32:KERNEL32.dll
 0002:0005bc7e       _VirtualFree@12            100e2c7e f   kernel32:KERNEL32.dll
 0002:0005bc84       _SetHandleCount@4          100e2c84 f   kernel32:KERNEL32.dll
 0002:0005bc8a       _GetFileType@4             100e2c8a f   kernel32:KERNEL32.dll
 0002:0005bc90       _GetStartupInfoA@4         100e2c90 f   kernel32:KERNEL32.dll
 0002:0005bc96       _FreeEnvironmentStringsA@4 100e2c96 f   kernel32:KERNEL32.dll
 0002:0005bc9c       _GetEnvironmentStrings@0   100e2c9c f   kernel32:KERNEL32.dll
 0002:0005bca2       _FreeEnvironmentStringsW@4 100e2ca2 f   kernel32:KERNEL32.dll
 0002:0005bca8       _GetEnvironmentStringsW@0  100e2ca8 f   kernel32:KERNEL32.dll
 0002:0005bcae       _UnhandledExceptionFilter@4 100e2cae f   kernel32:KERNEL32.dll
 0002:0005bcb4       _QueryPerformanceCounter@4 100e2cb4 f   kernel32:KERNEL32.dll
 0002:0005bcba       _GetTickCount@0            100e2cba f   kernel32:KERNEL32.dll
 0002:0005bcc0       _GetCurrentProcessId@0     100e2cc0 f   kernel32:KERNEL32.dll
 0002:0005bcc6       _GetSystemTimeAsFileTime@4 100e2cc6 f   kernel32:KERNEL32.dll
 0002:0005bccc       _SetUnhandledExceptionFilter@4 100e2ccc f   kernel32:KERNEL32.dll
 0002:0005bcd2       _LCMapStringA@24           100e2cd2 f   kernel32:KERNEL32.dll
 0002:0005bcd8       _LCMapStringW@24           100e2cd8 f   kernel32:KERNEL32.dll
 0002:0005bcde       _GetStringTypeA@20         100e2cde f   kernel32:KERNEL32.dll
 0002:0005bce4       _GetStringTypeW@16         100e2ce4 f   kernel32:KERNEL32.dll
 0002:0005bcea       _IsBadCodePtr@4            100e2cea f   kernel32:KERNEL32.dll
 0002:0005bcf0       _GetProcessHeap@0          100e2cf0 f   kernel32:KERNEL32.dll
 0002:0005bcf6       _GetTimeFormatA@24         100e2cf6 f   kernel32:KERNEL32.dll
 0002:0005bcfc       _GetDateFormatA@24         100e2cfc f   kernel32:KERNEL32.dll
 0002:0005bd02       _IsValidLocale@8           100e2d02 f   kernel32:KERNEL32.dll
 0002:0005bd08       _IsValidCodePage@4         100e2d08 f   kernel32:KERNEL32.dll
 0002:0005bd0e       _EnumSystemLocalesA@8      100e2d0e f   kernel32:KERNEL32.dll
 0002:0005bd14       _GetUserDefaultLCID@0      100e2d14 f   kernel32:KERNEL32.dll
 0002:0005bd1a       _SetStdHandle@8            100e2d1a f   kernel32:KERNEL32.dll
 0002:0005bd20       _GetTimeZoneInformation@4  100e2d20 f   kernel32:KERNEL32.dll
 0002:0005bd26       _GetLocaleInfoW@16         100e2d26 f   kernel32:KERNEL32.dll
 0002:0005bd2c       _SetEnvironmentVariableA@8 100e2d2c f   kernel32:KERNEL32.dll
 0002:0005bd32       _GetSysColor@4             100e2d32 f   user32:USER32.dll
 0002:0005bd38       _SendMessageA@16           100e2d38 f   user32:USER32.dll
 0002:0005bd3e       _GetSystemMetrics@4        100e2d3e f   user32:USER32.dll
 0002:0005bd44       _FindWindowA@8             100e2d44 f   user32:USER32.dll
 0002:0005bd4a       _CharLowerW@4              100e2d4a f   user32:USER32.dll
 0002:0005bd50       _CharLowerA@4              100e2d50 f   user32:USER32.dll
 0002:0005bd56       _CharUpperW@4              100e2d56 f   user32:USER32.dll
 0002:0005bd5c       _CharUpperA@4              100e2d5c f   user32:USER32.dll
 0002:0005bd62       _LoadImageA@24             100e2d62 f   user32:USER32.dll
 0002:0005bd68       _CopyImage@20              100e2d68 f   user32:USER32.dll
 0002:0005bd6e       _GetWindowRect@8           100e2d6e f   user32:USER32.dll
 0002:0005bd74       _GetWindowPlacement@8      100e2d74 f   user32:USER32.dll
 0002:0005bd7a       _IsIconic@4                100e2d7a f   user32:USER32.dll
 0002:0005bd80       _SystemParametersInfoA@16  100e2d80 f   user32:USER32.dll
 0002:0005bd86       _IntersectRect@12          100e2d86 f   user32:USER32.dll
 0002:0005bd8c       _OffsetRect@12             100e2d8c f   user32:USER32.dll
 0002:0005bd92       _SetWindowPos@28           100e2d92 f   user32:USER32.dll
 0002:0005bd98       _SetWindowLongA@12         100e2d98 f   user32:USER32.dll
 0002:0005bd9e       _GetWindowLongA@8          100e2d9e f   user32:USER32.dll
 0002:0005bda4       _GetMessagePos@0           100e2da4 f   user32:USER32.dll
 0002:0005bdaa       _GetMessageTime@0          100e2daa f   user32:USER32.dll
 0002:0005bdb0       _DefWindowProcA@16         100e2db0 f   user32:USER32.dll
 0002:0005bdb6       _RemovePropA@8             100e2db6 f   user32:USER32.dll
 0002:0005bdbc       _CallWindowProcA@20        100e2dbc f   user32:USER32.dll
 0002:0005bdc2       _GetPropA@8                100e2dc2 f   user32:USER32.dll
 0002:0005bdc8       _UnhookWindowsHookEx@4     100e2dc8 f   user32:USER32.dll
 0002:0005bdce       _SetPropA@12               100e2dce f   user32:USER32.dll
 0002:0005bdd4       _GetClassNameA@12          100e2dd4 f   user32:USER32.dll
 0002:0005bdda       _GetClassInfoExA@12        100e2dda f   user32:USER32.dll
 0002:0005bde0       _GetClassLongA@8           100e2de0 f   user32:USER32.dll
 0002:0005bde6       _CallNextHookEx@16         100e2de6 f   user32:USER32.dll
 0002:0005bdec       _SetWindowsHookExA@16      100e2dec f   user32:USER32.dll
 0002:0005bdf2       _CreateWindowExA@48        100e2df2 f   user32:USER32.dll
 0002:0005bdf8       _IsWindow@4                100e2df8 f   user32:USER32.dll
 0002:0005bdfe       _GetDlgCtrlID@4            100e2dfe f   user32:USER32.dll
 0002:0005be04       _DestroyWindow@4           100e2e04 f   user32:USER32.dll
 0002:0005be0a       _GetKeyState@4             100e2e0a f   user32:USER32.dll
 0002:0005be10       _GetWindowTextA@12         100e2e10 f   user32:USER32.dll
 0002:0005be16       _GetWindowTextLengthA@4    100e2e16 f   user32:USER32.dll
 0002:0005be1c       _GetDlgItem@8              100e2e1c f   user32:USER32.dll
 0002:0005be22       _SetWindowPlacement@8      100e2e22 f   user32:USER32.dll
 0002:0005be28       _TrackPopupMenu@28         100e2e28 f   user32:USER32.dll
 0002:0005be2e       _TrackPopupMenuEx@24       100e2e2e f   user32:USER32.dll
 0002:0005be34       _UnregisterClassA@8        100e2e34 f   user32:USER32.dll
 0002:0005be3a       _RegisterClassA@4          100e2e3a f   user32:USER32.dll
 0002:0005be40       _GetClassInfoA@12          100e2e40 f   user32:USER32.dll
 0002:0005be46       _WinHelpA@16               100e2e46 f   user32:USER32.dll
 0002:0005be4c       _GetCapture@0              100e2e4c f   user32:USER32.dll
 0002:0005be52       _GetWindow@8               100e2e52 f   user32:USER32.dll
 0002:0005be58       _GetParent@4               100e2e58 f   user32:USER32.dll
 0002:0005be5e       _IsChild@8                 100e2e5e f   user32:USER32.dll
 0002:0005be64       _MessageBoxA@16            100e2e64 f   user32:USER32.dll
 0002:0005be6a       _GetTopWindow@4            100e2e6a f   user32:USER32.dll
 0002:0005be70       _SetScrollPos@16           100e2e70 f   user32:USER32.dll
 0002:0005be76       _GetScrollPos@8            100e2e76 f   user32:USER32.dll
 0002:0005be7c       _SetScrollRange@20         100e2e7c f   user32:USER32.dll
 0002:0005be82       _GetScrollRange@16         100e2e82 f   user32:USER32.dll
 0002:0005be88       _SetScrollInfo@16          100e2e88 f   user32:USER32.dll
 0002:0005be8e       _GetScrollInfo@12          100e2e8e f   user32:USER32.dll
 0002:0005be94       _ScrollWindow@20           100e2e94 f   user32:USER32.dll
 0002:0005be9a       _EndDeferWindowPos@4       100e2e9a f   user32:USER32.dll
 0002:0005bea0       _CopyRect@8                100e2ea0 f   user32:USER32.dll
 0002:0005bea6       _BeginDeferWindowPos@4     100e2ea6 f   user32:USER32.dll
 0002:0005beac       _DeferWindowPos@32         100e2eac f   user32:USER32.dll
 0002:0005beb2       _EqualRect@8               100e2eb2 f   user32:USER32.dll
 0002:0005beb8       _ScreenToClient@8          100e2eb8 f   user32:USER32.dll
 0002:0005bebe       _AdjustWindowRectEx@16     100e2ebe f   user32:USER32.dll
 0002:0005bec4       _SetFocus@4                100e2ec4 f   user32:USER32.dll
 0002:0005beca       _SetActiveWindow@4         100e2eca f   user32:USER32.dll
 0002:0005bed0       _GetFocus@0                100e2ed0 f   user32:USER32.dll
 0002:0005bed6       _DispatchMessageA@4        100e2ed6 f   user32:USER32.dll
 0002:0005bedc       _PeekMessageA@20           100e2edc f   user32:USER32.dll
 0002:0005bee2       _MapWindowPoints@16        100e2ee2 f   user32:USER32.dll
 0002:0005bee8       _GetClientRect@8           100e2ee8 f   user32:USER32.dll
 0002:0005beee       _SendDlgItemMessageA@20    100e2eee f   user32:USER32.dll
 0002:0005bef4       _LoadIconA@8               100e2ef4 f   user32:USER32.dll
 0002:0005befa       _RegisterWindowMessageA@4  100e2efa f   user32:USER32.dll
 0002:0005bf00       _CheckDlgButton@12         100e2f00 f   user32:USER32.dll
 0002:0005bf06       _CheckRadioButton@16       100e2f06 f   user32:USER32.dll
 0002:0005bf0c       _GetDlgItemInt@16          100e2f0c f   user32:USER32.dll
 0002:0005bf12       _GetDlgItemTextA@16        100e2f12 f   user32:USER32.dll
 0002:0005bf18       _SetDlgItemInt@16          100e2f18 f   user32:USER32.dll
 0002:0005bf1e       _SetDlgItemTextA@12        100e2f1e f   user32:USER32.dll
 0002:0005bf24       _IsDlgButtonChecked@8      100e2f24 f   user32:USER32.dll
 0002:0005bf2a       _ScrollWindowEx@32         100e2f2a f   user32:USER32.dll
 0002:0005bf30       _IsDialogMessageA@8        100e2f30 f   user32:USER32.dll
 0002:0005bf36       _SetWindowTextA@8          100e2f36 f   user32:USER32.dll
 0002:0005bf3c       _MoveWindow@24             100e2f3c f   user32:USER32.dll
 0002:0005bf42       _ShowWindow@8              100e2f42 f   user32:USER32.dll
 0002:0005bf48       _IsWindowEnabled@4         100e2f48 f   user32:USER32.dll
 0002:0005bf4e       _EnableWindow@8            100e2f4e f   user32:USER32.dll
 0002:0005bf54       _PostMessageA@16           100e2f54 f   user32:USER32.dll
 0002:0005bf5a       _DragDetect@12             100e2f5a f   user32:USER32.dll
 0002:0005bf60       _GetMenu@4                 100e2f60 f   user32:USER32.dll
 0002:0005bf66       _SetMenu@8                 100e2f66 f   user32:USER32.dll
 0002:0005bf6c       _DrawMenuBar@4             100e2f6c f   user32:USER32.dll
 0002:0005bf72       _GetSystemMenu@8           100e2f72 f   user32:USER32.dll
 0002:0005bf78       _HiliteMenuItem@16         100e2f78 f   user32:USER32.dll
 0002:0005bf7e       _IsZoomed@4                100e2f7e f   user32:USER32.dll
 0002:0005bf84       _ArrangeIconicWindows@4    100e2f84 f   user32:USER32.dll
 0002:0005bf8a       _SetWindowRgn@12           100e2f8a f   user32:USER32.dll
 0002:0005bf90       _GetWindowRgn@8            100e2f90 f   user32:USER32.dll
 0002:0005bf96       _BringWindowToTop@4        100e2f96 f   user32:USER32.dll
 0002:0005bf9c       _ClientToScreen@8          100e2f9c f   user32:USER32.dll
 0002:0005bfa2       _BeginPaint@8              100e2fa2 f   user32:USER32.dll
 0002:0005bfa8       _EndPaint@8                100e2fa8 f   user32:USER32.dll
 0002:0005bfae       _GetDC@4                   100e2fae f   user32:USER32.dll
 0002:0005bfb4       _GetWindowDC@4             100e2fb4 f   user32:USER32.dll
 0002:0005bfba       _ReleaseDC@8               100e2fba f   user32:USER32.dll
 0002:0005bfc0       _UpdateWindow@4            100e2fc0 f   user32:USER32.dll
 0002:0005bfc6       _GetUpdateRect@12          100e2fc6 f   user32:USER32.dll
 0002:0005bfcc       _GetUpdateRgn@12           100e2fcc f   user32:USER32.dll
 0002:0005bfd2       _InvalidateRect@12         100e2fd2 f   user32:USER32.dll
 0002:0005bfd8       _InvalidateRgn@12          100e2fd8 f   user32:USER32.dll
 0002:0005bfde       _ValidateRect@8            100e2fde f   user32:USER32.dll
 0002:0005bfe4       _ValidateRgn@8             100e2fe4 f   user32:USER32.dll
 0002:0005bfea       _IsWindowVisible@4         100e2fea f   user32:USER32.dll
 0002:0005bff0       _ShowOwnedPopups@8         100e2ff0 f   user32:USER32.dll
 0002:0005bff6       _GetDCEx@12                100e2ff6 f   user32:USER32.dll
 0002:0005bffc       _LockWindowUpdate@4        100e2ffc f   user32:USER32.dll
 0002:0005c002       _RedrawWindow@16           100e3002 f   user32:USER32.dll
 0002:0005c008       _EnableScrollBar@12        100e3008 f   user32:USER32.dll
 0002:0005c00e       _DrawAnimatedRects@16      100e300e f   user32:USER32.dll
 0002:0005c014       _DrawCaption@16            100e3014 f   user32:USER32.dll
 0002:0005c01a       _SetTimer@16               100e301a f   user32:USER32.dll
 0002:0005c020       _KillTimer@8               100e3020 f   user32:USER32.dll
 0002:0005c026       _GetActiveWindow@0         100e3026 f   user32:USER32.dll
 0002:0005c02c       _SetCapture@4              100e302c f   user32:USER32.dll
 0002:0005c032       _GetDesktopWindow@0        100e3032 f   user32:USER32.dll
 0002:0005c038       _DlgDirListA@20            100e3038 f   user32:USER32.dll
 0002:0005c03e       _DlgDirListComboBoxA@20    100e303e f   user32:USER32.dll
 0002:0005c044       _DlgDirSelectExA@16        100e3044 f   user32:USER32.dll
 0002:0005c04a       _DlgDirSelectComboBoxExA@16 100e304a f   user32:USER32.dll
 0002:0005c050       _GetNextDlgGroupItem@12    100e3050 f   user32:USER32.dll
 0002:0005c056       _GetNextDlgTabItem@12      100e3056 f   user32:USER32.dll
 0002:0005c05c       _ShowScrollBar@12          100e305c f   user32:USER32.dll
 0002:0005c062       _ChildWindowFromPoint@12   100e3062 f   user32:USER32.dll
 0002:0005c068       _ChildWindowFromPointEx@16 100e3068 f   user32:USER32.dll
 0002:0005c06e       _FindWindowExA@16          100e306e f   user32:USER32.dll
 0002:0005c074       _GetLastActivePopup@4      100e3074 f   user32:USER32.dll
 0002:0005c07a       _SetParent@8               100e307a f   user32:USER32.dll
 0002:0005c080       _WindowFromPoint@8         100e3080 f   user32:USER32.dll
 0002:0005c086       _FlashWindow@8             100e3086 f   user32:USER32.dll
 0002:0005c08c       _ChangeClipboardChain@8    100e308c f   user32:USER32.dll
 0002:0005c092       _SetClipboardViewer@4      100e3092 f   user32:USER32.dll
 0002:0005c098       _OpenClipboard@4           100e3098 f   user32:USER32.dll
 0002:0005c09e       _GetOpenClipboardWindow@0  100e309e f   user32:USER32.dll
 0002:0005c0a4       _GetClipboardOwner@0       100e30a4 f   user32:USER32.dll
 0002:0005c0aa       _GetClipboardViewer@0      100e30aa f   user32:USER32.dll
 0002:0005c0b0       _CreateCaret@16            100e30b0 f   user32:USER32.dll
 0002:0005c0b6       _GetCaretPos@4             100e30b6 f   user32:USER32.dll
 0002:0005c0bc       _SetCaretPos@8             100e30bc f   user32:USER32.dll
 0002:0005c0c2       _HideCaret@4               100e30c2 f   user32:USER32.dll
 0002:0005c0c8       _ShowCaret@4               100e30c8 f   user32:USER32.dll
 0002:0005c0ce       _SetForegroundWindow@4     100e30ce f   user32:USER32.dll
 0002:0005c0d4       _GetForegroundWindow@0     100e30d4 f   user32:USER32.dll
 0002:0005c0da       _SendNotifyMessageA@16     100e30da f   user32:USER32.dll
 0002:0005c0e0       _SetWindowContextHelpId@8  100e30e0 f   user32:USER32.dll
 0002:0005c0e6       _GetWindowContextHelpId@4  100e30e6 f   user32:USER32.dll
 0002:0005c0ec       _MapDialogRect@8           100e30ec f   user32:USER32.dll
 0002:0005c0f2       _PostThreadMessageA@16     100e30f2 f   user32:USER32.dll
 0002:0005c0f8       _LoadCursorA@8             100e30f8 f   user32:USER32.dll
 0002:0005c0fe       _CloseWindow@4             100e30fe f   user32:USER32.dll
 0002:0005c104       _OpenIcon@4                100e3104 f   user32:USER32.dll
 0002:0005c10a       _SetMenuItemBitmaps@20     100e310a f   user32:USER32.dll
 0002:0005c110       _LoadBitmapA@8             100e3110 f   user32:USER32.dll
 0002:0005c116       _GetMenuCheckMarkDimensions@0 100e3116 f   user32:USER32.dll
 0002:0005c11c       _TabbedTextOutA@32         100e311c f   user32:USER32.dll
 0002:0005c122       _GetSysColorBrush@4        100e3122 f   user32:USER32.dll
 0002:0005c128       _WindowFromDC@4            100e3128 f   user32:USER32.dll
 0002:0005c12e       _ExcludeUpdateRgn@8        100e312e f   user32:USER32.dll
 0002:0005c134       _FillRect@12               100e3134 f   user32:USER32.dll
 0002:0005c13a       _FrameRect@12              100e313a f   user32:USER32.dll
 0002:0005c140       _InvertRect@8              100e3140 f   user32:USER32.dll
 0002:0005c146       _DrawIcon@16               100e3146 f   user32:USER32.dll
 0002:0005c14c       _DrawStateA@40             100e314c f   user32:USER32.dll
 0002:0005c152       _DrawEdge@16               100e3152 f   user32:USER32.dll
 0002:0005c158       _DrawFrameControl@16       100e3158 f   user32:USER32.dll
 0002:0005c15e       _DrawFocusRect@8           100e315e f   user32:USER32.dll
 0002:0005c164       _DrawTextA@20              100e3164 f   user32:USER32.dll
 0002:0005c16a       _DrawTextExA@24            100e316a f   user32:USER32.dll
 0002:0005c170       _GetTabbedTextExtentA@20   100e3170 f   user32:USER32.dll
 0002:0005c176       _GrayStringA@36            100e3176 f   user32:USER32.dll
 0002:0005c17c       _ScrollDC@28               100e317c f   user32:USER32.dll
 0002:0005c182       _CreateMenu@0              100e3182 f   user32:USER32.dll
 0002:0005c188       _CreatePopupMenu@0         100e3188 f   user32:USER32.dll
 0002:0005c18e       _IsMenu@4                  100e318e f   user32:USER32.dll
 0002:0005c194       _DeleteMenu@12             100e3194 f   user32:USER32.dll
 0002:0005c19a       _AppendMenuA@16            100e319a f   user32:USER32.dll
 0002:0005c1a0       _CheckMenuItem@12          100e31a0 f   user32:USER32.dll
 0002:0005c1a6       _EnableMenuItem@12         100e31a6 f   user32:USER32.dll
 0002:0005c1ac       _SetMenuDefaultItem@12     100e31ac f   user32:USER32.dll
 0002:0005c1b2       _GetMenuDefaultItem@12     100e31b2 f   user32:USER32.dll
 0002:0005c1b8       _GetMenuItemCount@4        100e31b8 f   user32:USER32.dll
 0002:0005c1be       _GetMenuItemID@8           100e31be f   user32:USER32.dll
 0002:0005c1c4       _GetMenuState@12           100e31c4 f   user32:USER32.dll
 0002:0005c1ca       _GetMenuStringA@20         100e31ca f   user32:USER32.dll
 0002:0005c1d0       _GetMenuItemInfoA@16       100e31d0 f   user32:USER32.dll
 0002:0005c1d6       _SetMenuItemInfoA@16       100e31d6 f   user32:USER32.dll
 0002:0005c1dc       _GetSubMenu@8              100e31dc f   user32:USER32.dll
 0002:0005c1e2       _InsertMenuA@20            100e31e2 f   user32:USER32.dll
 0002:0005c1e8       _InsertMenuItemA@16        100e31e8 f   user32:USER32.dll
 0002:0005c1ee       _ModifyMenuA@20            100e31ee f   user32:USER32.dll
 0002:0005c1f4       _RemoveMenu@12             100e31f4 f   user32:USER32.dll
 0002:0005c1fa       _LoadMenuA@8               100e31fa f   user32:USER32.dll
 0002:0005c200       _LoadMenuIndirectA@4       100e3200 f   user32:USER32.dll
 0002:0005c206       _SetMenuContextHelpId@8    100e3206 f   user32:USER32.dll
 0002:0005c20c       _GetMenuContextHelpId@4    100e320c f   user32:USER32.dll
 0002:0005c212       _CheckMenuRadioItem@20     100e3212 f   user32:USER32.dll
 0002:0005c218       _wsprintfA                 100e3218 f   user32:USER32.dll
 0002:0005c21e       _TranslateMessage@4        100e321e f   user32:USER32.dll
 0002:0005c224       _GetMessageA@16            100e3224 f   user32:USER32.dll
 0002:0005c22a       _GetCursorPos@4            100e322a f   user32:USER32.dll
 0002:0005c230       _CreateDialogIndirectParamA@20 100e3230 f   user32:USER32.dll
 0002:0005c236       _EndDialog@8               100e3236 f   user32:USER32.dll
 0002:0005c23c       _PostQuitMessage@4         100e323c f   user32:USER32.dll
 0002:0005c242       _SetCursor@4               100e3242 f   user32:USER32.dll
 0002:0005c248       _GetClipboardFormatNameA@12 100e3248 f   user32:USER32.dll
 0002:0005c24e       _UnpackDDElParam@16        100e324e f   user32:USER32.dll
 0002:0005c254       _DestroyMenu@4             100e3254 f   user32:USER32.dll
 0002:0005c25a       _GetAsyncKeyState@4        100e325a f   user32:USER32.dll
 0002:0005c260       _SetRectEmpty@4            100e3260 f   user32:USER32.dll
 0002:0005c266       _ReleaseCapture@0          100e3266 f   user32:USER32.dll
 0002:0005c26c       _GetDialogBaseUnits@0      100e326c f   user32:USER32.dll
 0002:0005c272       _LoadAcceleratorsA@8       100e3272 f   user32:USER32.dll
 0002:0005c278       _TranslateAcceleratorA@12  100e3278 f   user32:USER32.dll
 0002:0005c27e       _ReuseDDElParam@20         100e327e f   user32:USER32.dll
 0002:0005c284       _DestroyIcon@4             100e3284 f   user32:USER32.dll
 0002:0005c28a       _GetKeyNameTextA@12        100e328a f   user32:USER32.dll
 0002:0005c290       _MapVirtualKeyA@8          100e3290 f   user32:USER32.dll
 0002:0005c296       _IsClipboardFormatAvailable@4 100e3296 f   user32:USER32.dll
 0002:0005c29c       _MessageBeep@4             100e329c f   user32:USER32.dll
 0002:0005c2a2       _DeleteObject@4            100e32a2 f   gdi32:GDI32.dll
 0002:0005c2a8       _GetDCOrgEx@8              100e32a8 f   gdi32:GDI32.dll
 0002:0005c2ae       _GetClipBox@8              100e32ae f   gdi32:GDI32.dll
 0002:0005c2b4       _SetTextColor@8            100e32b4 f   gdi32:GDI32.dll
 0002:0005c2ba       _SetBkColor@8              100e32ba f   gdi32:GDI32.dll
 0002:0005c2c0       _GetObjectA@12             100e32c0 f   gdi32:GDI32.dll
 0002:0005c2c6       _CreateBitmap@20           100e32c6 f   gdi32:GDI32.dll
 0002:0005c2cc       _CreateMetaFileA@4         100e32cc f   gdi32:GDI32.dll
 0002:0005c2d2       _CloseMetaFile@4           100e32d2 f   gdi32:GDI32.dll
 0002:0005c2d8       _CreateEnhMetaFileA@16     100e32d8 f   gdi32:GDI32.dll
 0002:0005c2de       _CloseEnhMetaFile@4        100e32de f   gdi32:GDI32.dll
 0002:0005c2e4       _ExtTextOutA@32            100e32e4 f   gdi32:GDI32.dll
 0002:0005c2ea       _GetStockObject@4          100e32ea f   gdi32:GDI32.dll
 0002:0005c2f0       _UnrealizeObject@4         100e32f0 f   gdi32:GDI32.dll
 0002:0005c2f6       _GetObjectType@4           100e32f6 f   gdi32:GDI32.dll
 0002:0005c2fc       _CreatePen@12              100e32fc f   gdi32:GDI32.dll
 0002:0005c302       _CreatePenIndirect@4       100e3302 f   gdi32:GDI32.dll
 0002:0005c308       _ExtCreatePen@20           100e3308 f   gdi32:GDI32.dll
 0002:0005c30e       _CreateSolidBrush@4        100e330e f   gdi32:GDI32.dll
 0002:0005c314       _CreateHatchBrush@8        100e3314 f   gdi32:GDI32.dll
 0002:0005c31a       _CreateBrushIndirect@4     100e331a f   gdi32:GDI32.dll
 0002:0005c320       _CreatePatternBrush@4      100e3320 f   gdi32:GDI32.dll
 0002:0005c326       _CreateDIBPatternBrushPt@8 100e3326 f   gdi32:GDI32.dll
 0002:0005c32c       _CreateFontIndirectA@4     100e332c f   gdi32:GDI32.dll
 0002:0005c332       _CreateFontA@56            100e3332 f   gdi32:GDI32.dll
 0002:0005c338       _CreateBitmapIndirect@4    100e3338 f   gdi32:GDI32.dll
 0002:0005c33e       _SetBitmapBits@12          100e333e f   gdi32:GDI32.dll
 0002:0005c344       _GetBitmapBits@12          100e3344 f   gdi32:GDI32.dll
 0002:0005c34a       _SetBitmapDimensionEx@16   100e334a f   gdi32:GDI32.dll
 0002:0005c350       _GetBitmapDimensionEx@8    100e3350 f   gdi32:GDI32.dll
 0002:0005c356       _CreateCompatibleBitmap@12 100e3356 f   gdi32:GDI32.dll
 0002:0005c35c       _CreateDiscardableBitmap@12 100e335c f   gdi32:GDI32.dll
 0002:0005c362       _CreatePalette@4           100e3362 f   gdi32:GDI32.dll
 0002:0005c368       _CreateHalftonePalette@4   100e3368 f   gdi32:GDI32.dll
 0002:0005c36e       _GetPaletteEntries@16      100e336e f   gdi32:GDI32.dll
 0002:0005c374       _SetPaletteEntries@16      100e3374 f   gdi32:GDI32.dll
 0002:0005c37a       _AnimatePalette@16         100e337a f   gdi32:GDI32.dll
 0002:0005c380       _GetNearestPaletteIndex@8  100e3380 f   gdi32:GDI32.dll
 0002:0005c386       _ResizePalette@8           100e3386 f   gdi32:GDI32.dll
 0002:0005c38c       _CreateRectRgn@16          100e338c f   gdi32:GDI32.dll
 0002:0005c392       _CreateRectRgnIndirect@4   100e3392 f   gdi32:GDI32.dll
 0002:0005c398       _CreateEllipticRgn@16      100e3398 f   gdi32:GDI32.dll
 0002:0005c39e       _CreateEllipticRgnIndirect@4 100e339e f   gdi32:GDI32.dll
 0002:0005c3a4       _CreatePolygonRgn@12       100e33a4 f   gdi32:GDI32.dll
 0002:0005c3aa       _CreatePolyPolygonRgn@16   100e33aa f   gdi32:GDI32.dll
 0002:0005c3b0       _CreateRoundRectRgn@24     100e33b0 f   gdi32:GDI32.dll
 0002:0005c3b6       _PathToRegion@4            100e33b6 f   gdi32:GDI32.dll
 0002:0005c3bc       _ExtCreateRegion@12        100e33bc f   gdi32:GDI32.dll
 0002:0005c3c2       _GetRegionData@12          100e33c2 f   gdi32:GDI32.dll
 0002:0005c3c8       _SetRectRgn@20             100e33c8 f   gdi32:GDI32.dll
 0002:0005c3ce       _CombineRgn@16             100e33ce f   gdi32:GDI32.dll
 0002:0005c3d4       _EqualRgn@8                100e33d4 f   gdi32:GDI32.dll
 0002:0005c3da       _OffsetRgn@12              100e33da f   gdi32:GDI32.dll
 0002:0005c3e0       _GetRgnBox@8               100e33e0 f   gdi32:GDI32.dll
 0002:0005c3e6       _PtInRegion@12             100e33e6 f   gdi32:GDI32.dll
 0002:0005c3ec       _RectInRegion@8            100e33ec f   gdi32:GDI32.dll
 0002:0005c3f2       _CreateDCA@16              100e33f2 f   gdi32:GDI32.dll
 0002:0005c3f8       _CreateICA@16              100e33f8 f   gdi32:GDI32.dll
 0002:0005c3fe       _CreateCompatibleDC@4      100e33fe f   gdi32:GDI32.dll
 0002:0005c404       _GetDeviceCaps@8           100e3404 f   gdi32:GDI32.dll
 0002:0005c40a       _GetBrushOrgEx@8           100e340a f   gdi32:GDI32.dll
 0002:0005c410       _SetBrushOrgEx@16          100e3410 f   gdi32:GDI32.dll
 0002:0005c416       _EnumObjects@16            100e3416 f   gdi32:GDI32.dll
 0002:0005c41c       _SelectObject@8            100e341c f   gdi32:GDI32.dll
 0002:0005c422       _GetNearestColor@8         100e3422 f   gdi32:GDI32.dll
 0002:0005c428       _RealizePalette@4          100e3428 f   gdi32:GDI32.dll
 0002:0005c42e       _UpdateColors@4            100e342e f   gdi32:GDI32.dll
 0002:0005c434       _GetBkColor@4              100e3434 f   gdi32:GDI32.dll
 0002:0005c43a       _GetBkMode@4               100e343a f   gdi32:GDI32.dll
 0002:0005c440       _GetPolyFillMode@4         100e3440 f   gdi32:GDI32.dll
 0002:0005c446       _GetROP2@4                 100e3446 f   gdi32:GDI32.dll
 0002:0005c44c       _GetStretchBltMode@4       100e344c f   gdi32:GDI32.dll
 0002:0005c452       _GetTextColor@4            100e3452 f   gdi32:GDI32.dll
 0002:0005c458       _GetMapMode@4              100e3458 f   gdi32:GDI32.dll
 0002:0005c45e       _GetViewportOrgEx@8        100e345e f   gdi32:GDI32.dll
 0002:0005c464       _GetViewportExtEx@8        100e3464 f   gdi32:GDI32.dll
 0002:0005c46a       _GetWindowOrgEx@8          100e346a f   gdi32:GDI32.dll
 0002:0005c470       _GetWindowExtEx@8          100e3470 f   gdi32:GDI32.dll
 0002:0005c476       _DPtoLP@12                 100e3476 f   gdi32:GDI32.dll
 0002:0005c47c       _LPtoDP@12                 100e347c f   gdi32:GDI32.dll
 0002:0005c482       _FillRgn@12                100e3482 f   gdi32:GDI32.dll
 0002:0005c488       _FrameRgn@20               100e3488 f   gdi32:GDI32.dll
 0002:0005c48e       _InvertRgn@8               100e348e f   gdi32:GDI32.dll
 0002:0005c494       _PaintRgn@8                100e3494 f   gdi32:GDI32.dll
 0002:0005c49a       _PtVisible@12              100e349a f   gdi32:GDI32.dll
 0002:0005c4a0       _RectVisible@8             100e34a0 f   gdi32:GDI32.dll
 0002:0005c4a6       _GetCurrentPositionEx@8    100e34a6 f   gdi32:GDI32.dll
 0002:0005c4ac       _Arc@36                    100e34ac f   gdi32:GDI32.dll
 0002:0005c4b2       _Polyline@12               100e34b2 f   gdi32:GDI32.dll
 0002:0005c4b8       _Chord@36                  100e34b8 f   gdi32:GDI32.dll
 0002:0005c4be       _Ellipse@20                100e34be f   gdi32:GDI32.dll
 0002:0005c4c4       _Pie@36                    100e34c4 f   gdi32:GDI32.dll
 0002:0005c4ca       _Polygon@12                100e34ca f   gdi32:GDI32.dll
 0002:0005c4d0       _PolyPolygon@16            100e34d0 f   gdi32:GDI32.dll
 0002:0005c4d6       _Rectangle@20              100e34d6 f   gdi32:GDI32.dll
 0002:0005c4dc       _RoundRect@28              100e34dc f   gdi32:GDI32.dll
 0002:0005c4e2       _PatBlt@24                 100e34e2 f   gdi32:GDI32.dll
 0002:0005c4e8       _BitBlt@36                 100e34e8 f   gdi32:GDI32.dll
 0002:0005c4ee       _StretchBlt@44             100e34ee f   gdi32:GDI32.dll
 0002:0005c4f4       _GetPixel@12               100e34f4 f   gdi32:GDI32.dll
 0002:0005c4fa       _SetPixel@16               100e34fa f   gdi32:GDI32.dll
 0002:0005c500       _FloodFill@16              100e3500 f   gdi32:GDI32.dll
 0002:0005c506       _ExtFloodFill@20           100e3506 f   gdi32:GDI32.dll
 0002:0005c50c       _TextOutA@20               100e350c f   gdi32:GDI32.dll
 0002:0005c512       _GetTextExtentPoint32A@16  100e3512 f   gdi32:GDI32.dll
 0002:0005c518       _GetTextAlign@4            100e3518 f   gdi32:GDI32.dll
 0002:0005c51e       _GetTextFaceA@12           100e351e f   gdi32:GDI32.dll
 0002:0005c524       _GetTextMetricsA@8         100e3524 f   gdi32:GDI32.dll
 0002:0005c52a       _GetTextCharacterExtra@4   100e352a f   gdi32:GDI32.dll
 0002:0005c530       _GetCharWidthA@16          100e3530 f   gdi32:GDI32.dll
 0002:0005c536       _GetFontLanguageInfo@4     100e3536 f   gdi32:GDI32.dll
 0002:0005c53c       _GetCharacterPlacementA@24 100e353c f   gdi32:GDI32.dll
 0002:0005c542       _GetAspectRatioFilterEx@8  100e3542 f   gdi32:GDI32.dll
 0002:0005c548       _Escape@20                 100e3548 f   gdi32:GDI32.dll
 0002:0005c54e       _SetBoundsRect@12          100e354e f   gdi32:GDI32.dll
 0002:0005c554       _GetBoundsRect@12          100e3554 f   gdi32:GDI32.dll
 0002:0005c55a       _ResetDCA@8                100e355a f   gdi32:GDI32.dll
 0002:0005c560       _GetOutlineTextMetricsA@12 100e3560 f   gdi32:GDI32.dll
 0002:0005c566       _GetCharABCWidthsA@16      100e3566 f   gdi32:GDI32.dll
 0002:0005c56c       _GetFontData@20            100e356c f   gdi32:GDI32.dll
 0002:0005c572       _GetKerningPairsA@12       100e3572 f   gdi32:GDI32.dll
 0002:0005c578       _GetGlyphOutlineA@28       100e3578 f   gdi32:GDI32.dll
 0002:0005c57e       _StartDocA@8               100e357e f   gdi32:GDI32.dll
 0002:0005c584       _StartPage@4               100e3584 f   gdi32:GDI32.dll
 0002:0005c58a       _EndPage@4                 100e358a f   gdi32:GDI32.dll
 0002:0005c590       _SetAbortProc@8            100e3590 f   gdi32:GDI32.dll
 0002:0005c596       _AbortDoc@4                100e3596 f   gdi32:GDI32.dll
 0002:0005c59c       _EndDoc@4                  100e359c f   gdi32:GDI32.dll
 0002:0005c5a2       _MaskBlt@48                100e35a2 f   gdi32:GDI32.dll
 0002:0005c5a8       _PlgBlt@40                 100e35a8 f   gdi32:GDI32.dll
 0002:0005c5ae       _SetPixelV@16              100e35ae f   gdi32:GDI32.dll
 0002:0005c5b4       _AngleArc@24               100e35b4 f   gdi32:GDI32.dll
 0002:0005c5ba       _GetArcDirection@4         100e35ba f   gdi32:GDI32.dll
 0002:0005c5c0       _PolyPolyline@16           100e35c0 f   gdi32:GDI32.dll
 0002:0005c5c6       _GetColorAdjustment@8      100e35c6 f   gdi32:GDI32.dll
 0002:0005c5cc       _GetCurrentObject@8        100e35cc f   gdi32:GDI32.dll
 0002:0005c5d2       _PolyBezier@12             100e35d2 f   gdi32:GDI32.dll
 0002:0005c5d8       _DrawEscape@16             100e35d8 f   gdi32:GDI32.dll
 0002:0005c5de       _ExtEscape@24              100e35de f   gdi32:GDI32.dll
 0002:0005c5e4       _GetCharABCWidthsFloatA@16 100e35e4 f   gdi32:GDI32.dll
 0002:0005c5ea       _GetCharWidthFloatA@16     100e35ea f   gdi32:GDI32.dll
 0002:0005c5f0       _AbortPath@4               100e35f0 f   gdi32:GDI32.dll
 0002:0005c5f6       _BeginPath@4               100e35f6 f   gdi32:GDI32.dll
 0002:0005c5fc       _CloseFigure@4             100e35fc f   gdi32:GDI32.dll
 0002:0005c602       _EndPath@4                 100e3602 f   gdi32:GDI32.dll
 0002:0005c608       _FillPath@4                100e3608 f   gdi32:GDI32.dll
 0002:0005c60e       _FlattenPath@4             100e360e f   gdi32:GDI32.dll
 0002:0005c614       _GetMiterLimit@8           100e3614 f   gdi32:GDI32.dll
 0002:0005c61a       _GetPath@16                100e361a f   gdi32:GDI32.dll
 0002:0005c620       _SetMiterLimit@12          100e3620 f   gdi32:GDI32.dll
 0002:0005c626       _StrokeAndFillPath@4       100e3626 f   gdi32:GDI32.dll
 0002:0005c62c       _StrokePath@4              100e362c f   gdi32:GDI32.dll
 0002:0005c632       _WidenPath@4               100e3632 f   gdi32:GDI32.dll
 0002:0005c638       _GdiComment@12             100e3638 f   gdi32:GDI32.dll
 0002:0005c63e       _PlayEnhMetaFile@12        100e363e f   gdi32:GDI32.dll
 0002:0005c644       _DeleteDC@4                100e3644 f   gdi32:GDI32.dll
 0002:0005c64a       _SaveDC@4                  100e364a f   gdi32:GDI32.dll
 0002:0005c650       _RestoreDC@8               100e3650 f   gdi32:GDI32.dll
 0002:0005c656       _SelectPalette@12          100e3656 f   gdi32:GDI32.dll
 0002:0005c65c       _SetBkMode@8               100e365c f   gdi32:GDI32.dll
 0002:0005c662       _SetPolyFillMode@8         100e3662 f   gdi32:GDI32.dll
 0002:0005c668       _SetROP2@8                 100e3668 f   gdi32:GDI32.dll
 0002:0005c66e       _SetStretchBltMode@8       100e366e f   gdi32:GDI32.dll
 0002:0005c674       _SetMapMode@8              100e3674 f   gdi32:GDI32.dll
 0002:0005c67a       _SetViewportOrgEx@16       100e367a f   gdi32:GDI32.dll
 0002:0005c680       _OffsetViewportOrgEx@16    100e3680 f   gdi32:GDI32.dll
 0002:0005c686       _SetViewportExtEx@16       100e3686 f   gdi32:GDI32.dll
 0002:0005c68c       _ScaleViewportExtEx@24     100e368c f   gdi32:GDI32.dll
 0002:0005c692       _SetWindowOrgEx@16         100e3692 f   gdi32:GDI32.dll
 0002:0005c698       _OffsetWindowOrgEx@16      100e3698 f   gdi32:GDI32.dll
 0002:0005c69e       _SetWindowExtEx@16         100e369e f   gdi32:GDI32.dll
 0002:0005c6a4       _ScaleWindowExtEx@24       100e36a4 f   gdi32:GDI32.dll
 0002:0005c6aa       _SelectClipRgn@8           100e36aa f   gdi32:GDI32.dll
 0002:0005c6b0       _ExcludeClipRect@20        100e36b0 f   gdi32:GDI32.dll
 0002:0005c6b6       _IntersectClipRect@20      100e36b6 f   gdi32:GDI32.dll
 0002:0005c6bc       _OffsetClipRgn@12          100e36bc f   gdi32:GDI32.dll
 0002:0005c6c2       _MoveToEx@16               100e36c2 f   gdi32:GDI32.dll
 0002:0005c6c8       _LineTo@12                 100e36c8 f   gdi32:GDI32.dll
 0002:0005c6ce       _SetTextAlign@8            100e36ce f   gdi32:GDI32.dll
 0002:0005c6d4       _SetTextJustification@12   100e36d4 f   gdi32:GDI32.dll
 0002:0005c6da       _SetTextCharacterExtra@8   100e36da f   gdi32:GDI32.dll
 0002:0005c6e0       _SetMapperFlags@8          100e36e0 f   gdi32:GDI32.dll
 0002:0005c6e6       _ArcTo@36                  100e36e6 f   gdi32:GDI32.dll
 0002:0005c6ec       _SetArcDirection@8         100e36ec f   gdi32:GDI32.dll
 0002:0005c6f2       _PolyDraw@16               100e36f2 f   gdi32:GDI32.dll
 0002:0005c6f8       _PolylineTo@12             100e36f8 f   gdi32:GDI32.dll
 0002:0005c6fe       _SetColorAdjustment@8      100e36fe f   gdi32:GDI32.dll
 0002:0005c704       _PolyBezierTo@12           100e3704 f   gdi32:GDI32.dll
 0002:0005c70a       _GetClipRgn@8              100e370a f   gdi32:GDI32.dll
 0002:0005c710       _SelectClipPath@8          100e3710 f   gdi32:GDI32.dll
 0002:0005c716       _ExtSelectClipRgn@12       100e3716 f   gdi32:GDI32.dll
 0002:0005c71c       _PlayMetaFileRecord@16     100e371c f   gdi32:GDI32.dll
 0002:0005c722       _EnumMetaFile@16           100e3722 f   gdi32:GDI32.dll
 0002:0005c728       _PlayMetaFile@8            100e3728 f   gdi32:GDI32.dll
 0002:0005c72e       _CopyMetaFileA@8           100e372e f   gdi32:GDI32.dll
 0002:0005c734       _StretchDIBits@52          100e3734 f   gdi32:GDI32.dll
 0002:0005c73a       _EnumFontFamiliesExA@20    100e373a f   gdi32:GDI32.dll
 0002:0005c740       _GetSaveFileNameA@4        100e3740 f   comdlg32:comdlg32.dll
 0002:0005c746       _GetOpenFileNameA@4        100e3746 f   comdlg32:comdlg32.dll
 0002:0005c74c       _GetFileTitleA@12          100e374c f   comdlg32:comdlg32.dll
 0002:0005c752       _ChooseColorA@4            100e3752 f   comdlg32:comdlg32.dll
 0002:0005c758       _ReplaceTextA@4            100e3758 f   comdlg32:comdlg32.dll
 0002:0005c75e       _FindTextA@4               100e375e f   comdlg32:comdlg32.dll
 0002:0005c764       _PageSetupDlgA@4           100e3764 f   comdlg32:comdlg32.dll
 0002:0005c76a       _PrintDlgA@4               100e376a f   comdlg32:comdlg32.dll
 0002:0005c770       _CommDlgExtendedError@0    100e3770 f   comdlg32:comdlg32.dll
 0002:0005c776       _ClosePrinter@4            100e3776 f   winspool:WINSPOOL.DRV
 0002:0005c77c       _DocumentPropertiesA@24    100e377c f   winspool:WINSPOOL.DRV
 0002:0005c782       _OpenPrinterA@12           100e3782 f   winspool:WINSPOOL.DRV
 0002:0005c788       _GetJobA@24                100e3788 f   winspool:WINSPOOL.DRV
 0002:0005c78e       _RegCloseKey@4             100e378e f   advapi32:ADVAPI32.dll
 0002:0005c794       _RegSetValueA@20           100e3794 f   advapi32:ADVAPI32.dll
 0002:0005c79a       _RegOpenKeyA@12            100e379a f   advapi32:ADVAPI32.dll
 0002:0005c7a0       _RegQueryValueExA@24       100e37a0 f   advapi32:ADVAPI32.dll
 0002:0005c7a6       _RegOpenKeyExA@20          100e37a6 f   advapi32:ADVAPI32.dll
 0002:0005c7ac       _RegQueryValueA@16         100e37ac f   advapi32:ADVAPI32.dll
 0002:0005c7b2       _RegEnumKeyA@16            100e37b2 f   advapi32:ADVAPI32.dll
 0002:0005c7b8       _RegDeleteKeyA@8           100e37b8 f   advapi32:ADVAPI32.dll
 0002:0005c7be       _RegCreateKeyExA@36        100e37be f   advapi32:ADVAPI32.dll
 0002:0005c7c4       _RegSetValueExA@24         100e37c4 f   advapi32:ADVAPI32.dll
 0002:0005c7ca       _RegDeleteValueA@8         100e37ca f   advapi32:ADVAPI32.dll
 0002:0005c7d0       _RegCreateKeyA@12          100e37d0 f   advapi32:ADVAPI32.dll
 0002:0005c7d6       _SetFileSecurityA@12       100e37d6 f   advapi32:ADVAPI32.dll
 0002:0005c7dc       _GetFileSecurityA@20       100e37dc f   advapi32:ADVAPI32.dll
 0002:0005c7e2       _DragAcceptFiles@8         100e37e2 f   shell32:SHELL32.dll
 0002:0005c7e8       _DragFinish@4              100e37e8 f   shell32:SHELL32.dll
 0002:0005c7ee       _DragQueryFileA@16         100e37ee f   shell32:SHELL32.dll
 0002:0005c7f4       _SHGetFileInfoA@20         100e37f4 f   shell32:SHELL32.dll
 0002:0005c7fa       _ExtractIconA@12           100e37fa f   shell32:SHELL32.dll
 0002:0005c800       _CreateMappedBitmap@20     100e3800 f   comctl32:COMCTL32.dll
 0002:0005c806       _InitCommonControls@0      100e3806 f   comctl32:COMCTL32.dll
 0002:0005c80c       _PropertySheetA@4          100e380c f   comctl32:COMCTL32.dll
 0002:0005c812       _DestroyPropertySheetPage@4 100e3812 f   comctl32:COMCTL32.dll
 0002:0005c818       _CreatePropertySheetPageA@4 100e3818 f   comctl32:COMCTL32.dll
 0002:0005c81e       _MakeDragList@4            100e381e f   comctl32:COMCTL32.dll
 0002:0005c824       _ImageList_Destroy@4       100e3824 f   comctl32:COMCTL32.dll
 0002:0005c82a       _ImageList_Create@20       100e382a f   comctl32:COMCTL32.dll
 0002:0005c830       _ImageList_LoadImageA@28   100e3830 f   comctl32:COMCTL32.dll
 0002:0005c836       _ImageList_Merge@24        100e3836 f   comctl32:COMCTL32.dll
 0002:0005c83c       _ImageList_Read@4          100e383c f   comctl32:COMCTL32.dll
 0002:0005c842       _ImageList_Write@8         100e3842 f   comctl32:COMCTL32.dll
 0002:0005c848       _LBItemFromPt@16           100e3848 f   comctl32:COMCTL32.dll
 0002:0005c84e       _ImageList_GetImageCount@4 100e384e f   comctl32:COMCTL32.dll
 0002:0005c854       _ImageList_Add@12          100e3854 f   comctl32:COMCTL32.dll
 0002:0005c85a       _ImageList_AddMasked@12    100e385a f   comctl32:COMCTL32.dll
 0002:0005c860       _ImageList_Remove@8        100e3860 f   comctl32:COMCTL32.dll
 0002:0005c866       _ImageList_Replace@16      100e3866 f   comctl32:COMCTL32.dll
 0002:0005c86c       _ImageList_ReplaceIcon@12  100e386c f   comctl32:COMCTL32.dll
 0002:0005c872       _ImageList_GetIcon@12      100e3872 f   comctl32:COMCTL32.dll
 0002:0005c878       _ImageList_Draw@24         100e3878 f   comctl32:COMCTL32.dll
 0002:0005c87e       _ImageList_DrawEx@40       100e387e f   comctl32:COMCTL32.dll
 0002:0005c884       _ImageList_SetBkColor@8    100e3884 f   comctl32:COMCTL32.dll
 0002:0005c88a       _ImageList_GetBkColor@4    100e388a f   comctl32:COMCTL32.dll
 0002:0005c890       _ImageList_SetOverlayImage@12 100e3890 f   comctl32:COMCTL32.dll
 0002:0005c896       _ImageList_GetImageInfo@12 100e3896 f   comctl32:COMCTL32.dll
 0002:0005c89c       _ImageList_BeginDrag@16    100e389c f   comctl32:COMCTL32.dll
 0002:0005c8a2       _ImageList_EndDrag@0       100e38a2 f   comctl32:COMCTL32.dll
 0002:0005c8a8       _ImageList_DragMove@8      100e38a8 f   comctl32:COMCTL32.dll
 0002:0005c8ae       _ImageList_SetDragCursorImage@16 100e38ae f   comctl32:COMCTL32.dll
 0002:0005c8b4       _ImageList_DragShowNolock@4 100e38b4 f   comctl32:COMCTL32.dll
 0002:0005c8ba       _ImageList_GetDragImage@8  100e38ba f   comctl32:COMCTL32.dll
 0002:0005c8c0       _ImageList_DragEnter@12    100e38c0 f   comctl32:COMCTL32.dll
 0002:0005c8c6       _ImageList_DragLeave@4     100e38c6 f   comctl32:COMCTL32.dll
 0002:0005c8cc       _ImageList_SetImageCount@8 100e38cc f   comctl32:COMCTL32.dll
 0002:0005c8d2       _ImageList_Copy@20         100e38d2 f   comctl32:COMCTL32.dll
 0002:0005c8d8       _PathFindExtensionA@4      100e38d8 f   shlwapi:SHLWAPI.dll
 0002:0005c8de       _PathRemoveExtensionA@4    100e38de f   shlwapi:SHLWAPI.dll
 0002:0005c8e4       _PathFindFileNameA@4       100e38e4 f   shlwapi:SHLWAPI.dll
 0002:0005c8ea       _PathIsUNCA@4              100e38ea f   shlwapi:SHLWAPI.dll
 0002:0005c8f0       _PathStripToRootA@4        100e38f0 f   shlwapi:SHLWAPI.dll
 0002:0005c8f6       _OleDuplicateData@12       100e38f6 f   ole32:ole32.dll
 0002:0005c8fc       _CoTaskMemAlloc@4          100e38fc f   ole32:ole32.dll
 0002:0005c902       _CreateBindCtx@8           100e3902 f   ole32:ole32.dll
 0002:0005c908       _CoTaskMemFree@4           100e3908 f   ole32:ole32.dll
 0002:0005c90e       _SetConvertStg@8           100e390e f   ole32:ole32.dll
 0002:0005c914       _WriteFmtUserTypeStg@12    100e3914 f   ole32:ole32.dll
 0002:0005c91a       _WriteClassStg@8           100e391a f   ole32:ole32.dll
 0002:0005c920       _OleRegGetUserType@12      100e3920 f   ole32:ole32.dll
 0002:0005c926       _ReadFmtUserTypeStg@12     100e3926 f   ole32:ole32.dll
 0002:0005c92c       _ReadClassStg@8            100e392c f   ole32:ole32.dll
 0002:0005c932       _StringFromCLSID@8         100e3932 f   ole32:ole32.dll
 0002:0005c938       _CoTreatAsClass@8          100e3938 f   ole32:ole32.dll
 0002:0005c93e       _ReleaseStgMedium@4        100e393e f   ole32:ole32.dll
 0002:0005c944       _CoRegisterClassObject@20  100e3944 f   ole32:ole32.dll
 0002:0005c94a       _CoRevokeClassObject@4     100e394a f   ole32:ole32.dll
 0002:0005c950       _CoDisconnectObject@8      100e3950 f   ole32:ole32.dll
 0002:0005c956       _CoCreateInstance@20       100e3956 f   ole32:ole32.dll
 0002:0005c95c       _StringFromGUID2@12        100e395c f   ole32:ole32.dll
 0002:0005c962       _CLSIDFromString@8         100e3962 f   ole32:ole32.dll
 0002:0005c968       _CLSIDFromProgID@8         100e3968 f   ole32:ole32.dll
 0002:0005c96e       _OleRun@4                  100e396e f   ole32:ole32.dll
 0002:0005c974       _VariantClear@4            100e3974 f   oleaut32:OLEAUT32.dll
 0002:0005c97a       _VariantChangeType@16      100e397a f   oleaut32:OLEAUT32.dll
 0002:0005c980       _VariantInit@4             100e3980 f   oleaut32:OLEAUT32.dll
 0002:0005c986       _SysAllocStringLen@8       100e3986 f   oleaut32:OLEAUT32.dll
 0002:0005c98c       _SysFreeString@4           100e398c f   oleaut32:OLEAUT32.dll
 0002:0005c992       _SysStringLen@4            100e3992 f   oleaut32:OLEAUT32.dll
 0002:0005c998       _SysAllocStringByteLen@8   100e3998 f   oleaut32:OLEAUT32.dll
 0002:0005c99e       _SysStringByteLen@4        100e399e f   oleaut32:OLEAUT32.dll
 0002:0005c9a4       _SafeArrayGetDim@4         100e39a4 f   oleaut32:OLEAUT32.dll
 0002:0005c9aa       _SafeArrayGetElemsize@4    100e39aa f   oleaut32:OLEAUT32.dll
 0002:0005c9b0       _SafeArrayUnaccessData@4   100e39b0 f   oleaut32:OLEAUT32.dll
 0002:0005c9b6       _SafeArrayAccessData@8     100e39b6 f   oleaut32:OLEAUT32.dll
 0002:0005c9bc       _SafeArrayGetUBound@12     100e39bc f   oleaut32:OLEAUT32.dll
 0002:0005c9c2       _SafeArrayGetLBound@12     100e39c2 f   oleaut32:OLEAUT32.dll
 0002:0005c9c8       _SafeArrayRedim@8          100e39c8 f   oleaut32:OLEAUT32.dll
 0002:0005c9ce       _SafeArrayCreate@12        100e39ce f   oleaut32:OLEAUT32.dll
 0002:0005c9d4       _VariantCopy@8             100e39d4 f   oleaut32:OLEAUT32.dll
 0002:0005c9da       _SysAllocString@4          100e39da f   oleaut32:OLEAUT32.dll
 0002:0005c9e0       _SysReAllocStringLen@12    100e39e0 f   oleaut32:OLEAUT32.dll
 0002:0005c9e6       _VarCyFromStr@16           100e39e6 f   oleaut32:OLEAUT32.dll
 0002:0005c9ec       _VarBstrFromCy@20          100e39ec f   oleaut32:OLEAUT32.dll
 0002:0005c9f2       _SafeArrayCopy@8           100e39f2 f   oleaut32:OLEAUT32.dll
 0002:0005c9f8       _SafeArrayAllocData@4      100e39f8 f   oleaut32:OLEAUT32.dll
 0002:0005c9fe       _SafeArrayAllocDescriptor@8 100e39fe f   oleaut32:OLEAUT32.dll
 0002:0005ca04       _SafeArrayGetElement@12    100e3a04 f   oleaut32:OLEAUT32.dll
 0002:0005ca0a       _SafeArrayPtrOfIndex@12    100e3a0a f   oleaut32:OLEAUT32.dll
 0002:0005ca10       _SafeArrayPutElement@12    100e3a10 f   oleaut32:OLEAUT32.dll
 0002:0005ca16       _SafeArrayLock@4           100e3a16 f   oleaut32:OLEAUT32.dll
 0002:0005ca1c       _SafeArrayUnlock@4         100e3a1c f   oleaut32:OLEAUT32.dll
 0002:0005ca22       _SafeArrayDestroy@4        100e3a22 f   oleaut32:OLEAUT32.dll
 0002:0005ca28       _SafeArrayDestroyData@4    100e3a28 f   oleaut32:OLEAUT32.dll
 0002:0005ca2e       _SafeArrayDestroyDescriptor@4 100e3a2e f   oleaut32:OLEAUT32.dll
 0002:0005ca34       _VarBstrFromDec@16         100e3a34 f   oleaut32:OLEAUT32.dll
 0002:0005ca3a       _VarDecFromStr@16          100e3a3a f   oleaut32:OLEAUT32.dll
 0002:0005ca40       _VarDateFromStr@16         100e3a40 f   oleaut32:OLEAUT32.dll
 0002:0005ca46       _VarBstrFromDate@20        100e3a46 f   oleaut32:OLEAUT32.dll
 0002:0005ca4c       _LoadTypeLib@8             100e3a4c f   oleaut32:OLEAUT32.dll
 0002:0005ca52       _VerQueryValueA@16         100e3a52 f   version:VERSION.dll
 0002:0005ca58       _GetFileVersionInfoA@16    100e3a58 f   version:VERSION.dll
 0002:0005ca5e       _GetFileVersionInfoSizeA@8 100e3a5e f   version:VERSION.dll
 0002:0005ca70       ??0CAtlAllocator@@QAE@XZ   100e3a70 f i atlsd:Externs.obj
 0002:0005cad0       ??0CTraceSnapshot@@QAE@XZ  100e3ad0 f i atlsd:Externs.obj
 0002:0005cb00       ??0?$CSimpleArray@UCModuleInfo@CTraceSnapshot@@V?$CSimpleArrayEqualHelper@UCModuleInfo@CTraceSnapshot@@@ATL@@@ATL@@QAE@XZ 100e3b00 f i atlsd:Externs.obj
 0002:0005cb40       ??0?$CSimpleArray@KV?$CSimpleArrayEqualHelper@K@ATL@@@ATL@@QAE@XZ 100e3b40 f i atlsd:Externs.obj
 0002:0005cc80       ??0CAtlException@ATL@@QAE@J@Z 100e3c80 f i atlsd:Externs.obj
 0002:0005cca0       ??0CTrace@ATL@@AAE@P6AHHPBDH00ZZ@Z 100e3ca0 f i atlsd:Externs.obj
 0002:0005ccf0       ??1CAtlAllocator@@QAE@XZ   100e3cf0 f i atlsd:Externs.obj
 0002:0005cd20       ??1CTraceSnapshot@@QAE@XZ  100e3d20 f i atlsd:Externs.obj
 0002:0005cd50       ??1?$CSimpleArray@UCModuleInfo@CTraceSnapshot@@V?$CSimpleArrayEqualHelper@UCModuleInfo@CTraceSnapshot@@@ATL@@@ATL@@QAE@XZ 100e3d50 f i atlsd:Externs.obj
 0002:0005cd70       ??1?$CSimpleArray@KV?$CSimpleArrayEqualHelper@K@ATL@@@ATL@@QAE@XZ 100e3d70 f i atlsd:Externs.obj
 0002:0005cd90       ?RemoveAll@?$CSimpleArray@UCModuleInfo@CTraceSnapshot@@V?$CSimpleArrayEqualHelper@UCModuleInfo@CTraceSnapshot@@@ATL@@@ATL@@QAEXXZ 100e3d90 f i atlsd:Externs.obj
 0002:0005ce10       ?RemoveAll@?$CSimpleArray@KV?$CSimpleArrayEqualHelper@K@ATL@@@ATL@@QAEXXZ 100e3e10 f i atlsd:Externs.obj
 0002:0005ce90       ??1CTrace@ATL@@AAE@XZ      100e3e90 f i atlsd:Externs.obj
 0002:0005ceb0       ?NotifyTool@ATL@@YGXXZ     100e3eb0 f   atlsd:AtlDebugAPI.obj
 0002:0005cef0       _AtlTraceRegister@8        100e3ef0 f   atlsd:AtlDebugAPI.obj
 0002:0005cf60       _AtlTraceUnregister@4      100e3f60 f   atlsd:AtlDebugAPI.obj
 0002:0005cf90       _AtlTraceRegisterCategoryA@8 100e3f90 f   atlsd:AtlDebugAPI.obj
 0002:0005d030       _AtlTraceRegisterCategoryU@8 100e4030 f   atlsd:AtlDebugAPI.obj
 0002:0005d070       _AtlTraceModifyProcess@20  100e4070 f   atlsd:AtlDebugAPI.obj
 0002:0005d110       _AtlTraceModifyModule@16   100e4110 f   atlsd:AtlDebugAPI.obj
 0002:0005d1f0       _AtlTraceModifyCategory@16 100e41f0 f   atlsd:AtlDebugAPI.obj
 0002:0005d2a0       _AtlTraceGetProcess@20     100e42a0 f   atlsd:AtlDebugAPI.obj
 0002:0005d350       _AtlTraceGetModule@16      100e4350 f   atlsd:AtlDebugAPI.obj
 0002:0005d440       _AtlTraceGetCategory@16    100e4440 f   atlsd:AtlDebugAPI.obj
 0002:0005d500       _AtlTraceGetUpdateEventNameA@4 100e4500 f   atlsd:AtlDebugAPI.obj
 0002:0005d530       _AtlTraceGetUpdateEventNameU@4 100e4530 f   atlsd:AtlDebugAPI.obj
 0002:0005d5d0       _AtlTraceVA                100e45d0 f   atlsd:AtlDebugAPI.obj
 0002:0005d790       _AtlTraceVU                100e4790 f   atlsd:AtlDebugAPI.obj
 0002:0005d950       _AtlTraceOpenProcess@4     100e4950 f   atlsd:AtlDebugAPI.obj
 0002:0005da00       _AtlTraceCloseProcess@4    100e4a00 f   atlsd:AtlDebugAPI.obj
 0002:0005da50       _AtlTraceSnapshotProcess@4 100e4a50 f   atlsd:AtlDebugAPI.obj
 0002:0005da70       _AtlTraceGetProcessInfo@8  100e4a70 f   atlsd:AtlDebugAPI.obj
 0002:0005dbc0       _AtlTraceGetModuleInfo@12  100e4bc0 f   atlsd:AtlDebugAPI.obj
 0002:0005dd00       _AtlTraceGetCategoryInfo@16 100e4d00 f   atlsd:AtlDebugAPI.obj
 0002:0005e490       ?GetProcess@CAtlAllocator@@QBEPAVCAtlTraceProcess@@XZ 100e5490 f i atlsd:AtlDebugAPI.obj
 0002:0005e4b0       ?Name@CAtlTraceCategory@@QBEPBGXZ 100e54b0 f i atlsd:AtlDebugAPI.obj
 0002:0005e4d0       ??_GCAtlAllocator@@QAEPAXI@Z 100e54d0 f i atlsd:AtlDebugAPI.obj
 0002:0005e510       ?Path@CAtlTraceModuleInfo@@QBEPBGXZ 100e5510 f i atlsd:AtlDebugAPI.obj
 0002:0005e530       ?Name@CAtlTraceModuleInfo@@QBEPBGXZ 100e5530 f i atlsd:AtlDebugAPI.obj
 0002:0005e550       ?Id@CAtlTraceProcess@@QBEKXZ 100e5550 f i atlsd:AtlDebugAPI.obj
 0002:0005e570       ?AtlA2WHelper@@YGPAGPAGPBDHI@Z 100e5570 f i atlsd:AtlDebugAPI.obj
 0002:0005e660       ?CrtDbgReport@CAtlTraceModule@@QBEP6AHHPBDH00ZZXZ 100e5660 f i atlsd:AtlDebugAPI.obj
 0002:0005e680       ?GetSize@?$CSimpleArray@UCModuleInfo@CTraceSnapshot@@V?$CSimpleArrayEqualHelper@UCModuleInfo@CTraceSnapshot@@@ATL@@@ATL@@QBEHXZ 100e5680 f i atlsd:AtlDebugAPI.obj
 0002:0005e6a0       ??A?$CSimpleArray@UCModuleInfo@CTraceSnapshot@@V?$CSimpleArrayEqualHelper@UCModuleInfo@CTraceSnapshot@@@ATL@@@ATL@@QAEAAUCModuleInfo@CTraceSnapshot@@H@Z 100e56a0 f i atlsd:AtlDebugAPI.obj
 0002:0005e720       ??0CSize@@QAE@XZ           100e5720 f   atlsd:atltypes.obj
 0002:0005e730       ??0CSize@@QAE@HH@Z         100e5730 f   atlsd:atltypes.obj
 0002:0005e760       ??0CSize@@QAE@UtagSIZE@@@Z 100e5760 f   atlsd:atltypes.obj
 0002:0005e780       ??0CSize@@QAE@UtagPOINT@@@Z 100e5780 f   atlsd:atltypes.obj
 0002:0005e7a0       ??0CSize@@QAE@K@Z          100e57a0 f   atlsd:atltypes.obj
 0002:0005e7d0       ??8CSize@@QBEHUtagSIZE@@@Z 100e57d0 f   atlsd:atltypes.obj
 0002:0005e810       ??9CSize@@QBEHUtagSIZE@@@Z 100e5810 f   atlsd:atltypes.obj
 0002:0005e850       ??YCSize@@QAEXUtagSIZE@@@Z 100e5850 f   atlsd:atltypes.obj
 0002:0005e880       ??ZCSize@@QAEXUtagSIZE@@@Z 100e5880 f   atlsd:atltypes.obj
 0002:0005e8b0       ?SetSize@CSize@@QAEXHH@Z   100e58b0 f   atlsd:atltypes.obj
 0002:0005e8d0       ??HCSize@@QBE?AV0@UtagSIZE@@@Z 100e58d0 f   atlsd:atltypes.obj
 0002:0005e900       ??GCSize@@QBE?AV0@UtagSIZE@@@Z 100e5900 f   atlsd:atltypes.obj
 0002:0005e930       ??GCSize@@QBE?AV0@XZ       100e5930 f   atlsd:atltypes.obj
 0002:0005e960       ??HCSize@@QBE?AVCPoint@@UtagPOINT@@@Z 100e5960 f   atlsd:atltypes.obj
 0002:0005e990       ??GCSize@@QBE?AVCPoint@@UtagPOINT@@@Z 100e5990 f   atlsd:atltypes.obj
 0002:0005e9c0       ??HCSize@@QBE?AVCRect@@PBUtagRECT@@@Z 100e59c0 f   atlsd:atltypes.obj
 0002:0005ea00       ??GCSize@@QBE?AVCRect@@PBUtagRECT@@@Z 100e5a00 f   atlsd:atltypes.obj
 0002:0005ea40       ??0CPoint@@QAE@XZ          100e5a40 f   atlsd:atltypes.obj
 0002:0005ea50       ??0CPoint@@QAE@HH@Z        100e5a50 f   atlsd:atltypes.obj
 0002:0005ea80       ??0CPoint@@QAE@UtagPOINT@@@Z 100e5a80 f   atlsd:atltypes.obj
 0002:0005eaa0       ??0CPoint@@QAE@UtagSIZE@@@Z 100e5aa0 f   atlsd:atltypes.obj
 0002:0005eac0       ??0CPoint@@QAE@J@Z         100e5ac0 f   atlsd:atltypes.obj
 0002:0005eaf0       ?Offset@CPoint@@QAEXHH@Z   100e5af0 f   atlsd:atltypes.obj
 0002:0005eb20       ?Offset@CPoint@@QAEXUtagPOINT@@@Z 100e5b20 f   atlsd:atltypes.obj
 0002:0005eb50       ?Offset@CPoint@@QAEXUtagSIZE@@@Z 100e5b50 f   atlsd:atltypes.obj
 0002:0005eb80       ?SetPoint@CPoint@@QAEXHH@Z 100e5b80 f   atlsd:atltypes.obj
 0002:0005eba0       ??8CPoint@@QBEHUtagPOINT@@@Z 100e5ba0 f   atlsd:atltypes.obj
 0002:0005ebe0       ??9CPoint@@QBEHUtagPOINT@@@Z 100e5be0 f   atlsd:atltypes.obj
 0002:0005ec20       ??YCPoint@@QAEXUtagSIZE@@@Z 100e5c20 f   atlsd:atltypes.obj
 0002:0005ec50       ??ZCPoint@@QAEXUtagSIZE@@@Z 100e5c50 f   atlsd:atltypes.obj
 0002:0005ec80       ??YCPoint@@QAEXUtagPOINT@@@Z 100e5c80 f   atlsd:atltypes.obj
 0002:0005ecb0       ??ZCPoint@@QAEXUtagPOINT@@@Z 100e5cb0 f   atlsd:atltypes.obj
 0002:0005ece0       ??HCPoint@@QBE?AV0@UtagSIZE@@@Z 100e5ce0 f   atlsd:atltypes.obj
 0002:0005ed10       ??GCPoint@@QBE?AV0@UtagSIZE@@@Z 100e5d10 f   atlsd:atltypes.obj
 0002:0005ed40       ??GCPoint@@QBE?AV0@XZ      100e5d40 f   atlsd:atltypes.obj
 0002:0005ed70       ??HCPoint@@QBE?AV0@UtagPOINT@@@Z 100e5d70 f   atlsd:atltypes.obj
 0002:0005eda0       ??GCPoint@@QBE?AVCSize@@UtagPOINT@@@Z 100e5da0 f   atlsd:atltypes.obj
 0002:0005edd0       ??HCPoint@@QBE?AVCRect@@PBUtagRECT@@@Z 100e5dd0 f   atlsd:atltypes.obj
 0002:0005ee10       ??GCPoint@@QBE?AVCRect@@PBUtagRECT@@@Z 100e5e10 f   atlsd:atltypes.obj
 0002:0005ee50       ??0CRect@@QAE@XZ           100e5e50 f   atlsd:atltypes.obj
 0002:0005ee60       ??0CRect@@QAE@HHHH@Z       100e5e60 f   atlsd:atltypes.obj
 0002:0005eea0       ??0CRect@@QAE@ABUtagRECT@@@Z 100e5ea0 f   atlsd:atltypes.obj
 0002:0005eec0       ??0CRect@@QAE@PBUtagRECT@@@Z 100e5ec0 f   atlsd:atltypes.obj
 0002:0005eee0       ??0CRect@@QAE@UtagPOINT@@UtagSIZE@@@Z 100e5ee0 f   atlsd:atltypes.obj
 0002:0005ef20       ??0CRect@@QAE@UtagPOINT@@0@Z 100e5f20 f   atlsd:atltypes.obj
 0002:0005ef60       ?Width@CRect@@QBEHXZ       100e5f60 f   atlsd:atltypes.obj
 0002:0005ef80       ?Height@CRect@@QBEHXZ      100e5f80 f   atlsd:atltypes.obj
 0002:0005efa0       ?Size@CRect@@QBE?AVCSize@@XZ 100e5fa0 f   atlsd:atltypes.obj
 0002:0005efe0       ?TopLeft@CRect@@QAEAAVCPoint@@XZ 100e5fe0 f   atlsd:atltypes.obj
 0002:0005eff0       ?BottomRight@CRect@@QAEAAVCPoint@@XZ 100e5ff0 f   atlsd:atltypes.obj
 0002:0005f010       ?TopLeft@CRect@@QBEABVCPoint@@XZ 100e6010 f   atlsd:atltypes.obj
 0002:0005f020       ?BottomRight@CRect@@QBEABVCPoint@@XZ 100e6020 f   atlsd:atltypes.obj
 0002:0005f040       ?CenterPoint@CRect@@QBE?AVCPoint@@XZ 100e6040 f   atlsd:atltypes.obj
 0002:0005f080       ?SwapLeftRight@CRect@@QAEXXZ 100e6080 f   atlsd:atltypes.obj
 0002:0005f0a0       ?SwapLeftRight@CRect@@SGXPAUtagRECT@@@Z 100e60a0 f   atlsd:atltypes.obj
 0002:0005f0d0       ??BCRect@@QAEPAUtagRECT@@XZ 100e60d0 f   atlsd:atltypes.obj
 0002:0005f0e0       ??BCRect@@QBEPBUtagRECT@@XZ 100e60e0 f   atlsd:atltypes.obj
 0002:0005f0f0       ?IsRectEmpty@CRect@@QBEHXZ 100e60f0 f   atlsd:atltypes.obj
 0002:0005f110       ?IsRectNull@CRect@@QBEHXZ  100e6110 f   atlsd:atltypes.obj
 0002:0005f160       ?PtInRect@CRect@@QBEHUtagPOINT@@@Z 100e6160 f   atlsd:atltypes.obj
 0002:0005f180       ?SetRect@CRect@@QAEXHHHH@Z 100e6180 f   atlsd:atltypes.obj
 0002:0005f1b0       ?SetRect@CRect@@QAEXUtagPOINT@@0@Z 100e61b0 f   atlsd:atltypes.obj
 0002:0005f1e0       ?SetRectEmpty@CRect@@QAEXXZ 100e61e0 f   atlsd:atltypes.obj
 0002:0005f200       ?CopyRect@CRect@@QAEXPBUtagRECT@@@Z 100e6200 f   atlsd:atltypes.obj
 0002:0005f220       ?EqualRect@CRect@@QBEHPBUtagRECT@@@Z 100e6220 f   atlsd:atltypes.obj
 0002:0005f240       ?InflateRect@CRect@@QAEXHH@Z 100e6240 f   atlsd:atltypes.obj
 0002:0005f260       ?InflateRect@CRect@@QAEXUtagSIZE@@@Z 100e6260 f   atlsd:atltypes.obj
 0002:0005f280       ?DeflateRect@CRect@@QAEXHH@Z 100e6280 f   atlsd:atltypes.obj
 0002:0005f2b0       ?DeflateRect@CRect@@QAEXUtagSIZE@@@Z 100e62b0 f   atlsd:atltypes.obj
 0002:0005f2e0       ?OffsetRect@CRect@@QAEXHH@Z 100e62e0 f   atlsd:atltypes.obj
 0002:0005f300       ?OffsetRect@CRect@@QAEXUtagPOINT@@@Z 100e6300 f   atlsd:atltypes.obj
 0002:0005f320       ?OffsetRect@CRect@@QAEXUtagSIZE@@@Z 100e6320 f   atlsd:atltypes.obj
 0002:0005f340       ?MoveToY@CRect@@QAEXH@Z    100e6340 f   atlsd:atltypes.obj
 0002:0005f370       ?MoveToX@CRect@@QAEXH@Z    100e6370 f   atlsd:atltypes.obj
 0002:0005f3a0       ?MoveToXY@CRect@@QAEXHH@Z  100e63a0 f   atlsd:atltypes.obj
 0002:0005f3d0       ?MoveToXY@CRect@@QAEXUtagPOINT@@@Z 100e63d0 f   atlsd:atltypes.obj
 0002:0005f400       ?IntersectRect@CRect@@QAEHPBUtagRECT@@0@Z 100e6400 f   atlsd:atltypes.obj
 0002:0005f420       ?UnionRect@CRect@@QAEHPBUtagRECT@@0@Z 100e6420 f   atlsd:atltypes.obj
 0002:0005f440       ??4CRect@@QAEXABUtagRECT@@@Z 100e6440 f   atlsd:atltypes.obj
 0002:0005f460       ??8CRect@@QBEHABUtagRECT@@@Z 100e6460 f   atlsd:atltypes.obj
 0002:0005f480       ??9CRect@@QBEHABUtagRECT@@@Z 100e6480 f   atlsd:atltypes.obj
 0002:0005f4a0       ??YCRect@@QAEXUtagPOINT@@@Z 100e64a0 f   atlsd:atltypes.obj
 0002:0005f4c0       ??YCRect@@QAEXUtagSIZE@@@Z 100e64c0 f   atlsd:atltypes.obj
 0002:0005f4e0       ??YCRect@@QAEXPBUtagRECT@@@Z 100e64e0 f   atlsd:atltypes.obj
 0002:0005f500       ??ZCRect@@QAEXUtagPOINT@@@Z 100e6500 f   atlsd:atltypes.obj
 0002:0005f530       ??ZCRect@@QAEXUtagSIZE@@@Z 100e6530 f   atlsd:atltypes.obj
 0002:0005f560       ??ZCRect@@QAEXPBUtagRECT@@@Z 100e6560 f   atlsd:atltypes.obj
 0002:0005f580       ??_4CRect@@QAEXABUtagRECT@@@Z 100e6580 f   atlsd:atltypes.obj
 0002:0005f5a0       ??_5CRect@@QAEXABUtagRECT@@@Z 100e65a0 f   atlsd:atltypes.obj
 0002:0005f5c0       ??HCRect@@QBE?AV0@UtagPOINT@@@Z 100e65c0 f   atlsd:atltypes.obj
 0002:0005f620       ??GCRect@@QBE?AV0@UtagPOINT@@@Z 100e6620 f   atlsd:atltypes.obj
 0002:0005f680       ??HCRect@@QBE?AV0@UtagSIZE@@@Z 100e6680 f   atlsd:atltypes.obj
 0002:0005f6e0       ??GCRect@@QBE?AV0@UtagSIZE@@@Z 100e66e0 f   atlsd:atltypes.obj
 0002:0005f740       ??HCRect@@QBE?AV0@PBUtagRECT@@@Z 100e6740 f   atlsd:atltypes.obj
 0002:0005f790       ??GCRect@@QBE?AV0@PBUtagRECT@@@Z 100e6790 f   atlsd:atltypes.obj
 0002:0005f7e0       ??ICRect@@QBE?AV0@ABUtagRECT@@@Z 100e67e0 f   atlsd:atltypes.obj
 0002:0005f830       ??UCRect@@QBE?AV0@ABUtagRECT@@@Z 100e6830 f   atlsd:atltypes.obj
 0002:0005f880       ?SubtractRect@CRect@@QAEHPBUtagRECT@@0@Z 100e6880 f   atlsd:atltypes.obj
 0002:0005f8a0       ?NormalizeRect@CRect@@QAEXXZ 100e68a0 f   atlsd:atltypes.obj
 0002:0005f910       ?InflateRect@CRect@@QAEXPBUtagRECT@@@Z 100e6910 f   atlsd:atltypes.obj
 0002:0005f970       ?InflateRect@CRect@@QAEXHHHH@Z 100e6970 f   atlsd:atltypes.obj
 0002:0005f9c0       ?DeflateRect@CRect@@QAEXPBUtagRECT@@@Z 100e69c0 f   atlsd:atltypes.obj
 0002:0005fa20       ?DeflateRect@CRect@@QAEXHHHH@Z 100e6a20 f   atlsd:atltypes.obj
 0002:0005fa70       ?MulDiv@CRect@@QBE?AV1@HH@Z 100e6a70 f   atlsd:atltypes.obj
 0002:0005ffd0       ?AtlAdvise@ATL@@YGJPAUIUnknown@@0ABU_GUID@@PAK@Z 100e6fd0 f   atlsd:atlfuncs.obj
 0002:00060090       ?AtlUnadvise@ATL@@YGJPAUIUnknown@@ABU_GUID@@K@Z 100e7090 f   atlsd:atlfuncs.obj
 0002:00060150       ?AtlFreeMarshalStream@ATL@@YGJPAUIStream@@@Z 100e7150 f   atlsd:atlfuncs.obj
 0002:000601a0       ?AtlMarshalPtrInProc@ATL@@YGJPAUIUnknown@@ABU_GUID@@PAPAUIStream@@@Z 100e71a0 f   atlsd:atlfuncs.obj
 0002:00060240       ?AtlUnmarshalPtr@ATL@@YGJPAUIStream@@ABU_GUID@@PAPAUIUnknown@@@Z 100e7240 f   atlsd:atlfuncs.obj
 0002:000602e0       ?AtlComModuleGetClassObject@ATL@@YGJPAU_ATL_COM_MODULE70@1@ABU_GUID@@1PAPAX@Z 100e72e0 f   atlsd:atlfuncs.obj
 0002:000604b0       ?AtlComModuleRegisterClassObjects@ATL@@YGJPAU_ATL_COM_MODULE70@1@KK@Z 100e74b0 f   atlsd:atlfuncs.obj
 0002:00060540       ?AtlComModuleRevokeClassObjects@ATL@@YGJPAU_ATL_COM_MODULE70@1@@Z 100e7540 f   atlsd:atlfuncs.obj
 0002:000605d0       ?AtlWaitWithMessageLoop@ATL@@YGHPAX@Z 100e75d0 f   atlsd:atlfuncs.obj
 0002:000606c0       ?AtlInternalQueryInterface@ATL@@YGJPAXPBU_ATL_INTMAP_ENTRY@1@ABU_GUID@@PAPAX@Z 100e76c0 f   atlsd:atlfuncs.obj
 0002:00060880       ?AtlGetVersion@ATL@@YGKPAX@Z 100e7880 f   atlsd:atlfuncs.obj
 0002:00060890       ?AtlWinModuleAddCreateWndData@ATL@@YGXPAU_ATL_WIN_MODULE70@1@PAU_AtlCreateWndData@1@PAX@Z 100e7890 f   atlsd:atlfuncs.obj
 0002:000609a0       ?AtlWinModuleExtractCreateWndData@ATL@@YGPAXPAU_ATL_WIN_MODULE70@1@@Z 100e79a0 f   atlsd:atlfuncs.obj
 0002:00060ac0       ?AtlWinModuleInit@ATL@@YGJPAU_ATL_WIN_MODULE70@1@@Z 100e7ac0 f   atlsd:atlfuncs.obj
 0002:00060b60       ?AtlModuleAddTermFunc@ATL@@YGJPAU_ATL_MODULE70@1@P6GXK@ZK@Z 100e7b60 f   atlsd:atlfuncs.obj
 0002:00060c70       ?AtlCallTermFunc@ATL@@YGXPAU_ATL_MODULE70@1@@Z 100e7c70 f   atlsd:atlfuncs.obj
 0002:00060ce0       ?CComStdCallThunkHelper@ATL@@YGXXZ 100e7ce0 f   atlsd:atlfuncs.obj
 0002:00061040       ??1?$CComPtr@UIConnectionPointContainer@@@ATL@@QAE@XZ 100e8040 f i atlsd:atlfuncs.obj
 0002:00061060       ??1?$CComPtr@UIConnectionPoint@@@ATL@@QAE@XZ 100e8060 f i atlsd:atlfuncs.obj
 0002:00061080       _InlineIsEqualGUID         100e8080 f i atlsd:atlfuncs.obj
 0002:000610f0       ??0?$CComPtr@UIConnectionPointContainer@@@ATL@@QAE@XZ 100e80f0 f i atlsd:atlfuncs.obj
 0002:00061110       ??1?$CComPtrBase@UIConnectionPointContainer@@@ATL@@QAE@XZ 100e8110 f i atlsd:atlfuncs.obj
 0002:00061140       ??I?$CComPtrBase@UIConnectionPointContainer@@@ATL@@QAEPAPAUIConnectionPointContainer@@XZ 100e8140 f i atlsd:atlfuncs.obj
 0002:00061190       ??C?$CComPtrBase@UIConnectionPointContainer@@@ATL@@QBEPAV?$_NoAddRefReleaseOnCComPtr@UIConnectionPointContainer@@@1@XZ 100e8190 f i atlsd:atlfuncs.obj
 0002:000611e0       ??0?$CComPtr@UIConnectionPoint@@@ATL@@QAE@XZ 100e81e0 f i atlsd:atlfuncs.obj
 0002:00061200       ??1?$CComPtrBase@UIConnectionPoint@@@ATL@@QAE@XZ 100e8200 f i atlsd:atlfuncs.obj
 0002:00061230       ??I?$CComPtrBase@UIConnectionPoint@@@ATL@@QAEPAPAUIConnectionPoint@@XZ 100e8230 f i atlsd:atlfuncs.obj
 0002:00061280       ??C?$CComPtrBase@UIConnectionPoint@@@ATL@@QBEPAV?$_NoAddRefReleaseOnCComPtr@UIConnectionPoint@@@1@XZ 100e8280 f i atlsd:atlfuncs.obj
 0002:000612d0       ??0?$CComPtrBase@UIConnectionPointContainer@@@ATL@@IAE@XZ 100e82d0 f i atlsd:atlfuncs.obj
 0002:000612f0       ??0?$CComPtrBase@UIConnectionPoint@@@ATL@@IAE@XZ 100e82f0 f i atlsd:atlfuncs.obj
 0002:00061310       ?Init@CComCriticalSection@ATL@@QAEJXZ 100e8310 f i atlsd:atlfuncs.obj
 0002:000613d0       ?RevokeClassObject@_ATL_OBJMAP_ENTRY30@ATL@@QAGJXZ 100e83d0 f i atlsd:atlfuncs.obj
 0002:00061400       ?RegisterClassObject@_ATL_OBJMAP_ENTRY30@ATL@@QAGJKK@Z 100e8400 f i atlsd:atlfuncs.obj
 0002:000614a0       ?InlineIsEqualUnknown@ATL@@YGHABU_GUID@@@Z 100e84a0 f i atlsd:atlfuncs.obj
 0002:00061500       ??0?$CComCritSecLock@VCComCriticalSection@ATL@@@ATL@@QAE@AAVCComCriticalSection@1@_N@Z 100e8500 f i atlsd:atlfuncs.obj
 0002:00061560       ??1?$CComCritSecLock@VCComCriticalSection@ATL@@@ATL@@QAE@XZ 100e8560 f i atlsd:atlfuncs.obj
 0002:00061590       ?Unlock@?$CComCritSecLock@VCComCriticalSection@ATL@@@ATL@@QAEXXZ 100e8590 f i atlsd:atlfuncs.obj
 0002:000615f0       ?Unlock@CComCriticalSection@ATL@@QAEJXZ 100e85f0 f i atlsd:atlfuncs.obj
 0002:00061610       ?Lock@?$CComCritSecLock@VCComCriticalSection@ATL@@@ATL@@QAEJXZ 100e8610 f i atlsd:atlfuncs.obj
 0002:00061680       ?Lock@CComCriticalSection@ATL@@QAEJXZ 100e8680 f i atlsd:atlfuncs.obj
 0002:000616a0       ??0CAtlBaseModule@ATL@@QAE@XZ 100e86a0 f   atlsd:atlbase.obj
 0002:00061810       ??1CAtlBaseModule@ATL@@QAE@XZ 100e8810 f   atlsd:atlbase.obj
 0002:00061830       ?AddResourceInstance@CAtlBaseModule@ATL@@QAE_NPAUHINSTANCE__@@@Z 100e8830 f   atlsd:atlbase.obj
 0002:000618e0       ?RemoveResourceInstance@CAtlBaseModule@ATL@@QAE_NPAUHINSTANCE__@@@Z 100e88e0 f   atlsd:atlbase.obj
 0002:000619e0       ?GetHInstanceAt@CAtlBaseModule@ATL@@QAEPAUHINSTANCE__@@H@Z 100e89e0 f   atlsd:atlbase.obj
 0002:00061bf0       ??0_ATL_BASE_MODULE70@ATL@@QAE@XZ 100e8bf0 f i atlsd:atlbase.obj
 0002:00061c20       ??1_ATL_BASE_MODULE70@ATL@@QAE@XZ 100e8c20 f i atlsd:atlbase.obj
 0002:00061c40       ??0?$CSimpleArray@PAUHINSTANCE__@@V?$CSimpleArrayEqualHelper@PAUHINSTANCE__@@@ATL@@@ATL@@QAE@XZ 100e8c40 f i atlsd:atlbase.obj
 0002:00061c80       ??1?$CSimpleArray@PAUHINSTANCE__@@V?$CSimpleArrayEqualHelper@PAUHINSTANCE__@@@ATL@@@ATL@@QAE@XZ 100e8c80 f i atlsd:atlbase.obj
 0002:00061ca0       ?GetSize@?$CSimpleArray@PAUHINSTANCE__@@V?$CSimpleArrayEqualHelper@PAUHINSTANCE__@@@ATL@@@ATL@@QBEHXZ 100e8ca0 f i atlsd:atlbase.obj
 0002:00061cc0       ?Add@?$CSimpleArray@PAUHINSTANCE__@@V?$CSimpleArrayEqualHelper@PAUHINSTANCE__@@@ATL@@@ATL@@QAEHABQAUHINSTANCE__@@@Z 100e8cc0 f i atlsd:atlbase.obj
 0002:00061d80       ?RemoveAt@?$CSimpleArray@PAUHINSTANCE__@@V?$CSimpleArrayEqualHelper@PAUHINSTANCE__@@@ATL@@@ATL@@QAEHH@Z 100e8d80 f i atlsd:atlbase.obj
 0002:00061e60       ??A?$CSimpleArray@PAUHINSTANCE__@@V?$CSimpleArrayEqualHelper@PAUHINSTANCE__@@@ATL@@@ATL@@QAEAAPAUHINSTANCE__@@H@Z 100e8e60 f i atlsd:atlbase.obj
 0002:00061ee0       ?RemoveAll@?$CSimpleArray@PAUHINSTANCE__@@V?$CSimpleArrayEqualHelper@PAUHINSTANCE__@@@ATL@@@ATL@@QAEXXZ 100e8ee0 f i atlsd:atlbase.obj
 0002:00061f60       ?InternalSetAtIndex@?$CSimpleArray@PAUHINSTANCE__@@V?$CSimpleArrayEqualHelper@PAUHINSTANCE__@@@ATL@@@ATL@@QAEXHABQAUHINSTANCE__@@@Z 100e8f60 f i atlsd:atlbase.obj
 0002:00061fc0       ??0Wrapper@?$CSimpleArray@PAUHINSTANCE__@@V?$CSimpleArrayEqualHelper@PAUHINSTANCE__@@@ATL@@@ATL@@QAE@ABQAUHINSTANCE__@@@Z 100e8fc0 f i atlsd:atlbase.obj
 0002:00061fe0       ??$?2PAUHINSTANCE__@@@Wrapper@?$CSimpleArray@PAUHINSTANCE__@@V?$CSimpleArrayEqualHelper@PAUHINSTANCE__@@@ATL@@@ATL@@SAPAXIPAPAUHINSTANCE__@@@Z 100e8fe0 f i atlsd:atlbase.obj
 0002:00061ff0       ??0COleDateTimeSpan@ATL@@QAE@XZ 100e8ff0 f   atlsd:ATLComTime.obj
 0002:00062020       ??0COleDateTimeSpan@ATL@@QAE@N@Z 100e9020 f   atlsd:ATLComTime.obj
 0002:00062050       ??0COleDateTimeSpan@ATL@@QAE@JHHH@Z 100e9050 f   atlsd:ATLComTime.obj
 0002:00062080       ?SetStatus@COleDateTimeSpan@ATL@@QAEXW4DateTimeSpanStatus@12@@Z 100e9080 f   atlsd:ATLComTime.obj
 0002:000620a0       ?GetStatus@COleDateTimeSpan@ATL@@QBE?AW4DateTimeSpanStatus@12@XZ 100e90a0 f   atlsd:ATLComTime.obj
 0002:000620c0       ?GetTotalDays@COleDateTimeSpan@ATL@@QBENXZ 100e90c0 f   atlsd:ATLComTime.obj
 0002:00062140       ?GetTotalHours@COleDateTimeSpan@ATL@@QBENXZ 100e9140 f   atlsd:ATLComTime.obj
 0002:000621c0       ?GetTotalMinutes@COleDateTimeSpan@ATL@@QBENXZ 100e91c0 f   atlsd:ATLComTime.obj
 0002:00062240       ?GetTotalSeconds@COleDateTimeSpan@ATL@@QBENXZ 100e9240 f   atlsd:ATLComTime.obj
 0002:000622c0       ?GetDays@COleDateTimeSpan@ATL@@QBEJXZ 100e92c0 f   atlsd:ATLComTime.obj
 0002:00062300       ?GetHours@COleDateTimeSpan@ATL@@QBEJXZ 100e9300 f   atlsd:ATLComTime.obj
 0002:00062330       ?GetMinutes@COleDateTimeSpan@ATL@@QBEJXZ 100e9330 f   atlsd:ATLComTime.obj
 0002:00062360       ?GetSeconds@COleDateTimeSpan@ATL@@QBEJXZ 100e9360 f   atlsd:ATLComTime.obj
 0002:00062390       ??4COleDateTimeSpan@ATL@@QAEAAV01@N@Z 100e9390 f   atlsd:ATLComTime.obj
 0002:000623c0       ??8COleDateTimeSpan@ATL@@QBE_NABV01@@Z 100e93c0 f   atlsd:ATLComTime.obj
 0002:00062430       ??9COleDateTimeSpan@ATL@@QBE_NABV01@@Z 100e9430 f   atlsd:ATLComTime.obj
 0002:00062460       ??MCOleDateTimeSpan@ATL@@QBE_NABV01@@Z 100e9460 f   atlsd:ATLComTime.obj
 0002:00062520       ??OCOleDateTimeSpan@ATL@@QBE_NABV01@@Z 100e9520 f   atlsd:ATLComTime.obj
 0002:000625e0       ??NCOleDateTimeSpan@ATL@@QBE_NABV01@@Z 100e95e0 f   atlsd:ATLComTime.obj
 0002:00062630       ??PCOleDateTimeSpan@ATL@@QBE_NABV01@@Z 100e9630 f   atlsd:ATLComTime.obj
 0002:00062680       ??HCOleDateTimeSpan@ATL@@QBE?AV01@ABV01@@Z 100e9680 f   atlsd:ATLComTime.obj
 0002:00062740       ??GCOleDateTimeSpan@ATL@@QBE?AV01@ABV01@@Z 100e9740 f   atlsd:ATLComTime.obj
 0002:00062800       ??YCOleDateTimeSpan@ATL@@QAEAAV01@V01@@Z 100e9800 f   atlsd:ATLComTime.obj
 0002:000628a0       ??ZCOleDateTimeSpan@ATL@@QAEAAV01@V01@@Z 100e98a0 f   atlsd:ATLComTime.obj
 0002:00062940       ??GCOleDateTimeSpan@ATL@@QBE?AV01@XZ 100e9940 f   atlsd:ATLComTime.obj
 0002:00062970       ??BCOleDateTimeSpan@ATL@@QBENXZ 100e9970 f   atlsd:ATLComTime.obj
 0002:00062980       ?SetDateTimeSpan@COleDateTimeSpan@ATL@@QAEXJHHH@Z 100e9980 f   atlsd:ATLComTime.obj
 0002:000629d0       ?CheckRange@COleDateTimeSpan@ATL@@QAEXXZ 100e99d0 f   atlsd:ATLComTime.obj
 0002:00062a10       ?GetTickCount@COleDateTime@ATL@@SG?AV12@XZ 100e9a10 f   atlsd:ATLComTime.obj
 0002:00062a30       ??0COleDateTime@ATL@@QAE@XZ 100e9a30 f   atlsd:ATLComTime.obj
 0002:00062a60       ??0COleDateTime@ATL@@QAE@ABUtagVARIANT@@@Z 100e9a60 f   atlsd:ATLComTime.obj
 0002:00062aa0       ??0COleDateTime@ATL@@QAE@N@Z 100e9aa0 f   atlsd:ATLComTime.obj
 0002:00062ad0       ??0COleDateTime@ATL@@QAE@J@Z 100e9ad0 f   atlsd:ATLComTime.obj
 0002:00062b10       ??0COleDateTime@ATL@@QAE@_J@Z 100e9b10 f   atlsd:ATLComTime.obj
 0002:00062b50       ??0COleDateTime@ATL@@QAE@ABU_SYSTEMTIME@@@Z 100e9b50 f   atlsd:ATLComTime.obj
 0002:00062b90       ??0COleDateTime@ATL@@QAE@ABU_FILETIME@@@Z 100e9b90 f   atlsd:ATLComTime.obj
 0002:00062bd0       ??0COleDateTime@ATL@@QAE@HHHHHH@Z 100e9bd0 f   atlsd:ATLComTime.obj
 0002:00062c00       ??0COleDateTime@ATL@@QAE@GG@Z 100e9c00 f   atlsd:ATLComTime.obj
 0002:00062c30       ?SetStatus@COleDateTime@ATL@@QAEXW4DateTimeStatus@12@@Z 100e9c30 f   atlsd:ATLComTime.obj
 0002:00062c50       ?GetStatus@COleDateTime@ATL@@QBE?AW4DateTimeStatus@12@XZ 100e9c50 f   atlsd:ATLComTime.obj
 0002:00062c70       ?GetAsSystemTime@COleDateTime@ATL@@QBE_NAAU_SYSTEMTIME@@@Z 100e9c70 f   atlsd:ATLComTime.obj
 0002:00062cc0       ?GetAsUDATE@COleDateTime@ATL@@QBE_NAAUUDATE@@@Z 100e9cc0 f   atlsd:ATLComTime.obj
 0002:00062cf0       ?GetYear@COleDateTime@ATL@@QBEHXZ 100e9cf0 f   atlsd:ATLComTime.obj
 0002:00062d30       ?GetMonth@COleDateTime@ATL@@QBEHXZ 100e9d30 f   atlsd:ATLComTime.obj
 0002:00062d70       ?GetDay@COleDateTime@ATL@@QBEHXZ 100e9d70 f   atlsd:ATLComTime.obj
 0002:00062db0       ?GetHour@COleDateTime@ATL@@QBEHXZ 100e9db0 f   atlsd:ATLComTime.obj
 0002:00062df0       ?GetMinute@COleDateTime@ATL@@QBEHXZ 100e9df0 f   atlsd:ATLComTime.obj
 0002:00062e30       ?GetSecond@COleDateTime@ATL@@QBEHXZ 100e9e30 f   atlsd:ATLComTime.obj
 0002:00062e70       ?GetDayOfWeek@COleDateTime@ATL@@QBEHXZ 100e9e70 f   atlsd:ATLComTime.obj
 0002:00062eb0       ?GetDayOfYear@COleDateTime@ATL@@QBEHXZ 100e9eb0 f   atlsd:ATLComTime.obj
 0002:00062ef0       ??4COleDateTime@ATL@@QAEAAV01@ABUtagVARIANT@@@Z 100e9ef0 f   atlsd:ATLComTime.obj
 0002:00062f60       ??4COleDateTime@ATL@@QAEAAV01@N@Z 100e9f60 f   atlsd:ATLComTime.obj
 0002:00062f90       ??4COleDateTime@ATL@@QAEAAV01@ABJ@Z 100e9f90 f   atlsd:ATLComTime.obj
 0002:00062fc0       ??4COleDateTime@ATL@@QAEAAV01@AB_J@Z 100e9fc0 f   atlsd:ATLComTime.obj
 0002:00063030       ??4COleDateTime@ATL@@QAEAAV01@ABU_SYSTEMTIME@@@Z 100ea030 f   atlsd:ATLComTime.obj
 0002:00063060       ??4COleDateTime@ATL@@QAEAAV01@ABU_FILETIME@@@Z 100ea060 f   atlsd:ATLComTime.obj
 0002:000630b0       ??4COleDateTime@ATL@@QAEAAV01@ABUUDATE@@@Z 100ea0b0 f   atlsd:ATLComTime.obj
 0002:000630e0       ??8COleDateTime@ATL@@QBE_NABV01@@Z 100ea0e0 f   atlsd:ATLComTime.obj
 0002:00063150       ??9COleDateTime@ATL@@QBE_NABV01@@Z 100ea150 f   atlsd:ATLComTime.obj
 0002:00063180       ??MCOleDateTime@ATL@@QBE_NABV01@@Z 100ea180 f   atlsd:ATLComTime.obj
 0002:00063260       ??OCOleDateTime@ATL@@QBE_NABV01@@Z 100ea260 f   atlsd:ATLComTime.obj
 0002:00063340       ??NCOleDateTime@ATL@@QBE_NABV01@@Z 100ea340 f   atlsd:ATLComTime.obj
 0002:00063390       ??PCOleDateTime@ATL@@QBE_NABV01@@Z 100ea390 f   atlsd:ATLComTime.obj
 0002:000633e0       ??HCOleDateTime@ATL@@QBE?AV01@VCOleDateTimeSpan@1@@Z 100ea3e0 f   atlsd:ATLComTime.obj
 0002:00063490       ??GCOleDateTime@ATL@@QBE?AV01@VCOleDateTimeSpan@1@@Z 100ea490 f   atlsd:ATLComTime.obj
 0002:00063540       ??YCOleDateTime@ATL@@QAEAAV01@VCOleDateTimeSpan@1@@Z 100ea540 f   atlsd:ATLComTime.obj
 0002:000635e0       ??ZCOleDateTime@ATL@@QAEAAV01@VCOleDateTimeSpan@1@@Z 100ea5e0 f   atlsd:ATLComTime.obj
 0002:00063680       ??GCOleDateTime@ATL@@QBE?AVCOleDateTimeSpan@1@ABV01@@Z 100ea680 f   atlsd:ATLComTime.obj
 0002:00063720       ??BCOleDateTime@ATL@@QBENXZ 100ea720 f   atlsd:ATLComTime.obj
 0002:00063760       ?SetDateTime@COleDateTime@ATL@@QAEHHHHHHH@Z 100ea760 f   atlsd:ATLComTime.obj
 0002:000637d0       ?SetDate@COleDateTime@ATL@@QAEHHHH@Z 100ea7d0 f   atlsd:ATLComTime.obj
 0002:00063800       ?SetTime@COleDateTime@ATL@@QAEHHHH@Z 100ea800 f   atlsd:ATLComTime.obj
 0002:00063830       ?DoubleFromDate@COleDateTime@ATL@@KGNN@Z 100ea830 f   atlsd:ATLComTime.obj
 0002:00063870       ?DateFromDouble@COleDateTime@ATL@@KGNN@Z 100ea870 f   atlsd:ATLComTime.obj
 0002:000638b0       ?GetAsDBTIMESTAMP@CTime@ATL@@QBE_NAAUtagDBTIMESTAMP@@@Z 100ea8b0 f   atlsd:ATLComTime.obj
 0002:00063f90       ??0CTimeSpan@ATL@@QAE@XZ   100eaf90 f   atlsd:atltime.obj
 0002:00063fb0       ??0CTimeSpan@ATL@@QAE@_J@Z 100eafb0 f   atlsd:atltime.obj
 0002:00063fd0       ??0CTimeSpan@ATL@@QAE@JHHH@Z 100eafd0 f   atlsd:atltime.obj
 0002:00064050       ?GetDays@CTimeSpan@ATL@@QBE_JXZ 100eb050 f   atlsd:atltime.obj
 0002:00064080       ?GetTotalHours@CTimeSpan@ATL@@QBE_JXZ 100eb080 f   atlsd:atltime.obj
 0002:000640b0       ?GetHours@CTimeSpan@ATL@@QBEJXZ 100eb0b0 f   atlsd:atltime.obj
 0002:000640f0       ?GetTotalMinutes@CTimeSpan@ATL@@QBE_JXZ 100eb0f0 f   atlsd:atltime.obj
 0002:00064110       ?GetMinutes@CTimeSpan@ATL@@QBEJXZ 100eb110 f   atlsd:atltime.obj
 0002:00064150       ?GetTotalSeconds@CTimeSpan@ATL@@QBE_JXZ 100eb150 f   atlsd:atltime.obj
 0002:00064170       ?GetSeconds@CTimeSpan@ATL@@QBEJXZ 100eb170 f   atlsd:atltime.obj
 0002:000641b0       ?GetTimeSpan@CTimeSpan@ATL@@QBE_JXZ 100eb1b0 f   atlsd:atltime.obj
 0002:000641d0       ??HCTimeSpan@ATL@@QBE?AV01@V01@@Z 100eb1d0 f   atlsd:atltime.obj
 0002:00064200       ??GCTimeSpan@ATL@@QBE?AV01@V01@@Z 100eb200 f   atlsd:atltime.obj
 0002:00064230       ??YCTimeSpan@ATL@@QAEAAV01@V01@@Z 100eb230 f   atlsd:atltime.obj
 0002:00064260       ??ZCTimeSpan@ATL@@QAEAAV01@V01@@Z 100eb260 f   atlsd:atltime.obj
 0002:00064290       ??8CTimeSpan@ATL@@QBE_NV01@@Z 100eb290 f   atlsd:atltime.obj
 0002:000642d0       ??9CTimeSpan@ATL@@QBE_NV01@@Z 100eb2d0 f   atlsd:atltime.obj
 0002:00064310       ??MCTimeSpan@ATL@@QBE_NV01@@Z 100eb310 f   atlsd:atltime.obj
 0002:00064350       ??OCTimeSpan@ATL@@QBE_NV01@@Z 100eb350 f   atlsd:atltime.obj
 0002:00064390       ??NCTimeSpan@ATL@@QBE_NV01@@Z 100eb390 f   atlsd:atltime.obj
 0002:000643d0       ??PCTimeSpan@ATL@@QBE_NV01@@Z 100eb3d0 f   atlsd:atltime.obj
 0002:00064410       ?GetTickCount@CTime@ATL@@SG?AV12@XZ 100eb410 f   atlsd:atltime.obj
 0002:00064430       ??0CTime@ATL@@QAE@XZ       100eb430 f   atlsd:atltime.obj
 0002:00064450       ??0CTime@ATL@@QAE@_J@Z     100eb450 f   atlsd:atltime.obj
 0002:00064470       ??0CTime@ATL@@QAE@HHHHHHH@Z 100eb470 f   atlsd:atltime.obj
 0002:000645b0       ??0CTime@ATL@@QAE@GGH@Z    100eb5b0 f   atlsd:atltime.obj
 0002:00064690       ??0CTime@ATL@@QAE@ABU_SYSTEMTIME@@H@Z 100eb690 f   atlsd:atltime.obj
 0002:00064730       ??0CTime@ATL@@QAE@ABU_FILETIME@@H@Z 100eb730 f   atlsd:atltime.obj
 0002:000647c0       ??4CTime@ATL@@QAEAAV01@_J@Z 100eb7c0 f   atlsd:atltime.obj
 0002:000647e0       ??YCTime@ATL@@QAEAAV01@VCTimeSpan@1@@Z 100eb7e0 f   atlsd:atltime.obj
 0002:00064810       ??ZCTime@ATL@@QAEAAV01@VCTimeSpan@1@@Z 100eb810 f   atlsd:atltime.obj
 0002:00064840       ??GCTime@ATL@@QBE?AVCTimeSpan@1@V01@@Z 100eb840 f   atlsd:atltime.obj
 0002:00064870       ??GCTime@ATL@@QBE?AV01@VCTimeSpan@1@@Z 100eb870 f   atlsd:atltime.obj
 0002:000648a0       ??HCTime@ATL@@QBE?AV01@VCTimeSpan@1@@Z 100eb8a0 f   atlsd:atltime.obj
 0002:000648d0       ??8CTime@ATL@@QBE_NV01@@Z  100eb8d0 f   atlsd:atltime.obj
 0002:00064910       ??9CTime@ATL@@QBE_NV01@@Z  100eb910 f   atlsd:atltime.obj
 0002:00064950       ??MCTime@ATL@@QBE_NV01@@Z  100eb950 f   atlsd:atltime.obj
 0002:00064990       ??OCTime@ATL@@QBE_NV01@@Z  100eb990 f   atlsd:atltime.obj
 0002:000649d0       ??NCTime@ATL@@QBE_NV01@@Z  100eb9d0 f   atlsd:atltime.obj
 0002:00064a10       ??PCTime@ATL@@QBE_NV01@@Z  100eba10 f   atlsd:atltime.obj
 0002:00064a50       ?GetGmtTm@CTime@ATL@@QBEPAUtm@@PAU3@@Z 100eba50 f   atlsd:atltime.obj
 0002:00064aa0       ?GetLocalTm@CTime@ATL@@QBEPAUtm@@PAU3@@Z 100ebaa0 f   atlsd:atltime.obj
 0002:00064af0       ?GetAsSystemTime@CTime@ATL@@QBE_NAAU_SYSTEMTIME@@@Z 100ebaf0 f   atlsd:atltime.obj
 0002:00064b90       ?GetTime@CTime@ATL@@QBE_JXZ 100ebb90 f   atlsd:atltime.obj
 0002:00064bb0       ?GetYear@CTime@ATL@@QBEHXZ 100ebbb0 f   atlsd:atltime.obj
 0002:00064bf0       ?GetMonth@CTime@ATL@@QBEHXZ 100ebbf0 f   atlsd:atltime.obj
 0002:00064c30       ?GetDay@CTime@ATL@@QBEHXZ  100ebc30 f   atlsd:atltime.obj
 0002:00064c70       ?GetHour@CTime@ATL@@QBEHXZ 100ebc70 f   atlsd:atltime.obj
 0002:00064cb0       ?GetMinute@CTime@ATL@@QBEHXZ 100ebcb0 f   atlsd:atltime.obj
 0002:00064cf0       ?GetSecond@CTime@ATL@@QBEHXZ 100ebcf0 f   atlsd:atltime.obj
 0002:00064d30       ?GetDayOfWeek@CTime@ATL@@QBEHXZ 100ebd30 f   atlsd:atltime.obj
 0002:00064d70       ??0CFileTimeSpan@ATL@@QAE@XZ 100ebd70 f   atlsd:atltime.obj
 0002:00064d90       ??0CFileTimeSpan@ATL@@QAE@ABV01@@Z 100ebd90 f   atlsd:atltime.obj
 0002:00064db0       ??0CFileTimeSpan@ATL@@QAE@_J@Z 100ebdb0 f   atlsd:atltime.obj
 0002:00064dd0       ??4CFileTimeSpan@ATL@@QAEAAV01@ABV01@@Z 100ebdd0 f   atlsd:atltime.obj
 0002:00064df0       ??YCFileTimeSpan@ATL@@QAEAAV01@V01@@Z 100ebdf0 f   atlsd:atltime.obj
 0002:00064e20       ??ZCFileTimeSpan@ATL@@QAEAAV01@V01@@Z 100ebe20 f   atlsd:atltime.obj
 0002:00064e50       ??HCFileTimeSpan@ATL@@QBE?AV01@V01@@Z 100ebe50 f   atlsd:atltime.obj
 0002:00064e80       ??GCFileTimeSpan@ATL@@QBE?AV01@V01@@Z 100ebe80 f   atlsd:atltime.obj
 0002:00064eb0       ??8CFileTimeSpan@ATL@@QBE_NV01@@Z 100ebeb0 f   atlsd:atltime.obj
 0002:00064ef0       ??9CFileTimeSpan@ATL@@QBE_NV01@@Z 100ebef0 f   atlsd:atltime.obj
 0002:00064f30       ??MCFileTimeSpan@ATL@@QBE_NV01@@Z 100ebf30 f   atlsd:atltime.obj
 0002:00064f70       ??OCFileTimeSpan@ATL@@QBE_NV01@@Z 100ebf70 f   atlsd:atltime.obj
 0002:00064fb0       ??NCFileTimeSpan@ATL@@QBE_NV01@@Z 100ebfb0 f   atlsd:atltime.obj
 0002:00064ff0       ??PCFileTimeSpan@ATL@@QBE_NV01@@Z 100ebff0 f   atlsd:atltime.obj
 0002:00065030       ?GetTimeSpan@CFileTimeSpan@ATL@@QBE_JXZ 100ec030 f   atlsd:atltime.obj
 0002:00065050       ?SetTimeSpan@CFileTimeSpan@ATL@@QAEX_J@Z 100ec050 f   atlsd:atltime.obj
 0002:00065070       ??0CFileTime@ATL@@QAE@XZ   100ec070 f   atlsd:atltime.obj
 0002:000650a0       ??0CFileTime@ATL@@QAE@ABU_FILETIME@@@Z 100ec0a0 f   atlsd:atltime.obj
 0002:000650d0       ??0CFileTime@ATL@@QAE@_K@Z 100ec0d0 f   atlsd:atltime.obj
 0002:00065100       ??4CFileTime@ATL@@QAEAAV01@ABU_FILETIME@@@Z 100ec100 f   atlsd:atltime.obj
 0002:00065130       ?GetTickCount@CFileTime@ATL@@SG?AV12@XZ 100ec130 f   atlsd:atltime.obj
 0002:00065160       ??YCFileTime@ATL@@QAEAAV01@VCFileTimeSpan@1@@Z 100ec160 f   atlsd:atltime.obj
 0002:000651a0       ??ZCFileTime@ATL@@QAEAAV01@VCFileTimeSpan@1@@Z 100ec1a0 f   atlsd:atltime.obj
 0002:000651e0       ??HCFileTime@ATL@@QBE?AV01@VCFileTimeSpan@1@@Z 100ec1e0 f   atlsd:atltime.obj
 0002:00065220       ??GCFileTime@ATL@@QBE?AV01@VCFileTimeSpan@1@@Z 100ec220 f   atlsd:atltime.obj
 0002:00065260       ??GCFileTime@ATL@@QBE?AVCFileTimeSpan@1@V01@@Z 100ec260 f   atlsd:atltime.obj
 0002:000652a0       ??8CFileTime@ATL@@QBE_NV01@@Z 100ec2a0 f   atlsd:atltime.obj
 0002:00065300       ??9CFileTime@ATL@@QBE_NV01@@Z 100ec300 f   atlsd:atltime.obj
 0002:00065360       ??MCFileTime@ATL@@QBE_NV01@@Z 100ec360 f   atlsd:atltime.obj
 0002:000653c0       ??OCFileTime@ATL@@QBE_NV01@@Z 100ec3c0 f   atlsd:atltime.obj
 0002:00065420       ??NCFileTime@ATL@@QBE_NV01@@Z 100ec420 f   atlsd:atltime.obj
 0002:00065480       ??PCFileTime@ATL@@QBE_NV01@@Z 100ec480 f   atlsd:atltime.obj
 0002:000654e0       ?GetTime@CFileTime@ATL@@QBE_KXZ 100ec4e0 f   atlsd:atltime.obj
 0002:00065510       ?SetTime@CFileTime@ATL@@QAEX_K@Z 100ec510 f   atlsd:atltime.obj
 0002:00065540       ?UTCToLocal@CFileTime@ATL@@QBE?AV12@XZ 100ec540 f   atlsd:atltime.obj
 0002:00065580       ?LocalToUTC@CFileTime@ATL@@QBE?AV12@XZ 100ec580 f   atlsd:atltime.obj
 0002:00065b40       ?Init@CAtlAllocator@@QAE_NPBDK@Z 100ecb40 f   atlsd:Allocate.obj
 0002:00065e80       ?Open@CAtlAllocator@@QAE_NPBD@Z 100ece80 f   atlsd:Allocate.obj
 0002:00065fb0       ?Close@CAtlAllocator@@QAEX_N@Z 100ecfb0 f   atlsd:Allocate.obj
 0002:00066020       ?GetModule@CAtlAllocator@@QBEPAVCAtlTraceModule@@H@Z 100ed020 f   atlsd:Allocate.obj
 0002:000660a0       ?GetCategory@CAtlAllocator@@QBEPAVCAtlTraceCategory@@H@Z 100ed0a0 f   atlsd:Allocate.obj
 0002:00066140       ?GetCategoryCount@CAtlAllocator@@QBEHH@Z 100ed140 f   atlsd:Allocate.obj
 0002:000661b0       ?GetCategoryCount@CAtlAllocator@@QBEHABVCAtlTraceModule@@@Z 100ed1b0 f   atlsd:Allocate.obj
 0002:00066210       ?GetModuleCount@CAtlAllocator@@QBEHXZ 100ed210 f   atlsd:Allocate.obj
 0002:00066250       ?FindModule@CAtlAllocator@@QBE_NPBGPAI@Z 100ed250 f   atlsd:Allocate.obj
 0002:000662c0       ?AddModule@CAtlAllocator@@QAEHPAUHINSTANCE__@@@Z 100ed2c0 f   atlsd:Allocate.obj
 0002:00066480       ?AddCategory@CAtlAllocator@@QAEHHPBG@Z 100ed480 f   atlsd:Allocate.obj
 0002:000666a0       ?RemoveModule@CAtlAllocator@@QAE_NH@Z 100ed6a0 f   atlsd:Allocate.obj
 0002:00066740       ?CleanUp@CAtlAllocator@@QAEXXZ 100ed740 f   atlsd:Allocate.obj
 0002:00066760       ?TakeSnapshot@CAtlAllocator@@QAEXXZ 100ed760 f   atlsd:Allocate.obj
 0002:00066920       ?ReleaseSnapshot@CAtlAllocator@@QAEXXZ 100ed920 f   atlsd:Allocate.obj
 0002:00066d90       ?IncRef@CAtlTraceProcess@@QAEIXZ 100edd90 f i atlsd:Allocate.obj
 0002:00066dd0       ?Base@CAtlTraceProcess@@QBEPAXXZ 100eddd0 f i atlsd:Allocate.obj
 0002:00066df0       ?DecRef@CAtlTraceProcess@@QAEIXZ 100eddf0 f i atlsd:Allocate.obj
 0002:00066e30       ?ModuleCount@CAtlTraceProcess@@QBEHXZ 100ede30 f i atlsd:Allocate.obj
 0002:00066e50       ?MaxSize@CAtlTraceProcess@@QBEKXZ 100ede50 f i atlsd:Allocate.obj
 0002:00066e70       ?CategoryCount@CAtlTraceProcess@@QBEHXZ 100ede70 f i atlsd:Allocate.obj
 0002:00066e90       ?TryAllocate@CAtlTraceSettings@@QAE_NXZ 100ede90 f i atlsd:Allocate.obj
 0002:00066ee0       ?MarkValid@CAtlTraceSettings@@QAEXJ@Z 100edee0 f i atlsd:Allocate.obj
 0002:00066f30       ?IncModuleCount@CAtlTraceProcess@@QAEXI@Z 100edf30 f i atlsd:Allocate.obj
 0002:00066f60       ?TryAddRef@CAtlTraceSettings@@QAE_NXZ 100edf60 f i atlsd:Allocate.obj
 0002:00066fb0       ?Release@CAtlTraceSettings@@QAEXXZ 100edfb0 f i atlsd:Allocate.obj
 0002:00066ff0       ?IncCategoryCount@CAtlTraceProcess@@QAEXI@Z 100edff0 f i atlsd:Allocate.obj
 0002:00067020       ?Add@?$CSimpleArray@UCModuleInfo@CTraceSnapshot@@V?$CSimpleArrayEqualHelper@UCModuleInfo@CTraceSnapshot@@@ATL@@@ATL@@QAEHABUCModuleInfo@CTraceSnapshot@@@Z 100ee020 f i atlsd:Allocate.obj
 0002:000670e0       ?GetSize@?$CSimpleArray@KV?$CSimpleArrayEqualHelper@K@ATL@@@ATL@@QBEHXZ 100ee0e0 f i atlsd:Allocate.obj
 0002:00067100       ?Add@?$CSimpleArray@KV?$CSimpleArrayEqualHelper@K@ATL@@@ATL@@QAEHABK@Z 100ee100 f i atlsd:Allocate.obj
 0002:000671c0       ?RemoveAt@?$CSimpleArray@KV?$CSimpleArrayEqualHelper@K@ATL@@@ATL@@QAEHH@Z 100ee1c0 f i atlsd:Allocate.obj
 0002:000672a0       ??A?$CSimpleArray@KV?$CSimpleArrayEqualHelper@K@ATL@@@ATL@@QAEAAKH@Z 100ee2a0 f i atlsd:Allocate.obj
 0002:00067320       ?InternalSetAtIndex@?$CSimpleArray@UCModuleInfo@CTraceSnapshot@@V?$CSimpleArrayEqualHelper@UCModuleInfo@CTraceSnapshot@@@ATL@@@ATL@@QAEXHABUCModuleInfo@CTraceSnapshot@@@Z 100ee320 f i atlsd:Allocate.obj
 0002:00067380       ?InternalSetAtIndex@?$CSimpleArray@KV?$CSimpleArrayEqualHelper@K@ATL@@@ATL@@QAEXHABK@Z 100ee380 f i atlsd:Allocate.obj
 0002:000673e0       ??0Wrapper@?$CSimpleArray@UCModuleInfo@CTraceSnapshot@@V?$CSimpleArrayEqualHelper@UCModuleInfo@CTraceSnapshot@@@ATL@@@ATL@@QAE@ABUCModuleInfo@CTraceSnapshot@@@Z 100ee3e0 f i atlsd:Allocate.obj
 0002:00067410       ??0Wrapper@?$CSimpleArray@KV?$CSimpleArrayEqualHelper@K@ATL@@@ATL@@QAE@ABK@Z 100ee410 f i atlsd:Allocate.obj
 0002:00067430       ??$?2UCModuleInfo@CTraceSnapshot@@@Wrapper@?$CSimpleArray@UCModuleInfo@CTraceSnapshot@@V?$CSimpleArrayEqualHelper@UCModuleInfo@CTraceSnapshot@@@ATL@@@ATL@@SAPAXIPAUCModuleInfo@CTraceSnapshot@@@Z 100ee430 f i atlsd:Allocate.obj
 0002:00067440       ??$?2K@Wrapper@?$CSimpleArray@KV?$CSimpleArrayEqualHelper@K@ATL@@@ATL@@SAPAXIPAK@Z 100ee440 f i atlsd:Allocate.obj
 0002:00067450       ??0CAtlTraceModuleInfo@@QAE@XZ 100ee450 f   atlsd:AtlTraceModuleManager.obj
 0002:000674a0       ?Reset@CAtlTraceModuleInfo@@QAEXPAUHINSTANCE__@@@Z 100ee4a0 f   atlsd:AtlTraceModuleManager.obj
 0002:000676b0       ??0CAtlTraceCategory@@QAE@XZ 100ee6b0 f   atlsd:AtlTraceModuleManager.obj
 0002:000676e0       ?Reset@CAtlTraceCategory@@QAEXPBGJ@Z 100ee6e0 f   atlsd:AtlTraceModuleManager.obj
 0002:00067710       ??0CAtlTraceModule@@QAE@XZ 100ee710 f   atlsd:AtlTraceModuleManager.obj
 0002:00067750       ?CrtDbgReport@CAtlTraceModule@@QAEXP6AHHPBDH00ZZ@Z 100ee750 f   atlsd:AtlTraceModuleManager.obj
 0002:00067780       ??0CAtlTraceProcess@@QAE@K@Z 100ee780 f   atlsd:AtlTraceModuleManager.obj
 0002:00067850       ?GetNextCookie@CAtlTraceProcess@@QAEJXZ 100ee850 f   atlsd:AtlTraceModuleManager.obj
 0002:00067970       ??0CAtlTraceSettings@@QAE@XZ 100ee970 f i atlsd:AtlTraceModuleManager.obj
 0002:000679b2       __imp_load__CreateStdAccessibleObject@16 100ee9b2     oleacc:OLEACC.dll
 0002:000679be       __tailMerge_OLEACC         100ee9be     oleacc:OLEACC.dll
 0002:000679d3       _CreateStdAccessibleObject@16 100ee9d3 f   oleacc:OLEACC.dll
 0002:000679d9       __imp_load__LresultFromObject@12 100ee9d9     oleacc:OLEACC.dll
 0002:000679e5       _LresultFromObject@12      100ee9e5 f   oleacc:OLEACC.dll
 0002:000679eb       __imp_load__AccessibleObjectFromWindow@16 100ee9eb     oleacc:OLEACC.dll
 0002:000679f7       _AccessibleObjectFromWindow@16 100ee9f7 f   oleacc:OLEACC.dll
 0002:000679fd       ?IndexFromPImgThunkData@@YAIPBU_IMAGE_THUNK_DATA32@@0@Z 100ee9fd f i DelayImp:delayhlp.obj
 0002:00067a0c       ?CountOfImports@@YAIPBU_IMAGE_THUNK_DATA32@@@Z 100eea0c f i DelayImp:delayhlp.obj
 0002:00067a22       ??2ULI@@SAPAXI@Z           100eea22 f i DelayImp:delayhlp.obj
 0002:00067a32       ??3ULI@@SAXPAX@Z           100eea32 f i DelayImp:delayhlp.obj
 0002:00067a3f       ?Unlink@ULI@@QAEXXZ        100eea3f f i DelayImp:delayhlp.obj
 0002:00067a6c       ?Link@ULI@@QAEXXZ          100eea6c f i DelayImp:delayhlp.obj
 0002:00067ab7       ??$PFromRva@PBD@@YAPBDK@Z  100eeab7 f i DelayImp:delayhlp.obj
 0002:00067ac4       ??$PFromRva@PAPAUHINSTANCE__@@@@YAPAPAUHINSTANCE__@@K@Z 100eeac4 f i DelayImp:delayhlp.obj
 0002:00067ad1       ??$PFromRva@PAU_IMAGE_THUNK_DATA32@@@@YAPAU_IMAGE_THUNK_DATA32@@K@Z 100eead1 f i DelayImp:delayhlp.obj
 0002:00067ade       ??$PFromRva@PBU_IMAGE_THUNK_DATA32@@@@YAPBU_IMAGE_THUNK_DATA32@@K@Z 100eeade f i DelayImp:delayhlp.obj
 0002:00067aeb       ??$PFromRva@PAU_IMAGE_IMPORT_BY_NAME@@@@YAPAU_IMAGE_IMPORT_BY_NAME@@K@Z 100eeaeb f i DelayImp:delayhlp.obj
 0002:00067af8       ??$PFromRva@PBUImgDelayDescr@@@@YAPBUImgDelayDescr@@K@Z 100eeaf8 f i DelayImp:delayhlp.obj
 0002:00067b05       ??$PFromRva@PAP6GHXZ@@YAPAP6GHXZK@Z 100eeb05 f i DelayImp:delayhlp.obj
 0002:00067b12       ??0ULI@@QAE@PBUImgDelayDescr@@@Z 100eeb12 f i DelayImp:delayhlp.obj
 0002:00067b31       ??1ULI@@QAE@XZ             100eeb31 f i DelayImp:delayhlp.obj
 0002:00067b36       ___delayLoadHelper2@8      100eeb36 f   DelayImp:delayhlp.obj
 0002:00067e09       ??_GULI@@QAEPAXI@Z         100eee09 f i DelayImp:delayhlp.obj
 0002:00067e2c       ___HrLoadAllImportsForDll@4 100eee2c f   DelayImp:delayhlp.obj
 0002:00067f08       ___FUnloadDelayLoadedDLL2@4 100eef08 f   DelayImp:delayhlp.obj
 0002:00068000       __vsnwprintf               100ef000 f   libcmtd:vsnwprnt.obj
 0002:00068180       __snwprintf                100ef180 f   libcmtd:snwprint.obj
 0002:00068310       __time64                   100ef310 f   libcmtd:time64.obj
 0002:00068380       _ceil                      100ef380 f   libcmtd:ceil_pentium4.obj
 0002:000683c0       __ceil_pentium4            100ef3c0 f   libcmtd:ceil_pentium4.obj
 0002:000684f0       _floor                     100ef4f0 f   libcmtd:floor_pentium4.obj
 0002:00068530       __floor_pentium4           100ef530 f   libcmtd:floor_pentium4.obj
 0002:00068660       __mktime64                 100ef660 f   libcmtd:mktime64.obj
 0002:00068680       __mkgmtime64               100ef680 f   libcmtd:mktime64.obj
 0002:00068b00       _wcscmp                    100efb00 f   libcmtd:wcscmp.obj
 0002:00068b80       _wcsncpy                   100efb80 f   libcmtd:wcsncpy.obj
 0002:00068c10       ___libm_error_support      100efc10 f   libcmtd:libm_error.obj
 0002:000698a0       ___sse2_available_init     100f08a0 f   libcmtd:cpu_disp.obj
 0002:00069a90       __set_SSE2_enable          100f0a90 f   libcmtd:cpu_disp.obj
 0002:00069ac0       __ceil_default             100f0ac0 f   libcmtd:ceil.obj
 0002:00069c50       __floor_default            100f0c50 f   libcmtd:floor.obj
 0002:00069de0       __matherr                  100f0de0 f   libcmtd:matherr.obj
 0002:00069df0       __frnd                     100f0df0 f   libcmtd:frnd.obj
 0002:00069e10       __handle_qnan1             100f0e10 f   libcmtd:fpexcept.obj
 0002:00069e90       __handle_qnan2             100f0e90 f   libcmtd:fpexcept.obj
 0002:00069f20       __except1                  100f0f20 f   libcmtd:fpexcept.obj
 0002:0006a050       __except2                  100f1050 f   libcmtd:fpexcept.obj
 0002:0006a1a0       __raise_exc                100f11a0 f   libcmtd:fpexcept.obj
 0002:0006a780       __handle_exc               100f1780 f   libcmtd:fpexcept.obj
 0002:0006ab60       __umatherr                 100f1b60 f   libcmtd:fpexcept.obj
 0002:0006ac30       __set_errno                100f1c30 f   libcmtd:fpexcept.obj
 0002:0006acd0       __errcode                  100f1cd0 f   libcmtd:fpexcept.obj
 0002:0006ad50       __set_exp                  100f1d50 f   libcmtd:util.obj
 0002:0006ada0       __get_exp                  100f1da0 f   libcmtd:util.obj
 0002:0006ade0       __add_exp                  100f1de0 f   libcmtd:util.obj
 0002:0006ae20       __set_bexp                 100f1e20 f   libcmtd:util.obj
 0002:0006ae60       __sptype                   100f1e60 f   libcmtd:util.obj
 0002:0006aef0       __decomp                   100f1ef0 f   libcmtd:util.obj
 0002:0006b070       __statfp                   100f2070 f   libcmtd:fpctrl.obj
 0002:0006b090       __clrfp                    100f2090 f   libcmtd:fpctrl.obj
 0002:0006b0b0       __ctrlfp                   100f20b0 f   libcmtd:fpctrl.obj
 0002:0006b0f0       __set_statfp               100f20f0 f   libcmtd:fpctrl.obj
 0002:0006b16e       _OpenEventA@12             100f216e f   kernel32:KERNEL32.dll
 0002:0006b174       _lstrcpyW@8                100f2174 f   kernel32:KERNEL32.dll
 0002:0006b17a       _OutputDebugStringW@4      100f217a f   kernel32:KERNEL32.dll
 0002:0006b180       _lstrcpynW@12              100f2180 f   kernel32:KERNEL32.dll
 0002:0006b186       _FileTimeToLocalFileTime@8 100f2186 f   kernel32:KERNEL32.dll
 0002:0006b18c       _UnmapViewOfFile@4         100f218c f   kernel32:KERNEL32.dll
 0002:0006b192       _MapViewOfFile@20          100f2192 f   kernel32:KERNEL32.dll
 0002:0006b198       _CreateFileMappingA@24     100f2198 f   kernel32:KERNEL32.dll
 0002:0006b19e       _OpenFileMappingA@12       100f219e f   kernel32:KERNEL32.dll
 0002:0006b1a4       _GetModuleFileNameW@12     100f21a4 f   kernel32:KERNEL32.dll
 0002:0006b1aa       _IsRectEmpty@4             100f21aa f   user32:USER32.dll
 0002:0006b1b0       _PtInRect@12               100f21b0 f   user32:USER32.dll
 0002:0006b1b6       _SetRect@20                100f21b6 f   user32:USER32.dll
 0002:0006b1bc       _InflateRect@12            100f21bc f   user32:USER32.dll
 0002:0006b1c2       _UnionRect@12              100f21c2 f   user32:USER32.dll
 0002:0006b1c8       _SubtractRect@12           100f21c8 f   user32:USER32.dll
 0002:0006b1ce       _DispatchMessageW@4        100f21ce f   user32:USER32.dll
 0002:0006b1d4       _GetMessageW@16            100f21d4 f   user32:USER32.dll
 0002:0006b1da       _IsWindowUnicode@4         100f21da f   user32:USER32.dll
 0002:0006b1e0       _MsgWaitForMultipleObjects@20 100f21e0 f   user32:USER32.dll
 0002:0006b1e6       _SetThreadToken@8          100f21e6 f   advapi32:ADVAPI32.dll
 0002:0006b1ec       _RevertToSelf@0            100f21ec f   advapi32:ADVAPI32.dll
 0002:0006b1f2       _OpenThreadToken@16        100f21f2 f   advapi32:ADVAPI32.dll
 0002:0006b1f8       _CoReleaseMarshalData@4    100f21f8 f   ole32:ole32.dll
 0002:0006b1fe       _CoMarshalInterface@24     100f21fe f   ole32:ole32.dll
 0002:0006b204       _CreateStreamOnHGlobal@12  100f2204 f   ole32:ole32.dll
 0002:0006b20a       _CoUnmarshalInterface@12   100f220a f   ole32:ole32.dll
 0002:0006b210       _DosDateTimeToVariantTime@12 100f2210 f   oleaut32:OLEAUT32.dll
 0002:0006b216       _VariantTimeToSystemTime@12 100f2216 f   oleaut32:OLEAUT32.dll
 0002:0006b21c       _VarUdateFromDate@16       100f221c f   oleaut32:OLEAUT32.dll
 0002:0006b222       _SystemTimeToVariantTime@8 100f2222 f   oleaut32:OLEAUT32.dll
 0002:0006b228       _VarDateFromUdate@12       100f2228 f   oleaut32:OLEAUT32.dll
 0002:0006b230       ?InitString@CSimpleException@@QAEXXZ 100f2230 f   nafxcwd:except.obj
 0002:0006b270       ?GetErrorMessage@CSimpleException@@UAEHPADIPAI@Z 100f2270 f   nafxcwd:except.obj
 0002:0006b310       ?AfxThrowMemoryException@@YGXXZ 100f2310 f   nafxcwd:except.obj
 0002:0006b330       ?AfxThrowNotSupportedException@@YGXXZ 100f2330 f   nafxcwd:except.obj
 0002:0006b350       ?AfxThrowInvalidArgException@@YGXXZ 100f2350 f   nafxcwd:except.obj
 0002:0006b3c0       ?AfxIsValidString@@YGHPB_WH@Z 100f23c0 f   nafxcwd:validadd.obj
 0002:0006b3e0       ?AfxIsValidString@@YGHPBDH@Z 100f23e0 f   nafxcwd:validadd.obj
 0002:0006b400       ?AfxIsValidAddress@@YGHPBXIH@Z 100f2400 f   nafxcwd:validadd.obj
 0002:0006b440       ?GetMessageMap@CCommonDialog@@MBEPBUAFX_MSGMAP@@XZ 100f2440 f   nafxcwd:dlgcomm.obj
 0002:0006b450       ?_AfxCommDlgProc@@YGIPAUHWND__@@IIJ@Z 100f2450 f   nafxcwd:dlgcomm.obj
 0002:0006b760       ?OnOK@CCommonDialog@@MAEXXZ 100f2760 f   nafxcwd:dlgcomm.obj
 0002:0006b7d0       ?OnCancel@CCommonDialog@@MAEXXZ 100f27d0 f   nafxcwd:dlgcomm.obj
 0002:0006b800       ?OnHelpInfo@CCommonDialog@@IAEHPAUtagHELPINFO@@@Z 100f2800 f   nafxcwd:dlgcomm.obj
 0002:0006b820       ?OnPaint@CCommonDialog@@IAEXXZ 100f2820 f   nafxcwd:dlgcomm.obj
 0002:0006b930       ??0CFileDialog@@QAE@HPBD0K0PAVCWnd@@K@Z 100f2930 f   nafxcwd:dlgfile.obj
 0002:0006bc80       ??1CFileDialog@@UAE@XZ     100f2c80 f   nafxcwd:dlgfile.obj
 0002:0006bcc0       ?GetOFN@CFileDialog@@QBEABUtagOFNA@@XZ 100f2cc0 f   nafxcwd:dlgfile.obj
 0002:0006bce0       ?GetOFN@CFileDialog@@QAEAAUtagOFNA@@XZ 100f2ce0 f   nafxcwd:dlgfile.obj
 0002:0006bd00       ?DoModal@CFileDialog@@UAEHXZ 100f2d00 f   nafxcwd:dlgfile.obj
 0002:0006bf60       ?GetPathName@CFileDialog@@QBE?AV?$CStringT@DV?$StrTraitMFC@DV?$ChTraitsCRT@D@ATL@@@@@ATL@@XZ 100f2f60 f   nafxcwd:dlgfile.obj
 0002:0006c0e0       ?GetFileName@CFileDialog@@QBE?AV?$CStringT@DV?$StrTraitMFC@DV?$ChTraitsCRT@D@ATL@@@@@ATL@@XZ 100f30e0 f   nafxcwd:dlgfile.obj
 0002:0006c210       ?GetFileExt@CFileDialog@@QBE?AV?$CStringT@DV?$StrTraitMFC@DV?$ChTraitsCRT@D@ATL@@@@@ATL@@XZ 100f3210 f   nafxcwd:dlgfile.obj
 0002:0006c420       ?GetFileTitle@CFileDialog@@QBE?AV?$CStringT@DV?$StrTraitMFC@DV?$ChTraitsCRT@D@ATL@@@@@ATL@@XZ 100f3420 f   nafxcwd:dlgfile.obj
 0002:0006c4b0       ?GetNextPathName@CFileDialog@@QBE?AV?$CStringT@DV?$StrTraitMFC@DV?$ChTraitsCRT@D@ATL@@@@@ATL@@AAPAU__POSITION@@@Z 100f34b0 f   nafxcwd:dlgfile.obj
 0002:0006c860       ?SetTemplate@CFileDialog@@QAEXPBD0@Z 100f3860 f   nafxcwd:dlgfile.obj
 0002:0006c8c0       ?GetFolderPath@CFileDialog@@QBE?AV?$CStringT@DV?$StrTraitMFC@DV?$ChTraitsCRT@D@ATL@@@@@ATL@@XZ 100f38c0 f   nafxcwd:dlgfile.obj
 0002:0006c9c0       ?SetControlText@CFileDialog@@QAEXHPBD@Z 100f39c0 f   nafxcwd:dlgfile.obj
 0002:0006ca40       ?HideControl@CFileDialog@@QAEXH@Z 100f3a40 f   nafxcwd:dlgfile.obj
 0002:0006cac0       ?SetDefExt@CFileDialog@@QAEXPBD@Z 100f3ac0 f   nafxcwd:dlgfile.obj
 0002:0006cb40       ?OnShareViolation@CFileDialog@@MAEIPBD@Z 100f3b40 f   nafxcwd:dlgfile.obj
 0002:0006cb70       ?OnFileNameOK@CFileDialog@@MAEHXZ 100f3b70 f   nafxcwd:dlgfile.obj
 0002:0006cb90       ?OnLBSelChangedNotify@CFileDialog@@MAEXIII@Z 100f3b90 f   nafxcwd:dlgfile.obj
 0002:0006cbb0       ?OnInitDone@CFileDialog@@MAEXXZ 100f3bb0 f   nafxcwd:dlgfile.obj
 0002:0006cbe0       ?OnFileNameChange@CFileDialog@@MAEXXZ 100f3be0 f   nafxcwd:dlgfile.obj
 0002:0006cc00       ?OnFolderChange@CFileDialog@@MAEXXZ 100f3c00 f   nafxcwd:dlgfile.obj
 0002:0006cc20       ?OnTypeChange@CFileDialog@@MAEXXZ 100f3c20 f   nafxcwd:dlgfile.obj
 0002:0006cc40       ?OnNotify@CFileDialog@@MAEHIJPAJ@Z 100f3c40 f   nafxcwd:dlgfile.obj
 0002:0006cda0       ?Dump@CFileDialog@@UBEXAAVCDumpContext@@@Z 100f3da0 f   nafxcwd:dlgfile.obj
 0002:0006d630       ??_GCFileDialog@@UAEPAXI@Z 100f4630 f i nafxcwd:dlgfile.obj
 0002:0006d630       ??_ECFileDialog@@UAEPAXI@Z 100f4630 f i nafxcwd:dlgfile.obj
 0002:0006d670       ?LoadBitmaps@CBitmapButton@@QAEHPBD000@Z 100f4670 f   nafxcwd:winbtn.obj
 0002:0006d790       ?SizeToContent@CBitmapButton@@QAEXXZ 100f4790 f   nafxcwd:winbtn.obj
 0002:0006d820       ?AutoLoad@CBitmapButton@@QAEHIPAVCWnd@@@Z 100f4820 f   nafxcwd:winbtn.obj
 0002:0006d9d0       ?DrawItem@CBitmapButton@@MAEXPAUtagDRAWITEMSTRUCT@@@Z 100f49d0 f   nafxcwd:winbtn.obj
 0002:0006db50       ?AssertValid@CBitmapButton@@UBEXXZ 100f4b50 f   nafxcwd:winbtn.obj
 0002:0006dba0       ?Dump@CBitmapButton@@UBEXAAVCDumpContext@@@Z 100f4ba0 f   nafxcwd:winbtn.obj
 0002:0006ddb0       ?AfxDump@@YGXPBVCObject@@@Z 100f4db0 f   nafxcwd:dumpout.obj
 0002:0006ddd0       ?AfxTrace@@YAXPBDZZ        100f4dd0 f   nafxcwd:dumpout.obj
 0002:0006de70       ??0_AFX_COLOR_STATE@@QAE@XZ 100f4e70 f   nafxcwd:dlgclr.obj
 0002:0006dec0       ??0CColorDialog@@QAE@KKPAVCWnd@@@Z 100f4ec0 f   nafxcwd:dlgclr.obj
 0002:0006df90       ?DoModal@CColorDialog@@UAEHXZ 100f4f90 f   nafxcwd:dlgclr.obj
 0002:0006e030       ?OnColorOK@CColorDialog@@MAEHXZ 100f5030 f   nafxcwd:dlgclr.obj
 0002:0006e050       ?SetCurrentColor@CColorDialog@@QAEXK@Z 100f5050 f   nafxcwd:dlgclr.obj
 0002:0006e0a0       ?GetSavedCustomColors@CColorDialog@@SGPAKXZ 100f50a0 f   nafxcwd:dlgclr.obj
 0002:0006e0c0       ?Dump@CColorDialog@@UBEXAAVCDumpContext@@@Z 100f50c0 f   nafxcwd:dlgclr.obj
 0002:0006e290       ??_E_AFX_COLOR_STATE@@UAEPAXI@Z 100f5290 f i nafxcwd:dlgclr.obj
 0002:0006e290       ??_G_AFX_COLOR_STATE@@UAEPAXI@Z 100f5290 f i nafxcwd:dlgclr.obj
 0002:0006e2d0       ??1_AFX_COLOR_STATE@@UAE@XZ 100f52d0 f i nafxcwd:dlgclr.obj
 0002:0006e2f0       ??_GCColorDialog@@UAEPAXI@Z 100f52f0 f i nafxcwd:dlgclr.obj
 0002:0006e2f0       ??_ECColorDialog@@UAEPAXI@Z 100f52f0 f i nafxcwd:dlgclr.obj
 0002:0006e330       ??1CColorDialog@@UAE@XZ    100f5330 f i nafxcwd:dlgclr.obj
 0002:0006e350       ?_AfxCrtDumpClient@@YAXPAXI@Z 100f5350 f   nafxcwd:dumpinit.obj
 0002:0006e500       ?_AfxCrtReportHook@@YAHHPADPAH@Z 100f5500 f   nafxcwd:dumpinit.obj
 0002:0006e5b0       ??0_AFX_DEBUG_STATE@@QAE@XZ 100f55b0 f   nafxcwd:dumpinit.obj
 0002:0006e660       ??1_AFX_DEBUG_STATE@@UAE@XZ 100f5660 f   nafxcwd:dumpinit.obj
 0002:0006e6c0       ?AfxDiagnosticInit@@YGHXZ  100f56c0 f   nafxcwd:dumpinit.obj
 0002:0006e7e0       ??_G_AFX_DEBUG_STATE@@UAEPAXI@Z 100f57e0 f i nafxcwd:dumpinit.obj
 0002:0006e7e0       ??_E_AFX_DEBUG_STATE@@UAEPAXI@Z 100f57e0 f i nafxcwd:dumpinit.obj
 0002:0006e820       ?GetData@?$CProcessLocal@V_AFX_DEBUG_STATE@@@@QAEPAV_AFX_DEBUG_STATE@@XZ 100f5820 f i nafxcwd:dumpinit.obj
 0002:0006e870       ?CreateObject@?$CProcessLocal@V_AFX_DEBUG_STATE@@@@SGPAVCNoTrackObject@@XZ 100f5870 f i nafxcwd:dumpinit.obj
 0002:0006e970       ??1?$CProcessLocal@V_AFX_DEBUG_STATE@@@@QAE@XZ 100f5970 f i nafxcwd:dumpinit.obj
 0002:0006e990       ??6@YGAAVCDumpContext@@AAV0@VCTime@ATL@@@Z 100f5990 f   nafxcwd:timecore.obj
 0002:0006ea30       ?Serialize64@CTime@ATL@@QAEAAVCArchive@@AAV3@@Z 100f5a30 f   nafxcwd:timecore.obj
 0002:0006ea70       ??6@YGAAVCArchive@@AAV0@VCTime@ATL@@@Z 100f5a70 f   nafxcwd:timecore.obj
 0002:0006ead0       ??5@YGAAVCArchive@@AAV0@AAVCTime@ATL@@@Z 100f5ad0 f   nafxcwd:timecore.obj
 0002:0006eb00       ??6@YGAAVCDumpContext@@AAV0@VCTimeSpan@ATL@@@Z 100f5b00 f   nafxcwd:timecore.obj
 0002:0006eb90       ?Serialize64@CTimeSpan@ATL@@QAEAAVCArchive@@AAV3@@Z 100f5b90 f   nafxcwd:timecore.obj
 0002:0006ebd0       ??6@YGAAVCArchive@@AAV0@VCTimeSpan@ATL@@@Z 100f5bd0 f   nafxcwd:timecore.obj
 0002:0006ec30       ??5@YGAAVCArchive@@AAV0@AAVCTimeSpan@ATL@@@Z 100f5c30 f   nafxcwd:timecore.obj
 0002:0006ed20       ??0CFindReplaceDialog@@QAE@XZ 100f5d20 f   nafxcwd:dlgfr.obj
 0002:0006eda0       ?PostNcDestroy@CFindReplaceDialog@@MAEXXZ 100f5da0 f   nafxcwd:dlgfr.obj
 0002:0006ee00       ?Create@CFindReplaceDialog@@UAEHHPBD0KPAVCWnd@@@Z 100f5e00 f   nafxcwd:dlgfr.obj
 0002:0006efb0       ?GetNotifier@CFindReplaceDialog@@SGPAV1@J@Z 100f5fb0 f   nafxcwd:dlgfr.obj
 0002:0006f010       ?Dump@CFindReplaceDialog@@UBEXAAVCDumpContext@@@Z 100f6010 f   nafxcwd:dlgfr.obj
 0002:0006f1d0       ??_GCFindReplaceDialog@@UAEPAXI@Z 100f61d0 f i nafxcwd:dlgfr.obj
 0002:0006f1d0       ??_ECFindReplaceDialog@@UAEPAXI@Z 100f61d0 f i nafxcwd:dlgfr.obj
 0002:0006f210       ??1CFindReplaceDialog@@UAE@XZ 100f6210 f i nafxcwd:dlgfr.obj
 0002:0006f230       ??0CPageSetupDialog@@QAE@KPAVCWnd@@@Z 100f6230 f   nafxcwd:dlgprnt.obj
 0002:0006f300       ?DoModal@CPageSetupDialog@@UAEHXZ 100f6300 f   nafxcwd:dlgprnt.obj
 0002:0006f3e0       ?GetDevMode@CPageSetupDialog@@QBEPAU_devicemodeA@@XZ 100f63e0 f   nafxcwd:dlgprnt.obj
 0002:0006f410       ?GetDriverName@CPageSetupDialog@@QBE?AV?$CStringT@DV?$StrTraitMFC@DV?$ChTraitsCRT@D@ATL@@@@@ATL@@XZ 100f6410 f   nafxcwd:dlgprnt.obj
 0002:0006f480       ?GetDeviceName@CPageSetupDialog@@QBE?AV?$CStringT@DV?$StrTraitMFC@DV?$ChTraitsCRT@D@ATL@@@@@ATL@@XZ 100f6480 f   nafxcwd:dlgprnt.obj
 0002:0006f4f0       ?GetPortName@CPageSetupDialog@@QBE?AV?$CStringT@DV?$StrTraitMFC@DV?$ChTraitsCRT@D@ATL@@@@@ATL@@XZ 100f64f0 f   nafxcwd:dlgprnt.obj
 0002:0006f560       ?CreatePrinterDC@CPageSetupDialog@@QAEPAUHDC__@@XZ 100f6560 f   nafxcwd:dlgprnt.obj
 0002:0006f590       ?GetMargins@CPageSetupDialog@@QBEXPAUtagRECT@@0@Z 100f6590 f   nafxcwd:dlgprnt.obj
 0002:0006f5e0       ?Dump@CPageSetupDialog@@UBEXAAVCDumpContext@@@Z 100f65e0 f   nafxcwd:dlgprnt.obj
 0002:0006f700       ?PreDrawPage@CPageSetupDialog@@UAEIGGPAUtagPSDA@@@Z 100f6700 f   nafxcwd:dlgprnt.obj
 0002:0006f710       ?OnDrawPage@CPageSetupDialog@@UAEIPAVCDC@@IPAUtagRECT@@@Z 100f6710 f   nafxcwd:dlgprnt.obj
 0002:0006f720       ?PaintHookProc@CPageSetupDialog@@KGIPAUHWND__@@IIJ@Z 100f6720 f   nafxcwd:dlgprnt.obj
 0002:0006f7d0       ?GetMessageMap@CPrintDialog@@MBEPBUAFX_MSGMAP@@XZ 100f67d0 f   nafxcwd:dlgprnt.obj
 0002:0006f7e0       ??0CPrintDialog@@QAE@HKPAVCWnd@@@Z 100f67e0 f   nafxcwd:dlgprnt.obj
 0002:0006f910       ??0CPrintDialog@@IAE@AAUtagPDA@@@Z 100f6910 f   nafxcwd:dlgprnt.obj
 0002:0006f940       ?AttachOnSetup@CPrintDialog@@MAEPAV1@XZ 100f6940 f   nafxcwd:dlgprnt.obj
 0002:0006fa00       ?OnPrintSetup@CPrintDialog@@IAEXXZ 100f6a00 f   nafxcwd:dlgprnt.obj
 0002:0006fa90       ?DoModal@CPrintDialog@@UAEHXZ 100f6a90 f   nafxcwd:dlgprnt.obj
 0002:0006fb00       ?CreatePrinterDC@CPrintDialog@@QAEPAUHDC__@@XZ 100f6b00 f   nafxcwd:dlgprnt.obj
 0002:0006fb50       ?GetCopies@CPrintDialog@@QBEHXZ 100f6b50 f   nafxcwd:dlgprnt.obj
 0002:0006fba0       ?GetDevMode@CPrintDialog@@QBEPAU_devicemodeA@@XZ 100f6ba0 f   nafxcwd:dlgprnt.obj
 0002:0006fbd0       ?GetDriverName@CPrintDialog@@QBE?AV?$CStringT@DV?$StrTraitMFC@DV?$ChTraitsCRT@D@ATL@@@@@ATL@@XZ 100f6bd0 f   nafxcwd:dlgprnt.obj
 0002:0006fc60       ?GetDeviceName@CPrintDialog@@QBE?AV?$CStringT@DV?$StrTraitMFC@DV?$ChTraitsCRT@D@ATL@@@@@ATL@@XZ 100f6c60 f   nafxcwd:dlgprnt.obj
 0002:0006fcf0       ?GetPortName@CPrintDialog@@QBE?AV?$CStringT@DV?$StrTraitMFC@DV?$ChTraitsCRT@D@ATL@@@@@ATL@@XZ 100f6cf0 f   nafxcwd:dlgprnt.obj
 0002:0006fd80       ?GetDefaults@CPrintDialog@@QAEHXZ 100f6d80 f   nafxcwd:dlgprnt.obj
 0002:0006fdb0       ?Dump@CPrintDialog@@UBEXAAVCDumpContext@@@Z 100f6db0 f   nafxcwd:dlgprnt.obj
 0002:0006ff40       ?AfxCreateDC@@YGPAUHDC__@@PAX0@Z 100f6f40 f   nafxcwd:dlgprnt.obj
 0002:00070350       ??_GCPageSetupDialog@@UAEPAXI@Z 100f7350 f i nafxcwd:dlgprnt.obj
 0002:00070350       ??_ECPageSetupDialog@@UAEPAXI@Z 100f7350 f i nafxcwd:dlgprnt.obj
 0002:00070390       ??1CPageSetupDialog@@UAE@XZ 100f7390 f i nafxcwd:dlgprnt.obj
 0002:000703b0       ??_GCPrintDialog@@UAEPAXI@Z 100f73b0 f i nafxcwd:dlgprnt.obj
 0002:000703b0       ??_ECPrintDialog@@UAEPAXI@Z 100f73b0 f i nafxcwd:dlgprnt.obj
 0002:000703f0       ??1CPrintDialog@@UAE@XZ    100f73f0 f i nafxcwd:dlgprnt.obj
 0002:00071460       ??1CDragListBox@@UAE@XZ    100f8460 f   nafxcwd:winctrl2.obj
 0002:000714c0       ?PreSubclassWindow@CDragListBox@@UAEXXZ 100f84c0 f   nafxcwd:winctrl2.obj
 0002:00071520       ?BeginDrag@CDragListBox@@UAEHVCPoint@@@Z 100f8520 f   nafxcwd:winctrl2.obj
 0002:00071560       ?CancelDrag@CDragListBox@@UAEXVCPoint@@@Z 100f8560 f   nafxcwd:winctrl2.obj
 0002:00071580       ?Dragging@CDragListBox@@UAEIVCPoint@@@Z 100f8580 f   nafxcwd:winctrl2.obj
 0002:000715e0       ?Dropped@CDragListBox@@UAEXHVCPoint@@@Z 100f85e0 f   nafxcwd:winctrl2.obj
 0002:00071720       ?DrawInsert@CDragListBox@@UAEXH@Z 100f8720 f   nafxcwd:winctrl2.obj
 0002:00071760       ?DrawSingle@CDragListBox@@QAEXH@Z 100f8760 f   nafxcwd:winctrl2.obj
 0002:00071870       ?OnChildNotify@CDragListBox@@MAEHIIJPAJ@Z 100f8870 f   nafxcwd:winctrl2.obj
 0002:000719d0       ?GetMessageMap@CToolBarCtrl@@MBEPBUAFX_MSGMAP@@XZ 100f89d0 f   nafxcwd:winctrl2.obj
 0002:000719e0       ?Create@CToolBarCtrl@@UAEHKABUtagRECT@@PAVCWnd@@I@Z 100f89e0 f   nafxcwd:winctrl2.obj
 0002:00071a40       ?CreateEx@CToolBarCtrl@@UAEHKKABUtagRECT@@PAVCWnd@@I@Z 100f8a40 f   nafxcwd:winctrl2.obj
 0002:00071a90       ??1CToolBarCtrl@@UAE@XZ    100f8a90 f   nafxcwd:winctrl2.obj
 0002:00071af0       ?AddBitmap@CToolBarCtrl@@QAEHHPAVCBitmap@@@Z 100f8af0 f   nafxcwd:winctrl2.obj
 0002:00071b50       ?AddBitmap@CToolBarCtrl@@QAEHHI@Z 100f8b50 f   nafxcwd:winctrl2.obj
 0002:00071bd0       ?SaveState@CToolBarCtrl@@QAEXPAUHKEY__@@PBD1@Z 100f8bd0 f   nafxcwd:winctrl2.obj
 0002:00071c30       ?RestoreState@CToolBarCtrl@@QAEXPAUHKEY__@@PBD1@Z 100f8c30 f   nafxcwd:winctrl2.obj
 0002:00071c90       ?AddString@CToolBarCtrl@@QAEHI@Z 100f8c90 f   nafxcwd:winctrl2.obj
 0002:00071d00       ?OnCreate@CToolBarCtrl@@IAEHPAUtagCREATESTRUCTA@@@Z 100f8d00 f   nafxcwd:winctrl2.obj
 0002:00071d30       ?GetDropTarget@CToolBarCtrl@@QBEJPAPAUIDropTarget@@@Z 100f8d30 f   nafxcwd:winctrl2.obj
 0002:00071da0       ?GetString@CToolBarCtrl@@QBEHHAAV?$CStringT@DV?$StrTraitMFC@DV?$ChTraitsCRT@D@ATL@@@@@ATL@@@Z 100f8da0 f   nafxcwd:winctrl2.obj
 0002:00071e60       ?Create@CStatusBarCtrl@@UAEHKABUtagRECT@@PAVCWnd@@I@Z 100f8e60 f   nafxcwd:winctrl2.obj
 0002:00071ec0       ?CreateEx@CStatusBarCtrl@@UAEHKKABUtagRECT@@PAVCWnd@@I@Z 100f8ec0 f   nafxcwd:winctrl2.obj
 0002:00071f10       ??1CStatusBarCtrl@@UAE@XZ  100f8f10 f   nafxcwd:winctrl2.obj
 0002:00071f70       ?GetText@CStatusBarCtrl@@QBEHPBDHPAH@Z 100f8f70 f   nafxcwd:winctrl2.obj
 0002:00072000       ?GetText@CStatusBarCtrl@@QBE?AV?$CStringT@DV?$StrTraitMFC@DV?$ChTraitsCRT@D@ATL@@@@@ATL@@HPAH@Z 100f9000 f   nafxcwd:winctrl2.obj
 0002:00072120       ?GetTextLength@CStatusBarCtrl@@QBEHHPAH@Z 100f9120 f   nafxcwd:winctrl2.obj
 0002:000721b0       ?GetTipText@CStatusBarCtrl@@QBE?AV?$CStringT@DV?$StrTraitMFC@DV?$ChTraitsCRT@D@ATL@@@@@ATL@@H@Z 100f91b0 f   nafxcwd:winctrl2.obj
 0002:00072280       ?GetBorders@CStatusBarCtrl@@QBEHAAH00@Z 100f9280 f   nafxcwd:winctrl2.obj
 0002:000722f0       ?DrawItem@CStatusBarCtrl@@UAEXPAUtagDRAWITEMSTRUCT@@@Z 100f92f0 f   nafxcwd:winctrl2.obj
 0002:00072320       ?OnChildNotify@CStatusBarCtrl@@MAEHIIJPAJ@Z 100f9320 f   nafxcwd:winctrl2.obj
 0002:00072380       ?GetMessageMap@CListCtrl@@MBEPBUAFX_MSGMAP@@XZ 100f9380 f   nafxcwd:winctrl2.obj
 0002:00072390       ?Create@CListCtrl@@UAEHKABUtagRECT@@PAVCWnd@@I@Z 100f9390 f   nafxcwd:winctrl2.obj
 0002:000723f0       ?CreateEx@CListCtrl@@UAEHKKABUtagRECT@@PAVCWnd@@I@Z 100f93f0 f   nafxcwd:winctrl2.obj
 0002:00072440       ??1CListCtrl@@UAE@XZ       100f9440 f   nafxcwd:winctrl2.obj
 0002:000724a0       ?GetItemRect@CListCtrl@@QBEHHPAUtagRECT@@I@Z 100f94a0 f   nafxcwd:winctrl2.obj
 0002:00072500       ?SetItemCountEx@CListCtrl@@QAEHHK@Z 100f9500 f   nafxcwd:winctrl2.obj
 0002:00072580       ?SetIconSpacing@CListCtrl@@QAE?AVCSize@@HH@Z 100f9580 f   nafxcwd:winctrl2.obj
 0002:00072600       ?SetIconSpacing@CListCtrl@@QAE?AVCSize@@V2@@Z 100f9600 f   nafxcwd:winctrl2.obj
 0002:00072680       ?GetSubItemRect@CListCtrl@@QAEHHHHAAVCRect@@@Z 100f9680 f   nafxcwd:winctrl2.obj
 0002:00072720       ?InsertColumn@CListCtrl@@QAEHHPBDHHH@Z 100f9720 f   nafxcwd:winctrl2.obj
 0002:00072780       ?InsertItem@CListCtrl@@QAEHIHPBDIIHJ@Z 100f9780 f   nafxcwd:winctrl2.obj
 0002:00072800       ?HitTest@CListCtrl@@QBEHVCPoint@@PAI@Z 100f9800 f   nafxcwd:winctrl2.obj
 0002:00072870       ?SetItem@CListCtrl@@QAEHHHIPBDHIIJ@Z 100f9870 f   nafxcwd:winctrl2.obj
 0002:000728d0       ?SetItem@CListCtrl@@QAEHHHIPBDHIIJH@Z 100f98d0 f   nafxcwd:winctrl2.obj
 0002:00072980       ?SetItemState@CListCtrl@@QAEHHII@Z 100f9980 f   nafxcwd:winctrl2.obj
 0002:000729e0       ?SetItemText@CListCtrl@@QAEHHHPBD@Z 100f99e0 f   nafxcwd:winctrl2.obj
 0002:00072a60       ?GetItemText@CListCtrl@@QBE?AV?$CStringT@DV?$StrTraitMFC@DV?$ChTraitsCRT@D@ATL@@@@@ATL@@HH@Z 100f9a60 f   nafxcwd:winctrl2.obj
 0002:00072b60       ?GetItemText@CListCtrl@@QBEHHHPADH@Z 100f9b60 f   nafxcwd:winctrl2.obj
 0002:00072bd0       ?GetItemData@CListCtrl@@QBEKH@Z 100f9bd0 f   nafxcwd:winctrl2.obj
 0002:00072c60       ?DrawItem@CListCtrl@@UAEXPAUtagDRAWITEMSTRUCT@@@Z 100f9c60 f   nafxcwd:winctrl2.obj
 0002:00072c90       ?OnChildNotify@CListCtrl@@MAEHIIJPAJ@Z 100f9c90 f   nafxcwd:winctrl2.obj
 0002:00072cf0       ?RemoveImageList@CListCtrl@@IAEXH@Z 100f9cf0 f   nafxcwd:winctrl2.obj
 0002:00072d40       ?OnNcDestroy@CListCtrl@@IAEXXZ 100f9d40 f   nafxcwd:winctrl2.obj
 0002:00072d80       ?CreateDragImage@CListCtrl@@QAEPAVCImageList@@HPAUtagPOINT@@@Z 100f9d80 f   nafxcwd:winctrl2.obj
 0002:00072e70       ?GetMessageMap@CTreeCtrl@@MBEPBUAFX_MSGMAP@@XZ 100f9e70 f   nafxcwd:winctrl2.obj
 0002:00072e80       ?Create@CTreeCtrl@@UAEHKABUtagRECT@@PAVCWnd@@I@Z 100f9e80 f   nafxcwd:winctrl2.obj
 0002:00072ee0       ?CreateEx@CTreeCtrl@@UAEHKKABUtagRECT@@PAVCWnd@@I@Z 100f9ee0 f   nafxcwd:winctrl2.obj
 0002:00072f30       ??1CTreeCtrl@@UAE@XZ       100f9f30 f   nafxcwd:winctrl2.obj
 0002:00072f90       ?GetItemRect@CTreeCtrl@@QBEHPAU_TREEITEM@@PAUtagRECT@@H@Z 100f9f90 f   nafxcwd:winctrl2.obj
 0002:00072ff0       ?GetItemText@CTreeCtrl@@QBE?AV?$CStringT@DV?$StrTraitMFC@DV?$ChTraitsCRT@D@ATL@@@@@ATL@@PAU_TREEITEM@@@Z 100f9ff0 f   nafxcwd:winctrl2.obj
 0002:000730f0       ?GetItemImage@CTreeCtrl@@QBEHPAU_TREEITEM@@AAH1@Z 100fa0f0 f   nafxcwd:winctrl2.obj
 0002:00073170       ?GetItemState@CTreeCtrl@@QBEIPAU_TREEITEM@@I@Z 100fa170 f   nafxcwd:winctrl2.obj
 0002:00073200       ?GetItemData@CTreeCtrl@@QBEKPAU_TREEITEM@@@Z 100fa200 f   nafxcwd:winctrl2.obj
 0002:00073280       ?ItemHasChildren@CTreeCtrl@@QBEHPAU_TREEITEM@@@Z 100fa280 f   nafxcwd:winctrl2.obj
 0002:000732e0       ?SetItem@CTreeCtrl@@QAEHPAU_TREEITEM@@IPBDHHIIJ@Z 100fa2e0 f   nafxcwd:winctrl2.obj
 0002:00073360       ?InsertItem@CTreeCtrl@@QAEPAU_TREEITEM@@IPBDHHIIJPAU2@1@Z 100fa360 f   nafxcwd:winctrl2.obj
 0002:000733f0       ?HitTest@CTreeCtrl@@QBEPAU_TREEITEM@@VCPoint@@PAI@Z 100fa3f0 f   nafxcwd:winctrl2.obj
 0002:00073460       ?RemoveImageList@CTreeCtrl@@IAEXH@Z 100fa460 f   nafxcwd:winctrl2.obj
 0002:000734b0       ?OnDestroy@CTreeCtrl@@QAEXXZ 100fa4b0 f   nafxcwd:winctrl2.obj
 0002:000734e0       ?CreateDragImage@CTreeCtrl@@QAEPAVCImageList@@PAU_TREEITEM@@@Z 100fa4e0 f   nafxcwd:winctrl2.obj
 0002:000735d0       ?GetCheck@CTreeCtrl@@QBEHPAU_TREEITEM@@@Z 100fa5d0 f   nafxcwd:winctrl2.obj
 0002:00073660       ?SetCheck@CTreeCtrl@@QAEHPAU_TREEITEM@@H@Z 100fa660 f   nafxcwd:winctrl2.obj
 0002:000736d0       ?Create@CSpinButtonCtrl@@UAEHKABUtagRECT@@PAVCWnd@@I@Z 100fa6d0 f   nafxcwd:winctrl2.obj
 0002:00073730       ?CreateEx@CSpinButtonCtrl@@UAEHKKABUtagRECT@@PAVCWnd@@I@Z 100fa730 f   nafxcwd:winctrl2.obj
 0002:00073780       ??1CSpinButtonCtrl@@UAE@XZ 100fa780 f   nafxcwd:winctrl2.obj
 0002:000737e0       ?GetRange@CSpinButtonCtrl@@QBEXAAH0@Z 100fa7e0 f   nafxcwd:winctrl2.obj
 0002:00073850       ?Create@CSliderCtrl@@UAEHKABUtagRECT@@PAVCWnd@@I@Z 100fa850 f   nafxcwd:winctrl2.obj
 0002:000738b0       ?CreateEx@CSliderCtrl@@UAEHKKABUtagRECT@@PAVCWnd@@I@Z 100fa8b0 f   nafxcwd:winctrl2.obj
 0002:00073900       ??1CSliderCtrl@@UAE@XZ     100fa900 f   nafxcwd:winctrl2.obj
 0002:00073960       ?GetRange@CSliderCtrl@@QBEXAAH0@Z 100fa960 f   nafxcwd:winctrl2.obj
 0002:000739b0       ?SetRange@CSliderCtrl@@QAEXHHH@Z 100fa9b0 f   nafxcwd:winctrl2.obj
 0002:000739e0       ?GetSelection@CSliderCtrl@@QBEXAAH0@Z 100fa9e0 f   nafxcwd:winctrl2.obj
 0002:00073a50       ?SetSelection@CSliderCtrl@@QAEXHH@Z 100faa50 f   nafxcwd:winctrl2.obj
 0002:00073ac0       ?Create@CProgressCtrl@@UAEHKABUtagRECT@@PAVCWnd@@I@Z 100faac0 f   nafxcwd:winctrl2.obj
 0002:00073b20       ?CreateEx@CProgressCtrl@@UAEHKKABUtagRECT@@PAVCWnd@@I@Z 100fab20 f   nafxcwd:winctrl2.obj
 0002:00073b70       ??1CProgressCtrl@@UAE@XZ   100fab70 f   nafxcwd:winctrl2.obj
 0002:00073bd0       ?Create@CHeaderCtrl@@UAEHKABUtagRECT@@PAVCWnd@@I@Z 100fabd0 f   nafxcwd:winctrl2.obj
 0002:00073c30       ?CreateEx@CHeaderCtrl@@UAEHKKABUtagRECT@@PAVCWnd@@I@Z 100fac30 f   nafxcwd:winctrl2.obj
 0002:00073c80       ??1CHeaderCtrl@@UAE@XZ     100fac80 f   nafxcwd:winctrl2.obj
 0002:00073ce0       ?DrawItem@CHeaderCtrl@@UAEXPAUtagDRAWITEMSTRUCT@@@Z 100face0 f   nafxcwd:winctrl2.obj
 0002:00073d10       ?OnChildNotify@CHeaderCtrl@@MAEHIIJPAJ@Z 100fad10 f   nafxcwd:winctrl2.obj
 0002:00073d70       ?Create@CHotKeyCtrl@@UAEHKABUtagRECT@@PAVCWnd@@I@Z 100fad70 f   nafxcwd:winctrl2.obj
 0002:00073dd0       ?CreateEx@CHotKeyCtrl@@UAEHKKABUtagRECT@@PAVCWnd@@I@Z 100fadd0 f   nafxcwd:winctrl2.obj
 0002:00073e20       ??1CHotKeyCtrl@@UAE@XZ     100fae20 f   nafxcwd:winctrl2.obj
 0002:00073e80       ?GetHotKey@CHotKeyCtrl@@QBEXAAG0@Z 100fae80 f   nafxcwd:winctrl2.obj
 0002:00073f00       ?GetKeyName@CHotKeyCtrl@@SA?AV?$CStringT@DV?$StrTraitMFC@DV?$ChTraitsCRT@D@ATL@@@@@ATL@@IH@Z 100faf00 f   nafxcwd:winctrl2.obj
 0002:00073fe0       ?GetHotKeyName@CHotKeyCtrl@@QBE?AV?$CStringT@DV?$StrTraitMFC@DV?$ChTraitsCRT@D@ATL@@@@@ATL@@XZ 100fafe0 f   nafxcwd:winctrl2.obj
 0002:000741c0       ?GetMessageMap@CTabCtrl@@MBEPBUAFX_MSGMAP@@XZ 100fb1c0 f   nafxcwd:winctrl2.obj
 0002:000741d0       ?Create@CTabCtrl@@UAEHKABUtagRECT@@PAVCWnd@@I@Z 100fb1d0 f   nafxcwd:winctrl2.obj
 0002:00074230       ?CreateEx@CTabCtrl@@UAEHKKABUtagRECT@@PAVCWnd@@I@Z 100fb230 f   nafxcwd:winctrl2.obj
 0002:00074280       ??1CTabCtrl@@UAE@XZ        100fb280 f   nafxcwd:winctrl2.obj
 0002:000742e0       ?DrawItem@CTabCtrl@@UAEXPAUtagDRAWITEMSTRUCT@@@Z 100fb2e0 f   nafxcwd:winctrl2.obj
 0002:00074310       ?OnChildNotify@CTabCtrl@@MAEHIIJPAJ@Z 100fb310 f   nafxcwd:winctrl2.obj
 0002:00074370       ?OnDestroy@CTabCtrl@@IAEXXZ 100fb370 f   nafxcwd:winctrl2.obj
 0002:000743c0       ?GetItemState@CTabCtrl@@QBEKHK@Z 100fb3c0 f   nafxcwd:winctrl2.obj
 0002:00074440       ?SetItemState@CTabCtrl@@QAEHHKK@Z 100fb440 f   nafxcwd:winctrl2.obj
 0002:000744b0       ?InsertItem@CTabCtrl@@QAEJIHPBDHJ@Z 100fb4b0 f   nafxcwd:winctrl2.obj
 0002:00074520       ?InsertItem@CTabCtrl@@QAEJIHPBDHJKK@Z 100fb520 f   nafxcwd:winctrl2.obj
 0002:000745a0       ?Create@CAnimateCtrl@@UAEHKABUtagRECT@@PAVCWnd@@I@Z 100fb5a0 f   nafxcwd:winctrl2.obj
 0002:00074600       ?CreateEx@CAnimateCtrl@@UAEHKKABUtagRECT@@PAVCWnd@@I@Z 100fb600 f   nafxcwd:winctrl2.obj
 0002:00074650       ??1CAnimateCtrl@@UAE@XZ    100fb650 f   nafxcwd:winctrl2.obj
 0002:000746b0       ??1CRichEditCtrl@@UAE@XZ   100fb6b0 f   nafxcwd:winctrl2.obj
 0002:00074710       ?afxMapHIMAGELIST@@YGPAVCHandleMap@@H@Z 100fb710 f   nafxcwd:winctrl2.obj
 0002:000747f0       ??0CImageList@@QAE@XZ      100fb7f0 f   nafxcwd:winctrl2.obj
 0002:00074820       ??1CImageList@@UAE@XZ      100fb820 f   nafxcwd:winctrl2.obj
 0002:00074880       ?Detach@CImageList@@QAEPAU_IMAGELIST@@XZ 100fb880 f   nafxcwd:winctrl2.obj
 0002:000748d0       ?DeleteImageList@CImageList@@QAEHXZ 100fb8d0 f   nafxcwd:winctrl2.obj
 0002:00074900       ?FromHandle@CImageList@@SGPAV1@PAU_IMAGELIST@@@Z 100fb900 f   nafxcwd:winctrl2.obj
 0002:00074970       ?FromHandlePermanent@CImageList@@SGPAV1@PAU_IMAGELIST@@@Z 100fb970 f   nafxcwd:winctrl2.obj
 0002:000749d0       ?Create@CImageList@@QAEHHHIHH@Z 100fb9d0 f   nafxcwd:winctrl2.obj
 0002:00074a00       ?Create@CImageList@@QAEHIHHK@Z 100fba00 f   nafxcwd:winctrl2.obj
 0002:00074a80       ?Create@CImageList@@QAEHPBDHHK@Z 100fba80 f   nafxcwd:winctrl2.obj
 0002:00074ae0       ?Create@CImageList@@QAEHAAV1@H0HHH@Z 100fbae0 f   nafxcwd:winctrl2.obj
 0002:00074b20       ?Attach@CImageList@@QAEHPAU_IMAGELIST@@@Z 100fbb20 f   nafxcwd:winctrl2.obj
 0002:00074bc0       ?Read@CImageList@@QAEHPAVCArchive@@@Z 100fbbc0 f   nafxcwd:winctrl2.obj
 0002:00074c50       ?Write@CImageList@@QAEHPAVCArchive@@@Z 100fbc50 f   nafxcwd:winctrl2.obj
 0002:00074ce0       ?Dump@CImageList@@UBEXAAVCDumpContext@@@Z 100fbce0 f   nafxcwd:winctrl2.obj
 0002:00074d30       ?AssertValid@CImageList@@UBEXXZ 100fbd30 f   nafxcwd:winctrl2.obj
 0002:00074de0       ??0CDragListBox@@QAE@XZ    100fbde0 f   nafxcwd:winctrl2.obj
 0002:00074e10       ?ItemFromPt@CDragListBox@@QBEHVCPoint@@H@Z 100fbe10 f   nafxcwd:winctrl2.obj
 0002:00074e70       ??0CToolBarCtrl@@QAE@XZ    100fbe70 f   nafxcwd:winctrl2.obj
 0002:00074e90       ?EnableButton@CToolBarCtrl@@QAEHHH@Z 100fbe90 f   nafxcwd:winctrl2.obj
 0002:00074ef0       ?CheckButton@CToolBarCtrl@@QAEHHH@Z 100fbef0 f   nafxcwd:winctrl2.obj
 0002:00074f50       ?PressButton@CToolBarCtrl@@QAEHHH@Z 100fbf50 f   nafxcwd:winctrl2.obj
 0002:00074fb0       ?HideButton@CToolBarCtrl@@QAEHHH@Z 100fbfb0 f   nafxcwd:winctrl2.obj
 0002:00075010       ?Indeterminate@CToolBarCtrl@@QAEHHH@Z 100fc010 f   nafxcwd:winctrl2.obj
 0002:00075070       ?IsButtonEnabled@CToolBarCtrl@@QBEHH@Z 100fc070 f   nafxcwd:winctrl2.obj
 0002:000750c0       ?IsButtonChecked@CToolBarCtrl@@QBEHH@Z 100fc0c0 f   nafxcwd:winctrl2.obj
 0002:00075110       ?IsButtonPressed@CToolBarCtrl@@QBEHH@Z 100fc110 f   nafxcwd:winctrl2.obj
 0002:00075160       ?IsButtonHidden@CToolBarCtrl@@QBEHH@Z 100fc160 f   nafxcwd:winctrl2.obj
 0002:000751b0       ?IsButtonIndeterminate@CToolBarCtrl@@QBEHH@Z 100fc1b0 f   nafxcwd:winctrl2.obj
 0002:00075200       ?SetState@CToolBarCtrl@@QAEHHI@Z 100fc200 f   nafxcwd:winctrl2.obj
 0002:00075260       ?GetState@CToolBarCtrl@@QBEHH@Z 100fc260 f   nafxcwd:winctrl2.obj
 0002:000752b0       ?AddButtons@CToolBarCtrl@@QAEHHPAU_TBBUTTON@@@Z 100fc2b0 f   nafxcwd:winctrl2.obj
 0002:00075300       ?InsertButton@CToolBarCtrl@@QAEHHPAU_TBBUTTON@@@Z 100fc300 f   nafxcwd:winctrl2.obj
 0002:00075350       ?DeleteButton@CToolBarCtrl@@QAEHH@Z 100fc350 f   nafxcwd:winctrl2.obj
 0002:000753a0       ?GetButton@CToolBarCtrl@@QBEHHPAU_TBBUTTON@@@Z 100fc3a0 f   nafxcwd:winctrl2.obj
 0002:000753f0       ?GetButtonCount@CToolBarCtrl@@QBEHXZ 100fc3f0 f   nafxcwd:winctrl2.obj
 0002:00075440       ?CommandToIndex@CToolBarCtrl@@QBEII@Z 100fc440 f   nafxcwd:winctrl2.obj
 0002:00075490       ?Customize@CToolBarCtrl@@QAEXXZ 100fc490 f   nafxcwd:winctrl2.obj
 0002:000754e0       ?AddStrings@CToolBarCtrl@@QAEHPBD@Z 100fc4e0 f   nafxcwd:winctrl2.obj
 0002:00075530       ?GetItemRect@CToolBarCtrl@@QBEHHPAUtagRECT@@@Z 100fc530 f   nafxcwd:winctrl2.obj
 0002:00075580       ?SetButtonStructSize@CToolBarCtrl@@QAEXH@Z 100fc580 f   nafxcwd:winctrl2.obj
 0002:000755d0       ?SetButtonSize@CToolBarCtrl@@QAEHVCSize@@@Z 100fc5d0 f   nafxcwd:winctrl2.obj
 0002:00075630       ?SetBitmapSize@CToolBarCtrl@@QAEHVCSize@@@Z 100fc630 f   nafxcwd:winctrl2.obj
 0002:00075690       ?AutoSize@CToolBarCtrl@@QAEXXZ 100fc690 f   nafxcwd:winctrl2.obj
 0002:000756e0       ?GetToolTips@CToolBarCtrl@@QBEPAVCToolTipCtrl@@XZ 100fc6e0 f   nafxcwd:winctrl2.obj
 0002:00075730       ?SetToolTips@CToolBarCtrl@@QAEXPAVCToolTipCtrl@@@Z 100fc730 f   nafxcwd:winctrl2.obj
 0002:00075780       ?SetOwner@CToolBarCtrl@@QAEXPAVCWnd@@@Z 100fc780 f   nafxcwd:winctrl2.obj
 0002:000757d0       ?SetRows@CToolBarCtrl@@QAEXHHPAUtagRECT@@@Z 100fc7d0 f   nafxcwd:winctrl2.obj
 0002:00075840       ?GetRows@CToolBarCtrl@@QBEHXZ 100fc840 f   nafxcwd:winctrl2.obj
 0002:00075890       ?SetCmdID@CToolBarCtrl@@QAEHHI@Z 100fc890 f   nafxcwd:winctrl2.obj
 0002:000758e0       ?GetBitmapFlags@CToolBarCtrl@@QBEIXZ 100fc8e0 f   nafxcwd:winctrl2.obj
 0002:00075930       ?GetBitmap@CToolBarCtrl@@QBEHH@Z 100fc930 f   nafxcwd:winctrl2.obj
 0002:00075980       ?HitTest@CToolBarCtrl@@QBEHPAUtagPOINT@@@Z 100fc980 f   nafxcwd:winctrl2.obj
 0002:000759d0       ?GetExtendedStyle@CToolBarCtrl@@QBEKXZ 100fc9d0 f   nafxcwd:winctrl2.obj
 0002:00075a20       ?SetExtendedStyle@CToolBarCtrl@@QAEKK@Z 100fca20 f   nafxcwd:winctrl2.obj
 0002:00075a70       ?GetInsertMarkColor@CToolBarCtrl@@QBEKXZ 100fca70 f   nafxcwd:winctrl2.obj
 0002:00075ac0       ?SetInsertMarkColor@CToolBarCtrl@@QAEKK@Z 100fcac0 f   nafxcwd:winctrl2.obj
 0002:00075b10       ??0CStatusBarCtrl@@QAE@XZ  100fcb10 f   nafxcwd:winctrl2.obj
 0002:00075b30       ?SetText@CStatusBarCtrl@@QAEHPBDHH@Z 100fcb30 f   nafxcwd:winctrl2.obj
 0002:00075ba0       ?SetParts@CStatusBarCtrl@@QAEHHPAH@Z 100fcba0 f   nafxcwd:winctrl2.obj
 0002:00075bf0       ?GetParts@CStatusBarCtrl@@QBEHHPAH@Z 100fcbf0 f   nafxcwd:winctrl2.obj
 0002:00075c40       ?GetBorders@CStatusBarCtrl@@QBEHPAH@Z 100fcc40 f   nafxcwd:winctrl2.obj
 0002:00075c90       ?SetMinHeight@CStatusBarCtrl@@QAEXH@Z 100fcc90 f   nafxcwd:winctrl2.obj
 0002:00075ce0       ?SetSimple@CStatusBarCtrl@@QAEHH@Z 100fcce0 f   nafxcwd:winctrl2.obj
 0002:00075d30       ?GetRect@CStatusBarCtrl@@QBEHHPAUtagRECT@@@Z 100fcd30 f   nafxcwd:winctrl2.obj
 0002:00075d80       ??0CListCtrl@@QAE@XZ       100fcd80 f   nafxcwd:winctrl2.obj
 0002:00075da0       ?GetToolTips@CListCtrl@@QBEPAVCToolTipCtrl@@XZ 100fcda0 f   nafxcwd:winctrl2.obj
 0002:00075df0       ?SetToolTips@CListCtrl@@QAEPAVCToolTipCtrl@@PAV2@@Z 100fcdf0 f   nafxcwd:winctrl2.obj
 0002:00075e50       ?GetBkColor@CListCtrl@@QBEKXZ 100fce50 f   nafxcwd:winctrl2.obj
 0002:00075ea0       ?SetBkColor@CListCtrl@@QAEHK@Z 100fcea0 f   nafxcwd:winctrl2.obj
 0002:00075ef0       ?GetImageList@CListCtrl@@QBEPAVCImageList@@H@Z 100fcef0 f   nafxcwd:winctrl2.obj
 0002:00075f40       ?SetImageList@CListCtrl@@QAEPAVCImageList@@PAV2@H@Z 100fcf40 f   nafxcwd:winctrl2.obj
 0002:00075fa0       ?GetItemCount@CListCtrl@@QBEHXZ 100fcfa0 f   nafxcwd:winctrl2.obj
 0002:00075ff0       ?GetItem@CListCtrl@@QBEHPAUtagLVITEMA@@@Z 100fcff0 f   nafxcwd:winctrl2.obj
 0002:00076040       ?SetItem@CListCtrl@@QAEHPBUtagLVITEMA@@@Z 100fd040 f   nafxcwd:winctrl2.obj
 0002:00076090       ?SetItemData@CListCtrl@@QAEHHK@Z 100fd090 f   nafxcwd:winctrl2.obj
 0002:000760e0       ?InsertItem@CListCtrl@@QAEHPBUtagLVITEMA@@@Z 100fd0e0 f   nafxcwd:winctrl2.obj
 0002:00076130       ?InsertItem@CListCtrl@@QAEHHPBD@Z 100fd130 f   nafxcwd:winctrl2.obj
 0002:00076180       ?InsertItem@CListCtrl@@QAEHHPBDH@Z 100fd180 f   nafxcwd:winctrl2.obj
 0002:000761d0       ?DeleteItem@CListCtrl@@QAEHH@Z 100fd1d0 f   nafxcwd:winctrl2.obj
 0002:00076220       ?DeleteAllItems@CListCtrl@@QAEHXZ 100fd220 f   nafxcwd:winctrl2.obj
 0002:00076270       ?GetCallbackMask@CListCtrl@@QBEIXZ 100fd270 f   nafxcwd:winctrl2.obj
 0002:000762c0       ?SetCallbackMask@CListCtrl@@QAEHI@Z 100fd2c0 f   nafxcwd:winctrl2.obj
 0002:00076310       ?GetNextItem@CListCtrl@@QBEHHH@Z 100fd310 f   nafxcwd:winctrl2.obj
 0002:00076370       ?GetFirstSelectedItemPosition@CListCtrl@@QBEPAU__POSITION@@XZ 100fd370 f   nafxcwd:winctrl2.obj
 0002:000763b0       ?GetNextSelectedItem@CListCtrl@@QBEHAAPAU__POSITION@@@Z 100fd3b0 f   nafxcwd:winctrl2.obj
 0002:00076410       ?FindItem@CListCtrl@@QBEHPAUtagLVFINDINFOA@@H@Z 100fd410 f   nafxcwd:winctrl2.obj
 0002:00076460       ?HitTest@CListCtrl@@QBEHPAUtagLVHITTESTINFO@@@Z 100fd460 f   nafxcwd:winctrl2.obj
 0002:000764b0       ?SetItemPosition@CListCtrl@@QAEHHUtagPOINT@@@Z 100fd4b0 f   nafxcwd:winctrl2.obj
 0002:00076520       ?GetItemPosition@CListCtrl@@QBEHHPAUtagPOINT@@@Z 100fd520 f   nafxcwd:winctrl2.obj
 0002:00076570       ?GetStringWidth@CListCtrl@@QBEHPBD@Z 100fd570 f   nafxcwd:winctrl2.obj
 0002:000765c0       ?EnsureVisible@CListCtrl@@QAEHHH@Z 100fd5c0 f   nafxcwd:winctrl2.obj
 0002:00076620       ?Scroll@CListCtrl@@QAEHVCSize@@@Z 100fd620 f   nafxcwd:winctrl2.obj
 0002:00076670       ?RedrawItems@CListCtrl@@QAEHHH@Z 100fd670 f   nafxcwd:winctrl2.obj
 0002:000766c0       ?Arrange@CListCtrl@@QAEHI@Z 100fd6c0 f   nafxcwd:winctrl2.obj
 0002:00076710       ?EditLabel@CListCtrl@@QAEPAVCEdit@@H@Z 100fd710 f   nafxcwd:winctrl2.obj
 0002:00076760       ?GetEditControl@CListCtrl@@QBEPAVCEdit@@XZ 100fd760 f   nafxcwd:winctrl2.obj
 0002:000767b0       ?GetColumn@CListCtrl@@QBEHHPAUtagLVCOLUMNA@@@Z 100fd7b0 f   nafxcwd:winctrl2.obj
 0002:00076800       ?SetColumn@CListCtrl@@QAEHHPBUtagLVCOLUMNA@@@Z 100fd800 f   nafxcwd:winctrl2.obj
 0002:00076850       ?InsertColumn@CListCtrl@@QAEHHPBUtagLVCOLUMNA@@@Z 100fd850 f   nafxcwd:winctrl2.obj
 0002:000768a0       ?DeleteColumn@CListCtrl@@QAEHH@Z 100fd8a0 f   nafxcwd:winctrl2.obj
 0002:000768f0       ?GetColumnWidth@CListCtrl@@QBEHH@Z 100fd8f0 f   nafxcwd:winctrl2.obj
 0002:00076940       ?SetColumnWidth@CListCtrl@@QAEHHH@Z 100fd940 f   nafxcwd:winctrl2.obj
 0002:000769a0       ?GetViewRect@CListCtrl@@QBEHPAUtagRECT@@@Z 100fd9a0 f   nafxcwd:winctrl2.obj
 0002:000769f0       ?GetTextColor@CListCtrl@@QBEKXZ 100fd9f0 f   nafxcwd:winctrl2.obj
 0002:00076a40       ?SetTextColor@CListCtrl@@QAEHK@Z 100fda40 f   nafxcwd:winctrl2.obj
 0002:00076a90       ?GetTextBkColor@CListCtrl@@QBEKXZ 100fda90 f   nafxcwd:winctrl2.obj
 0002:00076ae0       ?SetTextBkColor@CListCtrl@@QAEHK@Z 100fdae0 f   nafxcwd:winctrl2.obj
 0002:00076b30       ?GetTopIndex@CListCtrl@@QBEHXZ 100fdb30 f   nafxcwd:winctrl2.obj
 0002:00076b80       ?GetCountPerPage@CListCtrl@@QBEHXZ 100fdb80 f   nafxcwd:winctrl2.obj
 0002:00076bd0       ?GetOrigin@CListCtrl@@QBEHPAUtagPOINT@@@Z 100fdbd0 f   nafxcwd:winctrl2.obj
 0002:00076c20       ?Update@CListCtrl@@QAEHH@Z 100fdc20 f   nafxcwd:winctrl2.obj
 0002:00076c70       ?SetItemState@CListCtrl@@QAEHHPAUtagLVITEMA@@@Z 100fdc70 f   nafxcwd:winctrl2.obj
 0002:00076cc0       ?GetItemState@CListCtrl@@QBEIHI@Z 100fdcc0 f   nafxcwd:winctrl2.obj
 0002:00076d10       ?SetItemCount@CListCtrl@@QAEXH@Z 100fdd10 f   nafxcwd:winctrl2.obj
 0002:00076d60       ?SortItems@CListCtrl@@QAEHP6GHJJJ@ZK@Z 100fdd60 f   nafxcwd:winctrl2.obj
 0002:00076dd0       ?GetSelectedCount@CListCtrl@@QBEIXZ 100fddd0 f   nafxcwd:winctrl2.obj
 0002:00076e20       ??0CTreeCtrl@@QAE@XZ       100fde20 f   nafxcwd:winctrl2.obj
 0002:00076e40       ?InsertItem@CTreeCtrl@@QAEPAU_TREEITEM@@PAUtagTVINSERTSTRUCTA@@@Z 100fde40 f   nafxcwd:winctrl2.obj
 0002:00076e90       ?InsertItem@CTreeCtrl@@QAEPAU_TREEITEM@@PBDHHPAU2@1@Z 100fde90 f   nafxcwd:winctrl2.obj
 0002:00076ef0       ?InsertItem@CTreeCtrl@@QAEPAU_TREEITEM@@PBDPAU2@1@Z 100fdef0 f   nafxcwd:winctrl2.obj
 0002:00076f50       ?DeleteItem@CTreeCtrl@@QAEHPAU_TREEITEM@@@Z 100fdf50 f   nafxcwd:winctrl2.obj
 0002:00076fa0       ?DeleteAllItems@CTreeCtrl@@QAEHXZ 100fdfa0 f   nafxcwd:winctrl2.obj
 0002:00076ff0       ?Expand@CTreeCtrl@@QAEHPAU_TREEITEM@@I@Z 100fdff0 f   nafxcwd:winctrl2.obj
 0002:00077040       ?GetCount@CTreeCtrl@@QBEIXZ 100fe040 f   nafxcwd:winctrl2.obj
 0002:00077090       ?GetIndent@CTreeCtrl@@QBEIXZ 100fe090 f   nafxcwd:winctrl2.obj
 0002:000770e0       ?SetIndent@CTreeCtrl@@QAEXI@Z 100fe0e0 f   nafxcwd:winctrl2.obj
 0002:00077130       ?GetImageList@CTreeCtrl@@QBEPAVCImageList@@I@Z 100fe130 f   nafxcwd:winctrl2.obj
 0002:00077180       ?SetImageList@CTreeCtrl@@QAEPAVCImageList@@PAV2@H@Z 100fe180 f   nafxcwd:winctrl2.obj
 0002:000771e0       ?SetScrollTime@CTreeCtrl@@QAEII@Z 100fe1e0 f   nafxcwd:winctrl2.obj
 0002:00077230       ?GetNextItem@CTreeCtrl@@QBEPAU_TREEITEM@@PAU2@I@Z 100fe230 f   nafxcwd:winctrl2.obj
 0002:00077280       ?GetChildItem@CTreeCtrl@@QBEPAU_TREEITEM@@PAU2@@Z 100fe280 f   nafxcwd:winctrl2.obj
 0002:000772d0       ?GetNextSiblingItem@CTreeCtrl@@QBEPAU_TREEITEM@@PAU2@@Z 100fe2d0 f   nafxcwd:winctrl2.obj
 0002:00077320       ?GetPrevSiblingItem@CTreeCtrl@@QBEPAU_TREEITEM@@PAU2@@Z 100fe320 f   nafxcwd:winctrl2.obj
 0002:00077370       ?GetParentItem@CTreeCtrl@@QBEPAU_TREEITEM@@PAU2@@Z 100fe370 f   nafxcwd:winctrl2.obj
 0002:000773c0       ?GetFirstVisibleItem@CTreeCtrl@@QBEPAU_TREEITEM@@XZ 100fe3c0 f   nafxcwd:winctrl2.obj
 0002:00077410       ?GetNextVisibleItem@CTreeCtrl@@QBEPAU_TREEITEM@@PAU2@@Z 100fe410 f   nafxcwd:winctrl2.obj
 0002:00077460       ?GetPrevVisibleItem@CTreeCtrl@@QBEPAU_TREEITEM@@PAU2@@Z 100fe460 f   nafxcwd:winctrl2.obj
 0002:000774b0       ?GetSelectedItem@CTreeCtrl@@QBEPAU_TREEITEM@@XZ 100fe4b0 f   nafxcwd:winctrl2.obj
 0002:00077500       ?GetScrollTime@CTreeCtrl@@QBEIXZ 100fe500 f   nafxcwd:winctrl2.obj
 0002:00077550       ?GetDropHilightItem@CTreeCtrl@@QBEPAU_TREEITEM@@XZ 100fe550 f   nafxcwd:winctrl2.obj
 0002:000775a0       ?GetRootItem@CTreeCtrl@@QBEPAU_TREEITEM@@XZ 100fe5a0 f   nafxcwd:winctrl2.obj
 0002:000775f0       ?Select@CTreeCtrl@@QAEHPAU_TREEITEM@@I@Z 100fe5f0 f   nafxcwd:winctrl2.obj
 0002:00077640       ?SelectItem@CTreeCtrl@@QAEHPAU_TREEITEM@@@Z 100fe640 f   nafxcwd:winctrl2.obj
 0002:00077690       ?SelectDropTarget@CTreeCtrl@@QAEHPAU_TREEITEM@@@Z 100fe690 f   nafxcwd:winctrl2.obj
 0002:000776e0       ?SelectSetFirstVisible@CTreeCtrl@@QAEHPAU_TREEITEM@@@Z 100fe6e0 f   nafxcwd:winctrl2.obj
 0002:00077730       ?GetItem@CTreeCtrl@@QBEHPAUtagTVITEMA@@@Z 100fe730 f   nafxcwd:winctrl2.obj
 0002:00077780       ?SetItem@CTreeCtrl@@QAEHPAUtagTVITEMA@@@Z 100fe780 f   nafxcwd:winctrl2.obj
 0002:000777d0       ?SetItemText@CTreeCtrl@@QAEHPAU_TREEITEM@@PBD@Z 100fe7d0 f   nafxcwd:winctrl2.obj
 0002:00077820       ?SetItemImage@CTreeCtrl@@QAEHPAU_TREEITEM@@HH@Z 100fe820 f   nafxcwd:winctrl2.obj
 0002:00077870       ?SetItemState@CTreeCtrl@@QAEHPAU_TREEITEM@@II@Z 100fe870 f   nafxcwd:winctrl2.obj
 0002:000778c0       ?SetItemData@CTreeCtrl@@QAEHPAU_TREEITEM@@K@Z 100fe8c0 f   nafxcwd:winctrl2.obj
 0002:00077910       ?EditLabel@CTreeCtrl@@QAEPAVCEdit@@PAU_TREEITEM@@@Z 100fe910 f   nafxcwd:winctrl2.obj
 0002:00077960       ?HitTest@CTreeCtrl@@QBEPAU_TREEITEM@@PAUtagTVHITTESTINFO@@@Z 100fe960 f   nafxcwd:winctrl2.obj
 0002:000779b0       ?GetEditControl@CTreeCtrl@@QBEPAVCEdit@@XZ 100fe9b0 f   nafxcwd:winctrl2.obj
 0002:00077a00       ?GetVisibleCount@CTreeCtrl@@QBEIXZ 100fea00 f   nafxcwd:winctrl2.obj
 0002:00077a50       ?SortChildren@CTreeCtrl@@QAEHPAU_TREEITEM@@@Z 100fea50 f   nafxcwd:winctrl2.obj
 0002:00077aa0       ?EnsureVisible@CTreeCtrl@@QAEHPAU_TREEITEM@@@Z 100feaa0 f   nafxcwd:winctrl2.obj
 0002:00077af0       ?SortChildrenCB@CTreeCtrl@@QAEHPAUtagTVSORTCB@@@Z 100feaf0 f   nafxcwd:winctrl2.obj
 0002:00077b40       ?GetToolTips@CTreeCtrl@@QBEPAVCToolTipCtrl@@XZ 100feb40 f   nafxcwd:winctrl2.obj
 0002:00077b90       ?SetToolTips@CTreeCtrl@@QAEPAVCToolTipCtrl@@PAV2@@Z 100feb90 f   nafxcwd:winctrl2.obj
 0002:00077bf0       ?GetBkColor@CTreeCtrl@@QBEKXZ 100febf0 f   nafxcwd:winctrl2.obj
 0002:00077c40       ?SetBkColor@CTreeCtrl@@QAEKK@Z 100fec40 f   nafxcwd:winctrl2.obj
 0002:00077c90       ?GetItemHeight@CTreeCtrl@@QBEFXZ 100fec90 f   nafxcwd:winctrl2.obj
 0002:00077ce0       ?SetItemHeight@CTreeCtrl@@QAEFF@Z 100fece0 f   nafxcwd:winctrl2.obj
 0002:00077d30       ?GetTextColor@CTreeCtrl@@QBEKXZ 100fed30 f   nafxcwd:winctrl2.obj
 0002:00077d80       ?SetTextColor@CTreeCtrl@@QAEKK@Z 100fed80 f   nafxcwd:winctrl2.obj
 0002:00077dd0       ?SetInsertMark@CTreeCtrl@@QAEHPAU_TREEITEM@@H@Z 100fedd0 f   nafxcwd:winctrl2.obj
 0002:00077e20       ?GetInsertMarkColor@CTreeCtrl@@QBEKXZ 100fee20 f   nafxcwd:winctrl2.obj
 0002:00077e70       ?SetInsertMarkColor@CTreeCtrl@@QAEKK@Z 100fee70 f   nafxcwd:winctrl2.obj
 0002:00077ec0       ?GetLineColor@CTreeCtrl@@QBEKXZ 100feec0 f   nafxcwd:winctrl2.obj
 0002:00077f10       ?SetLineColor@CTreeCtrl@@QAEKK@Z 100fef10 f   nafxcwd:winctrl2.obj
 0002:00077f60       ??0CHotKeyCtrl@@QAE@XZ     100fef60 f   nafxcwd:winctrl2.obj
 0002:00077f80       ?SetHotKey@CHotKeyCtrl@@QAEXGG@Z 100fef80 f   nafxcwd:winctrl2.obj
 0002:00077ff0       ?GetHotKey@CHotKeyCtrl@@QBEKXZ 100feff0 f   nafxcwd:winctrl2.obj
 0002:00078040       ?SetRules@CHotKeyCtrl@@QAEXGG@Z 100ff040 f   nafxcwd:winctrl2.obj
 0002:000780a0       ?Activate@CToolTipCtrl@@QAEXH@Z 100ff0a0 f   nafxcwd:winctrl2.obj
 0002:000780f0       ?SetToolInfo@CToolTipCtrl@@QAEXPAUtagTOOLINFOA@@@Z 100ff0f0 f   nafxcwd:winctrl2.obj
 0002:00078140       ?RelayEvent@CToolTipCtrl@@QAEXPAUtagMSG@@@Z 100ff140 f   nafxcwd:winctrl2.obj
 0002:00078190       ?GetToolCount@CToolTipCtrl@@QBEHXZ 100ff190 f   nafxcwd:winctrl2.obj
 0002:000781e0       ??0CSpinButtonCtrl@@QAE@XZ 100ff1e0 f   nafxcwd:winctrl2.obj
 0002:00078200       ?GetAccel@CSpinButtonCtrl@@QBEIHPAU_UDACCEL@@@Z 100ff200 f   nafxcwd:winctrl2.obj
 0002:00078260       ?GetBase@CSpinButtonCtrl@@QBEIXZ 100ff260 f   nafxcwd:winctrl2.obj
 0002:000782b0       ?GetBuddy@CSpinButtonCtrl@@QBEPAVCWnd@@XZ 100ff2b0 f   nafxcwd:winctrl2.obj
 0002:00078300       ?GetPos@CSpinButtonCtrl@@QBEHXZ 100ff300 f   nafxcwd:winctrl2.obj
 0002:00078350       ?GetRange@CSpinButtonCtrl@@QBEKXZ 100ff350 f   nafxcwd:winctrl2.obj
 0002:000783a0       ?SetAccel@CSpinButtonCtrl@@QAEHHPAU_UDACCEL@@@Z 100ff3a0 f   nafxcwd:winctrl2.obj
 0002:00078400       ?SetBase@CSpinButtonCtrl@@QAEHH@Z 100ff400 f   nafxcwd:winctrl2.obj
 0002:00078450       ?SetBuddy@CSpinButtonCtrl@@QAEPAVCWnd@@PAV2@@Z 100ff450 f   nafxcwd:winctrl2.obj
 0002:000784b0       ?SetPos@CSpinButtonCtrl@@QAEHH@Z 100ff4b0 f   nafxcwd:winctrl2.obj
 0002:00078510       ?SetRange@CSpinButtonCtrl@@QAEXFF@Z 100ff510 f   nafxcwd:winctrl2.obj
 0002:00078580       ??0CSliderCtrl@@QAE@XZ     100ff580 f   nafxcwd:winctrl2.obj
 0002:000785a0       ?GetLineSize@CSliderCtrl@@QBEHXZ 100ff5a0 f   nafxcwd:winctrl2.obj
 0002:000785f0       ?SetLineSize@CSliderCtrl@@QAEHH@Z 100ff5f0 f   nafxcwd:winctrl2.obj
 0002:00078640       ?GetPageSize@CSliderCtrl@@QBEHXZ 100ff640 f   nafxcwd:winctrl2.obj
 0002:00078690       ?SetPageSize@CSliderCtrl@@QAEHH@Z 100ff690 f   nafxcwd:winctrl2.obj
 0002:000786e0       ?GetRangeMax@CSliderCtrl@@QBEHXZ 100ff6e0 f   nafxcwd:winctrl2.obj
 0002:00078730       ?GetRangeMin@CSliderCtrl@@QBEHXZ 100ff730 f   nafxcwd:winctrl2.obj
 0002:00078780       ?SetRangeMin@CSliderCtrl@@QAEXHH@Z 100ff780 f   nafxcwd:winctrl2.obj
 0002:000787d0       ?SetRangeMax@CSliderCtrl@@QAEXHH@Z 100ff7d0 f   nafxcwd:winctrl2.obj
 0002:00078820       ?ClearSel@CSliderCtrl@@QAEXH@Z 100ff820 f   nafxcwd:winctrl2.obj
 0002:00078870       ?GetChannelRect@CSliderCtrl@@QBEXPAUtagRECT@@@Z 100ff870 f   nafxcwd:winctrl2.obj
 0002:000788c0       ?GetThumbRect@CSliderCtrl@@QBEXPAUtagRECT@@@Z 100ff8c0 f   nafxcwd:winctrl2.obj
 0002:00078910       ?GetPos@CSliderCtrl@@QBEHXZ 100ff910 f   nafxcwd:winctrl2.obj
 0002:00078960       ?SetPos@CSliderCtrl@@QAEXH@Z 100ff960 f   nafxcwd:winctrl2.obj
 0002:000789b0       ?ClearTics@CSliderCtrl@@QAEXH@Z 100ff9b0 f   nafxcwd:winctrl2.obj
 0002:00078a00       ?GetNumTics@CSliderCtrl@@QBEIXZ 100ffa00 f   nafxcwd:winctrl2.obj
 0002:00078a50       ?GetTicArray@CSliderCtrl@@QBEPAKXZ 100ffa50 f   nafxcwd:winctrl2.obj
 0002:00078aa0       ?GetTic@CSliderCtrl@@QBEHH@Z 100ffaa0 f   nafxcwd:winctrl2.obj
 0002:00078af0       ?GetTicPos@CSliderCtrl@@QBEHH@Z 100ffaf0 f   nafxcwd:winctrl2.obj
 0002:00078b40       ?SetTic@CSliderCtrl@@QAEHH@Z 100ffb40 f   nafxcwd:winctrl2.obj
 0002:00078b90       ?SetTicFreq@CSliderCtrl@@QAEXH@Z 100ffb90 f   nafxcwd:winctrl2.obj
 0002:00078be0       ?GetBuddy@CSliderCtrl@@QBEPAVCWnd@@H@Z 100ffbe0 f   nafxcwd:winctrl2.obj
 0002:00078c30       ?SetBuddy@CSliderCtrl@@QAEPAVCWnd@@PAV2@H@Z 100ffc30 f   nafxcwd:winctrl2.obj
 0002:00078c90       ?GetToolTips@CSliderCtrl@@QBEPAVCToolTipCtrl@@XZ 100ffc90 f   nafxcwd:winctrl2.obj
 0002:00078ce0       ?SetToolTips@CSliderCtrl@@QAEXPAVCToolTipCtrl@@@Z 100ffce0 f   nafxcwd:winctrl2.obj
 0002:00078d30       ?SetTipSide@CSliderCtrl@@QAEHH@Z 100ffd30 f   nafxcwd:winctrl2.obj
 0002:00078d80       ??0CProgressCtrl@@QAE@XZ   100ffd80 f   nafxcwd:winctrl2.obj
 0002:00078da0       ?SetBkColor@CProgressCtrl@@QAEKK@Z 100ffda0 f   nafxcwd:winctrl2.obj
 0002:00078df0       ?SetRange@CProgressCtrl@@QAEXFF@Z 100ffdf0 f   nafxcwd:winctrl2.obj
 0002:00078e60       ?SetRange32@CProgressCtrl@@QAEXHH@Z 100ffe60 f   nafxcwd:winctrl2.obj
 0002:00078eb0       ?GetPos@CProgressCtrl@@QAEHXZ 100ffeb0 f   nafxcwd:winctrl2.obj
 0002:00078f00       ?OffsetPos@CProgressCtrl@@QAEHH@Z 100fff00 f   nafxcwd:winctrl2.obj
 0002:00078f50       ?SetStep@CProgressCtrl@@QAEHH@Z 100fff50 f   nafxcwd:winctrl2.obj
 0002:00078fa0       ?StepIt@CProgressCtrl@@QAEHXZ 100fffa0 f   nafxcwd:winctrl2.obj
 0002:00078ff0       ??0CHeaderCtrl@@QAE@XZ     100ffff0 f   nafxcwd:winctrl2.obj
 0002:00079010       ?GetItemCount@CHeaderCtrl@@QBEHXZ 10100010 f   nafxcwd:winctrl2.obj
 0002:00079060       ?InsertItem@CHeaderCtrl@@QAEHHPAU_HD_ITEMA@@@Z 10100060 f   nafxcwd:winctrl2.obj
 0002:000790b0       ?DeleteItem@CHeaderCtrl@@QAEHH@Z 101000b0 f   nafxcwd:winctrl2.obj
 0002:00079100       ?GetItem@CHeaderCtrl@@QBEHHPAU_HD_ITEMA@@@Z 10100100 f   nafxcwd:winctrl2.obj
 0002:00079150       ?SetItem@CHeaderCtrl@@QAEHHPAU_HD_ITEMA@@@Z 10100150 f   nafxcwd:winctrl2.obj
 0002:000791a0       ?Layout@CHeaderCtrl@@QAEHPAU_HD_LAYOUT@@@Z 101001a0 f   nafxcwd:winctrl2.obj
 0002:000791f0       ??BCImageList@@QBEPAU_IMAGELIST@@XZ 101001f0 f   nafxcwd:winctrl2.obj
 0002:00079210       ?GetSafeHandle@CImageList@@QBEPAU_IMAGELIST@@XZ 10100210 f   nafxcwd:winctrl2.obj
 0002:00079240       ?GetImageCount@CImageList@@QBEHXZ 10100240 f   nafxcwd:winctrl2.obj
 0002:00079280       ?Add@CImageList@@QAEHPAVCBitmap@@0@Z 10100280 f   nafxcwd:winctrl2.obj
 0002:000792d0       ?Add@CImageList@@QAEHPAVCBitmap@@K@Z 101002d0 f   nafxcwd:winctrl2.obj
 0002:00079320       ?Remove@CImageList@@QAEHH@Z 10100320 f   nafxcwd:winctrl2.obj
 0002:00079360       ?Replace@CImageList@@QAEHHPAVCBitmap@@0@Z 10100360 f   nafxcwd:winctrl2.obj
 0002:000793b0       ?Add@CImageList@@QAEHPAUHICON__@@@Z 101003b0 f   nafxcwd:winctrl2.obj
 0002:000793f0       ?Replace@CImageList@@QAEHHPAUHICON__@@@Z 101003f0 f   nafxcwd:winctrl2.obj
 0002:00079430       ?ExtractIconA@CImageList@@QAEPAUHICON__@@H@Z 10100430 f   nafxcwd:winctrl2.obj
 0002:00079470       ?Draw@CImageList@@QAEHPAVCDC@@HUtagPOINT@@I@Z 10100470 f   nafxcwd:winctrl2.obj
 0002:000794e0       ?DrawEx@CImageList@@QAEHPAVCDC@@HUtagPOINT@@UtagSIZE@@KKI@Z 101004e0 f   nafxcwd:winctrl2.obj
 0002:00079560       ?SetBkColor@CImageList@@QAEKK@Z 10100560 f   nafxcwd:winctrl2.obj
 0002:000795a0       ?GetBkColor@CImageList@@QBEKXZ 101005a0 f   nafxcwd:winctrl2.obj
 0002:000795e0       ?SetOverlayImage@CImageList@@QAEHHH@Z 101005e0 f   nafxcwd:winctrl2.obj
 0002:00079620       ?GetImageInfo@CImageList@@QBEHHPAU_IMAGEINFO@@@Z 10100620 f   nafxcwd:winctrl2.obj
 0002:00079660       ?BeginDrag@CImageList@@QAEHHVCPoint@@@Z 10100660 f   nafxcwd:winctrl2.obj
 0002:000796b0       ?EndDrag@CImageList@@SGXXZ 101006b0 f   nafxcwd:winctrl2.obj
 0002:000796c0       ?DragMove@CImageList@@SGHVCPoint@@@Z 101006c0 f   nafxcwd:winctrl2.obj
 0002:000796e0       ?SetDragCursorImage@CImageList@@QAEHHVCPoint@@@Z 101006e0 f   nafxcwd:winctrl2.obj
 0002:00079730       ?DragShowNolock@CImageList@@SGHH@Z 10100730 f   nafxcwd:winctrl2.obj
 0002:00079750       ?GetDragImage@CImageList@@SGPAV1@PAUtagPOINT@@0@Z 10100750 f   nafxcwd:winctrl2.obj
 0002:00079770       ?DragEnter@CImageList@@SGHPAVCWnd@@VCPoint@@@Z 10100770 f   nafxcwd:winctrl2.obj
 0002:00079790       ?DragLeave@CImageList@@SGHPAVCWnd@@@Z 10100790 f   nafxcwd:winctrl2.obj
 0002:000797b0       ??0CTabCtrl@@QAE@XZ        101007b0 f   nafxcwd:winctrl2.obj
 0002:000797d0       ?GetImageList@CTabCtrl@@QBEPAVCImageList@@XZ 101007d0 f   nafxcwd:winctrl2.obj
 0002:00079820       ?SetImageList@CTabCtrl@@QAEPAVCImageList@@PAV2@@Z 10100820 f   nafxcwd:winctrl2.obj
 0002:00079880       ?GetItemCount@CTabCtrl@@QBEHXZ 10100880 f   nafxcwd:winctrl2.obj
 0002:000798d0       ?GetItem@CTabCtrl@@QBEHHPAUtagTCITEMA@@@Z 101008d0 f   nafxcwd:winctrl2.obj
 0002:00079920       ?SetItem@CTabCtrl@@QAEHHPAUtagTCITEMA@@@Z 10100920 f   nafxcwd:winctrl2.obj
 0002:00079970       ?SetItemExtra@CTabCtrl@@QAEHH@Z 10100970 f   nafxcwd:winctrl2.obj
 0002:000799c0       ?SetCurFocus@CTabCtrl@@QAEXH@Z 101009c0 f   nafxcwd:winctrl2.obj
 0002:00079a10       ?InsertItem@CTabCtrl@@QAEJHPAUtagTCITEMA@@@Z 10100a10 f   nafxcwd:winctrl2.obj
 0002:00079a60       ?InsertItem@CTabCtrl@@QAEJHPBD@Z 10100a60 f   nafxcwd:winctrl2.obj
 0002:00079ab0       ?InsertItem@CTabCtrl@@QAEJHPBDH@Z 10100ab0 f   nafxcwd:winctrl2.obj
 0002:00079b00       ?DeleteItem@CTabCtrl@@QAEHH@Z 10100b00 f   nafxcwd:winctrl2.obj
 0002:00079b50       ?DeleteAllItems@CTabCtrl@@QAEHXZ 10100b50 f   nafxcwd:winctrl2.obj
 0002:00079ba0       ?GetItemRect@CTabCtrl@@QBEHHPAUtagRECT@@@Z 10100ba0 f   nafxcwd:winctrl2.obj
 0002:00079bf0       ?GetCurSel@CTabCtrl@@QBEHXZ 10100bf0 f   nafxcwd:winctrl2.obj
 0002:00079c40       ?SetCurSel@CTabCtrl@@QAEHH@Z 10100c40 f   nafxcwd:winctrl2.obj
 0002:00079c90       ?HitTest@CTabCtrl@@QBEHPAUtagTCHITTESTINFO@@@Z 10100c90 f   nafxcwd:winctrl2.obj
 0002:00079ce0       ?AdjustRect@CTabCtrl@@QAEXHPAUtagRECT@@@Z 10100ce0 f   nafxcwd:winctrl2.obj
 0002:00079d30       ?SetItemSize@CTabCtrl@@QAE?AVCSize@@V2@@Z 10100d30 f   nafxcwd:winctrl2.obj
 0002:00079da0       ?RemoveImage@CTabCtrl@@QAEXH@Z 10100da0 f   nafxcwd:winctrl2.obj
 0002:00079df0       ?SetPadding@CTabCtrl@@QAEXVCSize@@@Z 10100df0 f   nafxcwd:winctrl2.obj
 0002:00079e60       ?GetRowCount@CTabCtrl@@QBEHXZ 10100e60 f   nafxcwd:winctrl2.obj
 0002:00079eb0       ?GetToolTips@CTabCtrl@@QBEPAVCToolTipCtrl@@XZ 10100eb0 f   nafxcwd:winctrl2.obj
 0002:00079f00       ?SetToolTips@CTabCtrl@@QAEXPAVCToolTipCtrl@@@Z 10100f00 f   nafxcwd:winctrl2.obj
 0002:00079f50       ?GetCurFocus@CTabCtrl@@QBEHXZ 10100f50 f   nafxcwd:winctrl2.obj
 0002:00079fa0       ?SetMinTabWidth@CTabCtrl@@QAEHH@Z 10100fa0 f   nafxcwd:winctrl2.obj
 0002:00079ff0       ?DeselectAll@CTabCtrl@@QAEXH@Z 10100ff0 f   nafxcwd:winctrl2.obj
 0002:0007a040       ?HighlightItem@CTabCtrl@@QAEHHH@Z 10101040 f   nafxcwd:winctrl2.obj
 0002:0007a0a0       ?GetExtendedStyle@CTabCtrl@@QAEKXZ 101010a0 f   nafxcwd:winctrl2.obj
 0002:0007a0f0       ?SetExtendedStyle@CTabCtrl@@QAEKKK@Z 101010f0 f   nafxcwd:winctrl2.obj
 0002:0007a140       ??0CAnimateCtrl@@QAE@XZ    10101140 f   nafxcwd:winctrl2.obj
 0002:0007a160       ?Open@CAnimateCtrl@@QAEHPBD@Z 10101160 f   nafxcwd:winctrl2.obj
 0002:0007a1b0       ?Open@CAnimateCtrl@@QAEHI@Z 101011b0 f   nafxcwd:winctrl2.obj
 0002:0007a200       ?Play@CAnimateCtrl@@QAEHIII@Z 10101200 f   nafxcwd:winctrl2.obj
 0002:0007a270       ?Stop@CAnimateCtrl@@QAEHXZ 10101270 f   nafxcwd:winctrl2.obj
 0002:0007a2c0       ?Close@CAnimateCtrl@@QAEHXZ 101012c0 f   nafxcwd:winctrl2.obj
 0002:0007a310       ?Seek@CAnimateCtrl@@QAEHI@Z 10101310 f   nafxcwd:winctrl2.obj
 0002:0007a380       ??0CRichEditCtrl@@QAE@XZ   10101380 f   nafxcwd:winctrl2.obj
 0002:0007a3a0       ?CanUndo@CRichEditCtrl@@QBEHXZ 101013a0 f   nafxcwd:winctrl2.obj
 0002:0007a3f0       ?CanRedo@CRichEditCtrl@@QBEHXZ 101013f0 f   nafxcwd:winctrl2.obj
 0002:0007a440       ?GetUndoName@CRichEditCtrl@@QBE?AW4_undonameid@@XZ 10101440 f   nafxcwd:winctrl2.obj
 0002:0007a490       ?GetRedoName@CRichEditCtrl@@QBE?AW4_undonameid@@XZ 10101490 f   nafxcwd:winctrl2.obj
 0002:0007a4e0       ?GetLineCount@CRichEditCtrl@@QBEHXZ 101014e0 f   nafxcwd:winctrl2.obj
 0002:0007a530       ?GetModify@CRichEditCtrl@@QBEHXZ 10101530 f   nafxcwd:winctrl2.obj
 0002:0007a580       ?SetModify@CRichEditCtrl@@QAEXH@Z 10101580 f   nafxcwd:winctrl2.obj
 0002:0007a5d0       ?SetTextMode@CRichEditCtrl@@QAEHI@Z 101015d0 f   nafxcwd:winctrl2.obj
 0002:0007a620       ?GetTextMode@CRichEditCtrl@@QBEIXZ 10101620 f   nafxcwd:winctrl2.obj
 0002:0007a670       ?GetRect@CRichEditCtrl@@QBEXPAUtagRECT@@@Z 10101670 f   nafxcwd:winctrl2.obj
 0002:0007a6c0       ?GetCharPos@CRichEditCtrl@@QBE?AVCPoint@@J@Z 101016c0 f   nafxcwd:winctrl2.obj
 0002:0007a730       ?GetOptions@CRichEditCtrl@@QBEIXZ 10101730 f   nafxcwd:winctrl2.obj
 0002:0007a780       ?SetOptions@CRichEditCtrl@@QAEXGK@Z 10101780 f   nafxcwd:winctrl2.obj
 0002:0007a7d0       ?SetAutoURLDetect@CRichEditCtrl@@QAEHH@Z 101017d0 f   nafxcwd:winctrl2.obj
 0002:0007a820       ?EmptyUndoBuffer@CRichEditCtrl@@QAEXXZ 10101820 f   nafxcwd:winctrl2.obj
 0002:0007a870       ?SetUndoLimit@CRichEditCtrl@@QAEII@Z 10101870 f   nafxcwd:winctrl2.obj
 0002:0007a8c0       ?ReplaceSel@CRichEditCtrl@@QAEXPBDH@Z 101018c0 f   nafxcwd:winctrl2.obj
 0002:0007a910       ?SetRect@CRichEditCtrl@@QAEXPBUtagRECT@@@Z 10101910 f   nafxcwd:winctrl2.obj
 0002:0007a960       ?StopGroupTyping@CRichEditCtrl@@QAEXXZ 10101960 f   nafxcwd:winctrl2.obj
 0002:0007a9b0       ?Redo@CRichEditCtrl@@QAEHXZ 101019b0 f   nafxcwd:winctrl2.obj
 0002:0007aa00       ?Undo@CRichEditCtrl@@QAEHXZ 10101a00 f   nafxcwd:winctrl2.obj
 0002:0007aa50       ?Clear@CRichEditCtrl@@QAEXXZ 10101a50 f   nafxcwd:winctrl2.obj
 0002:0007aaa0       ?Copy@CRichEditCtrl@@QAEXXZ 10101aa0 f   nafxcwd:winctrl2.obj
 0002:0007aaf0       ?Cut@CRichEditCtrl@@QAEXXZ 10101af0 f   nafxcwd:winctrl2.obj
 0002:0007ab40       ?Paste@CRichEditCtrl@@QAEXXZ 10101b40 f   nafxcwd:winctrl2.obj
 0002:0007ab90       ?SetReadOnly@CRichEditCtrl@@QAEHH@Z 10101b90 f   nafxcwd:winctrl2.obj
 0002:0007abe0       ?GetFirstVisibleLine@CRichEditCtrl@@QBEHXZ 10101be0 f   nafxcwd:winctrl2.obj
 0002:0007ac30       ?DisplayBand@CRichEditCtrl@@QAEHPAUtagRECT@@@Z 10101c30 f   nafxcwd:winctrl2.obj
 0002:0007ac80       ?GetSel@CRichEditCtrl@@QBEXAAU_charrange@@@Z 10101c80 f   nafxcwd:winctrl2.obj
 0002:0007acd0       ?GetPunctuation@CRichEditCtrl@@QBEHIPAU_punctuation@@@Z 10101cd0 f   nafxcwd:winctrl2.obj
 0002:0007ad20       ?SetPunctuation@CRichEditCtrl@@QAEHIPAU_punctuation@@@Z 10101d20 f   nafxcwd:winctrl2.obj
 0002:0007ad70       ?LimitText@CRichEditCtrl@@QAEXJ@Z 10101d70 f   nafxcwd:winctrl2.obj
 0002:0007adc0       ?LineFromChar@CRichEditCtrl@@QBEJJ@Z 10101dc0 f   nafxcwd:winctrl2.obj
 0002:0007ae10       ?PosFromChar@CRichEditCtrl@@QBE?AVCPoint@@I@Z 10101e10 f   nafxcwd:winctrl2.obj
 0002:0007ae80       ?CharFromPos@CRichEditCtrl@@QBEHVCPoint@@@Z 10101e80 f   nafxcwd:winctrl2.obj
 0002:0007aee0       ?SetSel@CRichEditCtrl@@QAEXAAU_charrange@@@Z 10101ee0 f   nafxcwd:winctrl2.obj
 0002:0007af30       ?FindWordBreak@CRichEditCtrl@@QBEKIK@Z 10101f30 f   nafxcwd:winctrl2.obj
 0002:0007af80       ?FindTextA@CRichEditCtrl@@QBEJKPAU_findtextexa@@@Z 10101f80 f   nafxcwd:winctrl2.obj
 0002:0007afd0       ?FormatRange@CRichEditCtrl@@QAEJPAU_formatrange@@H@Z 10101fd0 f   nafxcwd:winctrl2.obj
 0002:0007b020       ?GetEventMask@CRichEditCtrl@@QBEJXZ 10102020 f   nafxcwd:winctrl2.obj
 0002:0007b070       ?GetLimitText@CRichEditCtrl@@QBEJXZ 10102070 f   nafxcwd:winctrl2.obj
 0002:0007b0c0       ?GetSelText@CRichEditCtrl@@QBEJPAD@Z 101020c0 f   nafxcwd:winctrl2.obj
 0002:0007b110       ?HideSelection@CRichEditCtrl@@QAEXHH@Z 10102110 f   nafxcwd:winctrl2.obj
 0002:0007b160       ?RequestResize@CRichEditCtrl@@QAEXXZ 10102160 f   nafxcwd:winctrl2.obj
 0002:0007b1b0       ?GetSelectionType@CRichEditCtrl@@QBEGXZ 101021b0 f   nafxcwd:winctrl2.obj
 0002:0007b200       ?GetWordWrapMode@CRichEditCtrl@@QBEIXZ 10102200 f   nafxcwd:winctrl2.obj
 0002:0007b250       ?SetWordWrapMode@CRichEditCtrl@@QBEII@Z 10102250 f   nafxcwd:winctrl2.obj
 0002:0007b2a0       ?SetBackgroundColor@CRichEditCtrl@@QAEKHK@Z 101022a0 f   nafxcwd:winctrl2.obj
 0002:0007b2f0       ?SetEventMask@CRichEditCtrl@@QAEKK@Z 101022f0 f   nafxcwd:winctrl2.obj
 0002:0007b340       ?SetOLECallback@CRichEditCtrl@@QAEHPAUIRichEditOleCallback@@@Z 10102340 f   nafxcwd:winctrl2.obj
 0002:0007b390       ?SetTargetDevice@CRichEditCtrl@@QAEHPAUHDC__@@J@Z 10102390 f   nafxcwd:winctrl2.obj
 0002:0007b3e0       ?SetTargetDevice@CRichEditCtrl@@QAEHAAVCDC@@J@Z 101023e0 f   nafxcwd:winctrl2.obj
 0002:0007b430       ?StreamIn@CRichEditCtrl@@QAEJHAAU_editstream@@@Z 10102430 f   nafxcwd:winctrl2.obj
 0002:0007b480       ?StreamOut@CRichEditCtrl@@QAEJHAAU_editstream@@@Z 10102480 f   nafxcwd:winctrl2.obj
 0002:0007b4d0       ?GetTextLength@CRichEditCtrl@@QBEJXZ 101024d0 f   nafxcwd:winctrl2.obj
 0002:0007dd40       ??_ECDragListBox@@UAEPAXI@Z 10104d40 f i nafxcwd:winctrl2.obj
 0002:0007dd40       ??_GCDragListBox@@UAEPAXI@Z 10104d40 f i nafxcwd:winctrl2.obj
 0002:0007dd80       ??_GCToolBarCtrl@@UAEPAXI@Z 10104d80 f i nafxcwd:winctrl2.obj
 0002:0007dd80       ??_ECToolBarCtrl@@UAEPAXI@Z 10104d80 f i nafxcwd:winctrl2.obj
 0002:0007ddc0       ??_GCStatusBarCtrl@@UAEPAXI@Z 10104dc0 f i nafxcwd:winctrl2.obj
 0002:0007ddc0       ??_ECStatusBarCtrl@@UAEPAXI@Z 10104dc0 f i nafxcwd:winctrl2.obj
 0002:0007de00       ??_ECListCtrl@@UAEPAXI@Z   10104e00 f i nafxcwd:winctrl2.obj
 0002:0007de00       ??_GCListCtrl@@UAEPAXI@Z   10104e00 f i nafxcwd:winctrl2.obj
 0002:0007de40       ??_ECTreeCtrl@@UAEPAXI@Z   10104e40 f i nafxcwd:winctrl2.obj
 0002:0007de40       ??_GCTreeCtrl@@UAEPAXI@Z   10104e40 f i nafxcwd:winctrl2.obj
 0002:0007de80       ??_GCSpinButtonCtrl@@UAEPAXI@Z 10104e80 f i nafxcwd:winctrl2.obj
 0002:0007de80       ??_ECSpinButtonCtrl@@UAEPAXI@Z 10104e80 f i nafxcwd:winctrl2.obj
 0002:0007dec0       ??_GCSliderCtrl@@UAEPAXI@Z 10104ec0 f i nafxcwd:winctrl2.obj
 0002:0007dec0       ??_ECSliderCtrl@@UAEPAXI@Z 10104ec0 f i nafxcwd:winctrl2.obj
 0002:0007df00       ??_GCProgressCtrl@@UAEPAXI@Z 10104f00 f i nafxcwd:winctrl2.obj
 0002:0007df00       ??_ECProgressCtrl@@UAEPAXI@Z 10104f00 f i nafxcwd:winctrl2.obj
 0002:0007df40       ??_GCHeaderCtrl@@UAEPAXI@Z 10104f40 f i nafxcwd:winctrl2.obj
 0002:0007df40       ??_ECHeaderCtrl@@UAEPAXI@Z 10104f40 f i nafxcwd:winctrl2.obj
 0002:0007df80       ??_GCHotKeyCtrl@@UAEPAXI@Z 10104f80 f i nafxcwd:winctrl2.obj
 0002:0007df80       ??_ECHotKeyCtrl@@UAEPAXI@Z 10104f80 f i nafxcwd:winctrl2.obj
 0002:0007dfc0       ??_ECTabCtrl@@UAEPAXI@Z    10104fc0 f i nafxcwd:winctrl2.obj
 0002:0007dfc0       ??_GCTabCtrl@@UAEPAXI@Z    10104fc0 f i nafxcwd:winctrl2.obj
 0002:0007e000       ??_GCAnimateCtrl@@UAEPAXI@Z 10105000 f i nafxcwd:winctrl2.obj
 0002:0007e000       ??_ECAnimateCtrl@@UAEPAXI@Z 10105000 f i nafxcwd:winctrl2.obj
 0002:0007e040       ??_GCRichEditCtrl@@UAEPAXI@Z 10105040 f i nafxcwd:winctrl2.obj
 0002:0007e040       ??_ECRichEditCtrl@@UAEPAXI@Z 10105040 f i nafxcwd:winctrl2.obj
 0002:0007e080       ??_GCImageList@@UAEPAXI@Z  10105080 f i nafxcwd:winctrl2.obj
 0002:0007e080       ??_ECImageList@@UAEPAXI@Z  10105080 f i nafxcwd:winctrl2.obj
 0002:0007e0c0       ?GetMessageMap@CToolTipCtrl@@MBEPBUAFX_MSGMAP@@XZ 101050c0 f   nafxcwd:tooltip.obj
 0002:0007e0d0       ??0CToolTipCtrl@@QAE@XZ    101050d0 f   nafxcwd:tooltip.obj
 0002:0007e130       ?Create@CToolTipCtrl@@UAEHPAVCWnd@@K@Z 10105130 f   nafxcwd:tooltip.obj
 0002:0007e1c0       ?CreateEx@CToolTipCtrl@@UAEHPAVCWnd@@KK@Z 101051c0 f   nafxcwd:tooltip.obj
 0002:0007e210       ??1CToolTipCtrl@@UAE@XZ    10105210 f   nafxcwd:tooltip.obj
 0002:0007e270       ?DestroyToolTipCtrl@CToolTipCtrl@@UAEHXZ 10105270 f   nafxcwd:tooltip.obj
 0002:0007e2d0       ?OnAddTool@CToolTipCtrl@@IAEJIJ@Z 101052d0 f   nafxcwd:tooltip.obj
 0002:0007e370       ?OnDisableModal@CToolTipCtrl@@IAEJIJ@Z 10105370 f   nafxcwd:tooltip.obj
 0002:0007e390       ?OnEnable@CToolTipCtrl@@IAEXH@Z 10105390 f   nafxcwd:tooltip.obj
 0002:0007e3b0       ?OnWindowFromPoint@CToolTipCtrl@@IAEJIJ@Z 101053b0 f   nafxcwd:tooltip.obj
 0002:0007e480       ?AddTool@CToolTipCtrl@@QAEHPAVCWnd@@PBDPBUtagRECT@@I@Z 10105480 f   nafxcwd:tooltip.obj
 0002:0007e560       ?AddTool@CToolTipCtrl@@QAEHPAVCWnd@@IPBUtagRECT@@I@Z 10105560 f   nafxcwd:tooltip.obj
 0002:0007e670       ?DelTool@CToolTipCtrl@@QAEXPAVCWnd@@I@Z 10105670 f   nafxcwd:tooltip.obj
 0002:0007e6f0       ?GetText@CToolTipCtrl@@QBEXAAV?$CStringT@DV?$StrTraitMFC@DV?$ChTraitsCRT@D@ATL@@@@@ATL@@PAVCWnd@@I@Z 101056f0 f   nafxcwd:tooltip.obj
 0002:0007e790       ?GetToolInfo@CToolTipCtrl@@QBEHAAVCToolInfo@@PAVCWnd@@I@Z 10105790 f   nafxcwd:tooltip.obj
 0002:0007e820       ?HitTest@CToolTipCtrl@@QBEHPAVCWnd@@VCPoint@@PAUtagTOOLINFOA@@@Z 10105820 f   nafxcwd:tooltip.obj
 0002:0007e8f0       ?SetToolRect@CToolTipCtrl@@QAEXPAVCWnd@@IPBUtagRECT@@@Z 101058f0 f   nafxcwd:tooltip.obj
 0002:0007e9a0       ?UpdateTipText@CToolTipCtrl@@QAEXPBDPAVCWnd@@I@Z 101059a0 f   nafxcwd:tooltip.obj
 0002:0007ea20       ?UpdateTipText@CToolTipCtrl@@QAEXIPAVCWnd@@I@Z 10105a20 f   nafxcwd:tooltip.obj
 0002:0007ead0       ?FillInToolInfo@CToolTipCtrl@@QBEXAAUtagTOOLINFOA@@PAVCWnd@@I@Z 10105ad0 f   nafxcwd:tooltip.obj
 0002:0007eb50       ?_EnableToolTips@CWnd@@QAEHHI@Z 10105b50 f   nafxcwd:tooltip.obj
 0002:0007ec60       ?EnableToolTips@CWnd@@QAEHH@Z 10105c60 f   nafxcwd:tooltip.obj
 0002:0007ec80       ?EnableTrackingToolTips@CWnd@@QAEHH@Z 10105c80 f   nafxcwd:tooltip.obj
 0002:0007eca0       ?_AfxRelayToolTipMessage@@YGXPAVCToolTipCtrl@@PAUtagMSG@@@Z 10105ca0 f   nafxcwd:tooltip.obj
 0002:0007ed40       ?_FilterToolTipMessage@CWnd@@SGXPAUtagMSG@@PAV1@@Z 10105d40 f   nafxcwd:tooltip.obj
 0002:0007ed60       ?FilterToolTipMessage@CWnd@@QAEXPAUtagMSG@@@Z 10105d60 f   nafxcwd:tooltip.obj
 0002:0007f890       ??_ECToolTipCtrl@@UAEPAXI@Z 10106890 f i nafxcwd:tooltip.obj
 0002:0007f890       ??_GCToolTipCtrl@@UAEPAXI@Z 10106890 f i nafxcwd:tooltip.obj
 0002:0007f8d0       ??0CArchiveStream@@QAE@PAVCArchive@@@Z 101068d0 f   nafxcwd:arcstrm.obj
 0002:0007f900       ?AddRef@CArchiveStream@@UAGKXZ 10106900 f   nafxcwd:arcstrm.obj
 0002:0007f910       ?Release@CArchiveStream@@UAGKXZ 10106910 f   nafxcwd:arcstrm.obj
 0002:0007f920       ?QueryInterface@CArchiveStream@@UAGJABU_GUID@@PAPAX@Z 10106920 f   nafxcwd:arcstrm.obj
 0002:0007f970       ?Read@CArchiveStream@@UAGJPAXKPAK@Z 10106970 f   nafxcwd:arcstrm.obj
 0002:0007fa70       ?Write@CArchiveStream@@UAGJPBXKPAK@Z 10106a70 f   nafxcwd:arcstrm.obj
 0002:0007fb70       ?Seek@CArchiveStream@@UAGJT_LARGE_INTEGER@@KPAT_ULARGE_INTEGER@@@Z 10106b70 f   nafxcwd:arcstrm.obj
 0002:0007fc60       ?SetSize@CArchiveStream@@UAGJT_ULARGE_INTEGER@@@Z 10106c60 f   nafxcwd:arcstrm.obj
 0002:0007fc70       ?CopyTo@CArchiveStream@@UAGJPAUIStream@@T_ULARGE_INTEGER@@PAT3@2@Z 10106c70 f   nafxcwd:arcstrm.obj
 0002:0007fc80       ?Commit@CArchiveStream@@UAGJK@Z 10106c80 f   nafxcwd:arcstrm.obj
 0002:0007fc90       ?Revert@CArchiveStream@@UAGJXZ 10106c90 f   nafxcwd:arcstrm.obj
 0002:0007fca0       ?LockRegion@CArchiveStream@@UAGJT_ULARGE_INTEGER@@0K@Z 10106ca0 f   nafxcwd:arcstrm.obj
 0002:0007fcb0       ?UnlockRegion@CArchiveStream@@UAGJT_ULARGE_INTEGER@@0K@Z 10106cb0 f   nafxcwd:arcstrm.obj
 0002:0007fcc0       ?Stat@CArchiveStream@@UAGJPAUtagSTATSTG@@K@Z 10106cc0 f   nafxcwd:arcstrm.obj
 0002:0007fcd0       ?Clone@CArchiveStream@@UAGJPAPAUIStream@@@Z 10106cd0 f   nafxcwd:arcstrm.obj
 0002:0007fde0       ?Create@CComboBoxEx@@UAEHKABUtagRECT@@PAVCWnd@@I@Z 10106de0 f   nafxcwd:winctrl6.obj
 0002:0007fe40       ?CreateEx@CComboBoxEx@@UAEHKKABUtagRECT@@PAVCWnd@@I@Z 10106e40 f   nafxcwd:winctrl6.obj
 0002:0007fe90       ?DeleteItem@CComboBoxEx@@QAEHH@Z 10106e90 f   nafxcwd:winctrl6.obj
 0002:0007fee0       ?GetItem@CComboBoxEx@@QAEHPAUtagCOMBOBOXEXITEMA@@@Z 10106ee0 f   nafxcwd:winctrl6.obj
 0002:0007ff60       ?InsertItem@CComboBoxEx@@QAEHPBUtagCOMBOBOXEXITEMA@@@Z 10106f60 f   nafxcwd:winctrl6.obj
 0002:0007ffe0       ?SetItem@CComboBoxEx@@QAEHPBUtagCOMBOBOXEXITEMA@@@Z 10106fe0 f   nafxcwd:winctrl6.obj
 0002:00080060       ??1CComboBoxEx@@UAE@XZ     10107060 f   nafxcwd:winctrl6.obj
 0002:000800c0       ?Create@CReBarCtrl@@UAEHKABUtagRECT@@PAVCWnd@@I@Z 101070c0 f   nafxcwd:winctrl6.obj
 0002:00080120       ?CreateEx@CReBarCtrl@@UAEHKKABUtagRECT@@PAVCWnd@@I@Z 10107120 f   nafxcwd:winctrl6.obj
 0002:00080170       ?GetImageList@CReBarCtrl@@QBEPAVCImageList@@XZ 10107170 f   nafxcwd:winctrl6.obj
 0002:000801c0       ?SetImageList@CReBarCtrl@@QAEHPAVCImageList@@@Z 101071c0 f   nafxcwd:winctrl6.obj
 0002:00080200       ?GetColorScheme@CReBarCtrl@@QAEHPAUtagCOLORSCHEME@@@Z 10107200 f   nafxcwd:winctrl6.obj
 0002:00080230       ?SetColorScheme@CReBarCtrl@@QAEXPBUtagCOLORSCHEME@@@Z 10107230 f   nafxcwd:winctrl6.obj
 0002:00080260       ?SetColumnOrderArray@CListCtrl@@QAEHHPAH@Z 10107260 f   nafxcwd:winctrl6.obj
 0002:000802e0       ?GetColumnOrderArray@CListCtrl@@QAEHPAHH@Z 101072e0 f   nafxcwd:winctrl6.obj
 0002:000803b0       ?SetBkImage@CListCtrl@@QAEHPAUHBITMAP__@@HHH@Z 101073b0 f   nafxcwd:winctrl6.obj
 0002:00080400       ?SetBkImage@CListCtrl@@QAEHPADHHH@Z 10107400 f   nafxcwd:winctrl6.obj
 0002:00080450       ?GetCheck@CListCtrl@@QBEHH@Z 10107450 f   nafxcwd:winctrl6.obj
 0002:000804b0       ?SetCheck@CListCtrl@@QAEHHH@Z 101074b0 f   nafxcwd:winctrl6.obj
 0002:00080520       ?GetHeaderCtrl@CListCtrl@@QAEPAVCHeaderCtrl@@XZ 10107520 f   nafxcwd:winctrl6.obj
 0002:00080580       ?SetOrderArray@CHeaderCtrl@@QAEHHPAH@Z 10107580 f   nafxcwd:winctrl6.obj
 0002:00080600       ?GetOrderArray@CHeaderCtrl@@QAEHPAHH@Z 10107600 f   nafxcwd:winctrl6.obj
 0002:000806a0       ?GetRange@CProgressCtrl@@QAEXAAH0@Z 101076a0 f   nafxcwd:winctrl6.obj
 0002:00080700       ?Create@CLinkCtrl@@UAEHKABUtagRECT@@PAVCWnd@@I@Z 10107700 f   nafxcwd:winctrl6.obj
 0002:00080750       ?CreateEx@CLinkCtrl@@UAEHKKABUtagRECT@@PAVCWnd@@I@Z 10107750 f   nafxcwd:winctrl6.obj
 0002:000807a0       ?IsSimple@CStatusBarCtrl@@QBEHXZ 101077a0 f   nafxcwd:winctrl6.obj
 0002:000807f0       ?SetTipText@CStatusBarCtrl@@QAEXHPBD@Z 101077f0 f   nafxcwd:winctrl6.obj
 0002:00080840       ?SetBkColor@CStatusBarCtrl@@QAEKK@Z 10107840 f   nafxcwd:winctrl6.obj
 0002:00080890       ?SetIcon@CStatusBarCtrl@@QAEHHPAUHICON__@@@Z 10107890 f   nafxcwd:winctrl6.obj
 0002:000808e0       ?SetRange32@CSpinButtonCtrl@@QAEXHH@Z 101078e0 f   nafxcwd:winctrl6.obj
 0002:00080930       ?GetRange32@CSpinButtonCtrl@@QBEXAAH0@Z 10107930 f   nafxcwd:winctrl6.obj
 0002:00080980       ?GetPos32@CSpinButtonCtrl@@QBEHPAH@Z 10107980 f   nafxcwd:winctrl6.obj
 0002:000809d0       ?SetPos32@CSpinButtonCtrl@@QAEHH@Z 101079d0 f   nafxcwd:winctrl6.obj
 0002:00080a20       ?GetButtonSize@CToolBarCtrl@@QBEKXZ 10107a20 f   nafxcwd:winctrl6.obj
 0002:00080a70       ?GetDisabledImageList@CToolBarCtrl@@QBEPAVCImageList@@XZ 10107a70 f   nafxcwd:winctrl6.obj
 0002:00080ac0       ?GetHotImageList@CToolBarCtrl@@QBEPAVCImageList@@XZ 10107ac0 f   nafxcwd:winctrl6.obj
 0002:00080b10       ?GetImageList@CToolBarCtrl@@QBEPAVCImageList@@XZ 10107b10 f   nafxcwd:winctrl6.obj
 0002:00080b60       ?GetStyle@CToolBarCtrl@@QBEKXZ 10107b60 f   nafxcwd:winctrl6.obj
 0002:00080bb0       ?GetMaxTextRows@CToolBarCtrl@@QBEHXZ 10107bb0 f   nafxcwd:winctrl6.obj
 0002:00080c00       ?GetRect@CToolBarCtrl@@QBEHHPAUtagRECT@@@Z 10107c00 f   nafxcwd:winctrl6.obj
 0002:00080c50       ?IsButtonHighlighted@CToolBarCtrl@@QBEHH@Z 10107c50 f   nafxcwd:winctrl6.obj
 0002:00080ca0       ?LoadImages@CToolBarCtrl@@QAEXHPAUHINSTANCE__@@@Z 10107ca0 f   nafxcwd:winctrl6.obj
 0002:00080cf0       ?SetButtonWidth@CToolBarCtrl@@QAEHHH@Z 10107cf0 f   nafxcwd:winctrl6.obj
 0002:00080d50       ?SetDisabledImageList@CToolBarCtrl@@QAEPAVCImageList@@PAV2@@Z 10107d50 f   nafxcwd:winctrl6.obj
 0002:00080db0       ?SetHotImageList@CToolBarCtrl@@QAEPAVCImageList@@PAV2@@Z 10107db0 f   nafxcwd:winctrl6.obj
 0002:00080e10       ?SetImageList@CToolBarCtrl@@QAEPAVCImageList@@PAV2@@Z 10107e10 f   nafxcwd:winctrl6.obj
 0002:00080e70       ?SetIndent@CToolBarCtrl@@QAEHH@Z 10107e70 f   nafxcwd:winctrl6.obj
 0002:00080ec0       ?SetMaxTextRows@CToolBarCtrl@@QAEHH@Z 10107ec0 f   nafxcwd:winctrl6.obj
 0002:00080f10       ?SetStyle@CToolBarCtrl@@QAEXK@Z 10107f10 f   nafxcwd:winctrl6.obj
 0002:00080f60       ?GetButtonInfo@CToolBarCtrl@@QBEHHPAUTBBUTTONINFOA@@@Z 10107f60 f   nafxcwd:winctrl6.obj
 0002:00080fb0       ?SetButtonInfo@CToolBarCtrl@@QAEHHPAUTBBUTTONINFOA@@@Z 10107fb0 f   nafxcwd:winctrl6.obj
 0002:00081000       ?SetDrawTextFlags@CToolBarCtrl@@QAEKKK@Z 10108000 f   nafxcwd:winctrl6.obj
 0002:00081050       ?GetAnchorHighlight@CToolBarCtrl@@QBEHXZ 10108050 f   nafxcwd:winctrl6.obj
 0002:000810a0       ?SetAnchorHighlight@CToolBarCtrl@@QAEHH@Z 101080a0 f   nafxcwd:winctrl6.obj
 0002:000810f0       ?GetHotItem@CToolBarCtrl@@QBEHXZ 101080f0 f   nafxcwd:winctrl6.obj
 0002:00081140       ?SetHotItem@CToolBarCtrl@@QAEHH@Z 10108140 f   nafxcwd:winctrl6.obj
 0002:00081190       ?GetInsertMark@CToolBarCtrl@@QBEXPAUTBINSERTMARK@@@Z 10108190 f   nafxcwd:winctrl6.obj
 0002:000811e0       ?SetInsertMark@CToolBarCtrl@@QAEXPAUTBINSERTMARK@@@Z 101081e0 f   nafxcwd:winctrl6.obj
 0002:00081230       ?GetMaxSize@CToolBarCtrl@@QBEHPAUtagSIZE@@@Z 10108230 f   nafxcwd:winctrl6.obj
 0002:00081280       ?InsertMarkHitTest@CToolBarCtrl@@QBEHPAUtagPOINT@@PAUTBINSERTMARK@@@Z 10108280 f   nafxcwd:winctrl6.obj
 0002:000812d0       ?MapAccelerator@CToolBarCtrl@@QAEHDPAI@Z 101082d0 f   nafxcwd:winctrl6.obj
 0002:00081320       ?MarkButton@CToolBarCtrl@@QAEHHH@Z 10108320 f   nafxcwd:winctrl6.obj
 0002:00081380       ?MoveButton@CToolBarCtrl@@QAEHII@Z 10108380 f   nafxcwd:winctrl6.obj
 0002:000813d0       ?GetString@CToolBarCtrl@@QBEHHPADH@Z 101083d0 f   nafxcwd:winctrl6.obj
 0002:00081440       ?SetExtendedStyle@CListCtrl@@QAEKK@Z 10108440 f   nafxcwd:winctrl6.obj
 0002:00081490       ?SetHotCursor@CListCtrl@@QAEPAUHICON__@@PAU2@@Z 10108490 f   nafxcwd:winctrl6.obj
 0002:000814e0       ?SetHotItem@CListCtrl@@QAEHH@Z 101084e0 f   nafxcwd:winctrl6.obj
 0002:00081530       ?SetWorkAreas@CListCtrl@@QAEXHPAUtagRECT@@@Z 10108530 f   nafxcwd:winctrl6.obj
 0002:00081580       ?SubItemHitTest@CListCtrl@@QAEHPAUtagLVHITTESTINFO@@@Z 10108580 f   nafxcwd:winctrl6.obj
 0002:000815d0       ?GetHotCursor@CListCtrl@@QAEPAUHICON__@@XZ 101085d0 f   nafxcwd:winctrl6.obj
 0002:00081620       ?GetHotItem@CListCtrl@@QAEHXZ 10108620 f   nafxcwd:winctrl6.obj
 0002:00081670       ?GetExtendedStyle@CListCtrl@@QAEKXZ 10108670 f   nafxcwd:winctrl6.obj
 0002:000816c0       ?ApproximateViewRect@CListCtrl@@QBE?AVCSize@@V2@H@Z 101086c0 f   nafxcwd:winctrl6.obj
 0002:00081740       ?GetBkImage@CListCtrl@@QBEHPAUtagLVBKIMAGEA@@@Z 10108740 f   nafxcwd:winctrl6.obj
 0002:00081790       ?GetHoverTime@CListCtrl@@QBEKXZ 10108790 f   nafxcwd:winctrl6.obj
 0002:000817e0       ?GetWorkAreas@CListCtrl@@QBEXHPAUtagRECT@@@Z 101087e0 f   nafxcwd:winctrl6.obj
 0002:00081830       ?SetBkImage@CListCtrl@@QAEHPAUtagLVBKIMAGEA@@@Z 10108830 f   nafxcwd:winctrl6.obj
 0002:00081880       ?SetHoverTime@CListCtrl@@QAEKK@Z 10108880 f   nafxcwd:winctrl6.obj
 0002:000818d0       ?GetNumberOfWorkAreas@CListCtrl@@QBEIXZ 101088d0 f   nafxcwd:winctrl6.obj
 0002:00081920       ?SetSelectionMark@CListCtrl@@QAEHH@Z 10108920 f   nafxcwd:winctrl6.obj
 0002:00081970       ?GetSelectionMark@CListCtrl@@QAEHXZ 10108970 f   nafxcwd:winctrl6.obj
 0002:000819c0       ?GetItemRect@CHeaderCtrl@@QBEHHPAUtagRECT@@@Z 101089c0 f   nafxcwd:winctrl6.obj
 0002:00081a30       ?OrderToIndex@CHeaderCtrl@@QBEHH@Z 10108a30 f   nafxcwd:winctrl6.obj
 0002:00081a80       ?SetHotDivider@CHeaderCtrl@@QAEHVCPoint@@@Z 10108a80 f   nafxcwd:winctrl6.obj
 0002:00081af0       ?SetHotDivider@CHeaderCtrl@@QAEHH@Z 10108af0 f   nafxcwd:winctrl6.obj
 0002:00081b40       ?GetImageList@CHeaderCtrl@@QBEPAVCImageList@@XZ 10108b40 f   nafxcwd:winctrl6.obj
 0002:00081b90       ?SetImageList@CHeaderCtrl@@QAEPAVCImageList@@PAV2@@Z 10108b90 f   nafxcwd:winctrl6.obj
 0002:00081bf0       ?CreateDragImage@CHeaderCtrl@@QAEPAVCImageList@@H@Z 10108bf0 f   nafxcwd:winctrl6.obj
 0002:00081c40       ?GetBitmapMargin@CHeaderCtrl@@QBEHXZ 10108c40 f   nafxcwd:winctrl6.obj
 0002:00081c90       ?SetBitmapMargin@CHeaderCtrl@@QAEHH@Z 10108c90 f   nafxcwd:winctrl6.obj
 0002:00081ce0       ?SetFilterChangeTimeout@CHeaderCtrl@@QAEHK@Z 10108ce0 f   nafxcwd:winctrl6.obj
 0002:00081d30       ?EditFilter@CHeaderCtrl@@QAEHHH@Z 10108d30 f   nafxcwd:winctrl6.obj
 0002:00081d90       ?ClearFilter@CHeaderCtrl@@QAEHH@Z 10108d90 f   nafxcwd:winctrl6.obj
 0002:00081de0       ?ClearAllFilters@CHeaderCtrl@@QAEHXZ 10108de0 f   nafxcwd:winctrl6.obj
 0002:00081e30       ??0CReBarCtrl@@QAE@XZ      10108e30 f   nafxcwd:winctrl6.obj
 0002:00081e50       ?GetBandCount@CReBarCtrl@@QBEIXZ 10108e50 f   nafxcwd:winctrl6.obj
 0002:00081ea0       ?GetBandInfo@CReBarCtrl@@QBEHIPAUtagREBARBANDINFOA@@@Z 10108ea0 f   nafxcwd:winctrl6.obj
 0002:00081ef0       ?GetBarHeight@CReBarCtrl@@QBEIXZ 10108ef0 f   nafxcwd:winctrl6.obj
 0002:00081f40       ?GetBarInfo@CReBarCtrl@@QBEHPAUtagREBARINFO@@@Z 10108f40 f   nafxcwd:winctrl6.obj
 0002:00081f90       ?GetBkColor@CReBarCtrl@@QBEKXZ 10108f90 f   nafxcwd:winctrl6.obj
 0002:00081fe0       ?GetDropTarget@CReBarCtrl@@QBEPAUIDropTarget@@XZ 10108fe0 f   nafxcwd:winctrl6.obj
 0002:00082030       ?GetRect@CReBarCtrl@@QBEHIPAUtagRECT@@@Z 10109030 f   nafxcwd:winctrl6.obj
 0002:00082080       ?GetRowCount@CReBarCtrl@@QBEIXZ 10109080 f   nafxcwd:winctrl6.obj
 0002:000820d0       ?GetRowHeight@CReBarCtrl@@QBEII@Z 101090d0 f   nafxcwd:winctrl6.obj
 0002:00082120       ?GetTextColor@CReBarCtrl@@QBEKXZ 10109120 f   nafxcwd:winctrl6.obj
 0002:00082170       ?GetToolTips@CReBarCtrl@@QBEPAVCToolTipCtrl@@XZ 10109170 f   nafxcwd:winctrl6.obj
 0002:000821c0       ?IDToIndex@CReBarCtrl@@QBEHI@Z 101091c0 f   nafxcwd:winctrl6.obj
 0002:00082210       ?SetBandInfo@CReBarCtrl@@QAEHIPAUtagREBARBANDINFOA@@@Z 10109210 f   nafxcwd:winctrl6.obj
 0002:00082260       ?SetBarInfo@CReBarCtrl@@QAEHPAUtagREBARINFO@@@Z 10109260 f   nafxcwd:winctrl6.obj
 0002:000822b0       ?SetBkColor@CReBarCtrl@@QAEKK@Z 101092b0 f   nafxcwd:winctrl6.obj
 0002:00082300       ?SetOwner@CReBarCtrl@@QAEPAVCWnd@@PAV2@@Z 10109300 f   nafxcwd:winctrl6.obj
 0002:00082360       ?SetTextColor@CReBarCtrl@@QAEKK@Z 10109360 f   nafxcwd:winctrl6.obj
 0002:000823b0       ?SetToolTips@CReBarCtrl@@QAEXPAVCToolTipCtrl@@@Z 101093b0 f   nafxcwd:winctrl6.obj
 0002:00082400       ?BeginDrag@CReBarCtrl@@QAEXIK@Z 10109400 f   nafxcwd:winctrl6.obj
 0002:00082450       ?DeleteBand@CReBarCtrl@@QAEHI@Z 10109450 f   nafxcwd:winctrl6.obj
 0002:000824a0       ?DragMove@CReBarCtrl@@QAEXK@Z 101094a0 f   nafxcwd:winctrl6.obj
 0002:000824f0       ?EndDrag@CReBarCtrl@@QAEXXZ 101094f0 f   nafxcwd:winctrl6.obj
 0002:00082540       ?HitTest@CReBarCtrl@@QAEHPAU_RB_HITTESTINFO@@@Z 10109540 f   nafxcwd:winctrl6.obj
 0002:00082590       ?InsertBand@CReBarCtrl@@QAEHIPAUtagREBARBANDINFOA@@@Z 10109590 f   nafxcwd:winctrl6.obj
 0002:000825e0       ?MaximizeBand@CReBarCtrl@@QAEXI@Z 101095e0 f   nafxcwd:winctrl6.obj
 0002:00082630       ?MinimizeBand@CReBarCtrl@@QAEXI@Z 10109630 f   nafxcwd:winctrl6.obj
 0002:00082680       ?RestoreBand@CReBarCtrl@@QAEXI@Z 10109680 f   nafxcwd:winctrl6.obj
 0002:000826d0       ?SizeToRect@CReBarCtrl@@QAEHAAVCRect@@@Z 101096d0 f   nafxcwd:winctrl6.obj
 0002:00082720       ?ShowBand@CReBarCtrl@@QAEHIH@Z 10109720 f   nafxcwd:winctrl6.obj
 0002:00082770       ?GetBandBorders@CReBarCtrl@@QBEXIPAUtagRECT@@@Z 10109770 f   nafxcwd:winctrl6.obj
 0002:000827c0       ?GetPalette@CReBarCtrl@@QBEPAVCPalette@@XZ 101097c0 f   nafxcwd:winctrl6.obj
 0002:00082810       ?SetPalette@CReBarCtrl@@QAEPAVCPalette@@PAUHPALETTE__@@@Z 10109810 f   nafxcwd:winctrl6.obj
 0002:00082860       ?MoveBand@CReBarCtrl@@QAEHII@Z 10109860 f   nafxcwd:winctrl6.obj
 0002:000828b0       ?PushChevron@CReBarCtrl@@QAEXIJ@Z 101098b0 f   nafxcwd:winctrl6.obj
 0002:00082900       ?SetDelayTime@CToolTipCtrl@@QAEXI@Z 10109900 f   nafxcwd:winctrl6.obj
 0002:00082950       ?GetDelayTime@CToolTipCtrl@@QBEHK@Z 10109950 f   nafxcwd:winctrl6.obj
 0002:000829a0       ?GetMargin@CToolTipCtrl@@QBEXPAUtagRECT@@@Z 101099a0 f   nafxcwd:winctrl6.obj
 0002:000829f0       ?GetMaxTipWidth@CToolTipCtrl@@QBEHXZ 101099f0 f   nafxcwd:winctrl6.obj
 0002:00082a40       ?GetTipBkColor@CToolTipCtrl@@QBEKXZ 10109a40 f   nafxcwd:winctrl6.obj
 0002:00082a90       ?GetTipTextColor@CToolTipCtrl@@QBEKXZ 10109a90 f   nafxcwd:winctrl6.obj
 0002:00082ae0       ?Pop@CToolTipCtrl@@QAEXXZ  10109ae0 f   nafxcwd:winctrl6.obj
 0002:00082b30       ?SetDelayTime@CToolTipCtrl@@QAEXKH@Z 10109b30 f   nafxcwd:winctrl6.obj
 0002:00082b90       ?SetMargin@CToolTipCtrl@@QAEXPAUtagRECT@@@Z 10109b90 f   nafxcwd:winctrl6.obj
 0002:00082be0       ?SetMaxTipWidth@CToolTipCtrl@@QAEHH@Z 10109be0 f   nafxcwd:winctrl6.obj
 0002:00082c30       ?SetTipBkColor@CToolTipCtrl@@QAEXK@Z 10109c30 f   nafxcwd:winctrl6.obj
 0002:00082c80       ?SetTipTextColor@CToolTipCtrl@@QAEXK@Z 10109c80 f   nafxcwd:winctrl6.obj
 0002:00082cd0       ?Update@CToolTipCtrl@@QAEXXZ 10109cd0 f   nafxcwd:winctrl6.obj
 0002:00082d20       ?GetBubbleSize@CToolTipCtrl@@QBE?AVCSize@@PAUtagTOOLINFOA@@@Z 10109d20 f   nafxcwd:winctrl6.obj
 0002:00082d80       ?AdjustRect@CToolTipCtrl@@QAEHPAUtagRECT@@H@Z 10109d80 f   nafxcwd:winctrl6.obj
 0002:00082dd0       ?SetTitle@CToolTipCtrl@@QAEHIPBD@Z 10109dd0 f   nafxcwd:winctrl6.obj
 0002:00082e20       ??0CComboBoxEx@@QAE@XZ     10109e20 f   nafxcwd:winctrl6.obj
 0002:00082e40       ?GetExtendedStyle@CComboBoxEx@@QBEKXZ 10109e40 f   nafxcwd:winctrl6.obj
 0002:00082e90       ?SetExtendedStyle@CComboBoxEx@@QAEKKK@Z 10109e90 f   nafxcwd:winctrl6.obj
 0002:00082ee0       ?HasEditChanged@CComboBoxEx@@QAEHXZ 10109ee0 f   nafxcwd:winctrl6.obj
 0002:00082f30       ?GetEditCtrl@CComboBoxEx@@QAEPAVCEdit@@XZ 10109f30 f   nafxcwd:winctrl6.obj
 0002:00082f80       ?GetComboBoxCtrl@CComboBoxEx@@QAEPAVCComboBox@@XZ 10109f80 f   nafxcwd:winctrl6.obj
 0002:00082fd0       ?SetImageList@CComboBoxEx@@QAEPAVCImageList@@PAV2@@Z 10109fd0 f   nafxcwd:winctrl6.obj
 0002:00083030       ?GetImageList@CComboBoxEx@@QBEPAVCImageList@@XZ 1010a030 f   nafxcwd:winctrl6.obj
 0002:00083080       ?Dir@CComboBoxEx@@QAEHIPBD@Z 1010a080 f   nafxcwd:winctrl6.obj
 0002:000830b0       ?FindString@CComboBoxEx@@QBEHHPBD@Z 1010a0b0 f   nafxcwd:winctrl6.obj
 0002:000830e0       ?AddString@CComboBoxEx@@QAEHPBD@Z 1010a0e0 f   nafxcwd:winctrl6.obj
 0002:00083110       ?SetEditSel@CComboBoxEx@@QAEHHH@Z 1010a110 f   nafxcwd:winctrl6.obj
 0002:00083140       ?InsertString@CComboBoxEx@@QAEHHPBD@Z 1010a140 f   nafxcwd:winctrl6.obj
 0002:00083170       ?SetPos@CProgressCtrl@@QAEHH@Z 1010a170 f   nafxcwd:winctrl6.obj
 0002:000831c0       ??0CIPAddressCtrl@@QAE@XZ  1010a1c0 f   nafxcwd:winctrl6.obj
 0002:000831e0       ?ClearAddress@CIPAddressCtrl@@QAEXXZ 1010a1e0 f   nafxcwd:winctrl6.obj
 0002:00083230       ?IsBlank@CIPAddressCtrl@@QBEHXZ 1010a230 f   nafxcwd:winctrl6.obj
 0002:00083280       ?GetAddress@CIPAddressCtrl@@QAEHAAK@Z 1010a280 f   nafxcwd:winctrl6.obj
 0002:000832d0       ?SetAddress@CIPAddressCtrl@@QAEXK@Z 1010a2d0 f   nafxcwd:winctrl6.obj
 0002:00083320       ?SetAddress@CIPAddressCtrl@@QAEXEEEE@Z 1010a320 f   nafxcwd:winctrl6.obj
 0002:00083390       ?SetFieldFocus@CIPAddressCtrl@@QAEXG@Z 1010a390 f   nafxcwd:winctrl6.obj
 0002:000833e0       ?SetFieldRange@CIPAddressCtrl@@QAEXHEE@Z 1010a3e0 f   nafxcwd:winctrl6.obj
 0002:00083440       ?SetImageCount@CImageList@@QAEHI@Z 1010a440 f   nafxcwd:winctrl6.obj
 0002:00083480       ?Copy@CImageList@@QAEHHHI@Z 1010a480 f   nafxcwd:winctrl6.obj
 0002:000834d0       ?Copy@CImageList@@QAEHHPAV1@HI@Z 1010a4d0 f   nafxcwd:winctrl6.obj
 0002:00084320       ??_ECComboBoxEx@@UAEPAXI@Z 1010b320 f i nafxcwd:winctrl6.obj
 0002:00084320       ??_GCComboBoxEx@@UAEPAXI@Z 1010b320 f i nafxcwd:winctrl6.obj
 0002:00084360       ??_GCReBarCtrl@@UAEPAXI@Z  1010b360 f i nafxcwd:winctrl6.obj
 0002:00084360       ??_ECReBarCtrl@@UAEPAXI@Z  1010b360 f i nafxcwd:winctrl6.obj
 0002:000843a0       ??1CReBarCtrl@@UAE@XZ      1010b3a0 f i nafxcwd:winctrl6.obj
 0002:000843c0       ??1_AFX_RICHEDIT_STATE@@UAE@XZ 1010b3c0 f   nafxcwd:winctrl4.obj
 0002:00084410       ?AfxGetRichEditState@@YAPAV_AFX_RICHEDIT_STATE@@XZ 1010b410 f   nafxcwd:winctrl4.obj
 0002:00084420       ?AfxInitRichEdit@@YGHXZ    1010b420 f   nafxcwd:winctrl4.obj
 0002:00084460       ?AfxInitRichEdit2@@YGHXZ   1010b460 f   nafxcwd:winctrl4.obj
 0002:000844a0       ?Create@CRichEditCtrl@@UAEHKABUtagRECT@@PAVCWnd@@I@Z 1010b4a0 f   nafxcwd:winctrl4.obj
 0002:000844f0       ?CreateEx@CRichEditCtrl@@UAEHKKABUtagRECT@@PAVCWnd@@I@Z 1010b4f0 f   nafxcwd:winctrl4.obj
 0002:00084540       ?GetLine@CRichEditCtrl@@QBEHHPAD@Z 1010b540 f   nafxcwd:winctrl4.obj
 0002:00084590       ?LineIndex@CRichEditCtrl@@QBEHH@Z 1010b590 f   nafxcwd:winctrl4.obj
 0002:000845e0       ?LineLength@CRichEditCtrl@@QBEHH@Z 1010b5e0 f   nafxcwd:winctrl4.obj
 0002:00084630       ?LineScroll@CRichEditCtrl@@QAEXHH@Z 1010b630 f   nafxcwd:winctrl4.obj
 0002:00084680       ?SetSel@CRichEditCtrl@@QAEXJJ@Z 1010b680 f   nafxcwd:winctrl4.obj
 0002:000846e0       ?CanPaste@CRichEditCtrl@@QBEHI@Z 1010b6e0 f   nafxcwd:winctrl4.obj
 0002:00084760       ?PasteSpecial@CRichEditCtrl@@QAEXIKPAUHMETAFILE__@@@Z 1010b760 f   nafxcwd:winctrl4.obj
 0002:000847c0       ?GetLine@CRichEditCtrl@@QBEHHPADH@Z 1010b7c0 f   nafxcwd:winctrl4.obj
 0002:00084820       ?GetSel@CRichEditCtrl@@QBEXAAJ0@Z 1010b820 f   nafxcwd:winctrl4.obj
 0002:00084880       ?GetSelText@CRichEditCtrl@@QBE?AV?$CStringT@DV?$StrTraitMFC@DV?$ChTraitsCRT@D@ATL@@@@@ATL@@XZ 1010b880 f   nafxcwd:winctrl4.obj
 0002:00084940       ?GetIRichEditOle@CRichEditCtrl@@QBEPAUIRichEditOle@@XZ 1010b940 f   nafxcwd:winctrl4.obj
 0002:000849a0       ?GetTextLengthEx@CRichEditCtrl@@QBEJKI@Z 1010b9a0 f   nafxcwd:winctrl4.obj
 0002:00084a10       ?GetTextRange@CRichEditCtrl@@QBEHHHAAV?$CStringT@DV?$StrTraitMFC@DV?$ChTraitsCRT@D@ATL@@@@@ATL@@@Z 1010ba10 f   nafxcwd:winctrl4.obj
 0002:00084ab0       ?SetDefaultCharFormat@CRichEditCtrl@@QAEHAAU_charformat@@@Z 1010bab0 f   nafxcwd:winctrl4.obj
 0002:00084b10       ?SetDefaultCharFormat@CRichEditCtrl@@QAEHAAUCHARFORMAT2A@@@Z 1010bb10 f   nafxcwd:winctrl4.obj
 0002:00084b70       ?SetSelectionCharFormat@CRichEditCtrl@@QAEHAAU_charformat@@@Z 1010bb70 f   nafxcwd:winctrl4.obj
 0002:00084bd0       ?SetSelectionCharFormat@CRichEditCtrl@@QAEHAAUCHARFORMAT2A@@@Z 1010bbd0 f   nafxcwd:winctrl4.obj
 0002:00084c30       ?SetWordCharFormat@CRichEditCtrl@@QAEHAAU_charformat@@@Z 1010bc30 f   nafxcwd:winctrl4.obj
 0002:00084c90       ?SetWordCharFormat@CRichEditCtrl@@QAEHAAUCHARFORMAT2A@@@Z 1010bc90 f   nafxcwd:winctrl4.obj
 0002:00084cf0       ?GetDefaultCharFormat@CRichEditCtrl@@QBEKAAU_charformat@@@Z 1010bcf0 f   nafxcwd:winctrl4.obj
 0002:00084d50       ?GetDefaultCharFormat@CRichEditCtrl@@QBEKAAUCHARFORMAT2A@@@Z 1010bd50 f   nafxcwd:winctrl4.obj
 0002:00084db0       ?GetSelectionCharFormat@CRichEditCtrl@@QBEKAAU_charformat@@@Z 1010bdb0 f   nafxcwd:winctrl4.obj
 0002:00084e10       ?GetSelectionCharFormat@CRichEditCtrl@@QBEKAAUCHARFORMAT2A@@@Z 1010be10 f   nafxcwd:winctrl4.obj
 0002:00084e70       ?GetParaFormat@CRichEditCtrl@@QBEKAAU_paraformat@@@Z 1010be70 f   nafxcwd:winctrl4.obj
 0002:00084ed0       ?GetParaFormat@CRichEditCtrl@@QBEKAAUPARAFORMAT2@@@Z 1010bed0 f   nafxcwd:winctrl4.obj
 0002:00084f30       ?SetParaFormat@CRichEditCtrl@@QAEHAAU_paraformat@@@Z 1010bf30 f   nafxcwd:winctrl4.obj
 0002:00084f90       ?SetParaFormat@CRichEditCtrl@@QAEHAAUPARAFORMAT2@@@Z 1010bf90 f   nafxcwd:winctrl4.obj
 0002:000852f0       ??_G_AFX_RICHEDIT_STATE@@UAEPAXI@Z 1010c2f0 f i nafxcwd:winctrl4.obj
 0002:000852f0       ??_E_AFX_RICHEDIT_STATE@@UAEPAXI@Z 1010c2f0 f i nafxcwd:winctrl4.obj
 0002:00085330       ?GetData@?$CProcessLocal@V_AFX_RICHEDIT_STATE@@@@QAEPAV_AFX_RICHEDIT_STATE@@XZ 1010c330 f i nafxcwd:winctrl4.obj
 0002:00085380       ??B?$CProcessLocal@V_AFX_RICHEDIT_STATE@@@@QAEPAV_AFX_RICHEDIT_STATE@@XZ 1010c380 f i nafxcwd:winctrl4.obj
 0002:000853a0       ?CreateObject@?$CProcessLocal@V_AFX_RICHEDIT_STATE@@@@SGPAVCNoTrackObject@@XZ 1010c3a0 f i nafxcwd:winctrl4.obj
 0002:00085420       ??0_AFX_RICHEDIT_STATE@@QAE@XZ 1010c420 f i nafxcwd:winctrl4.obj
 0002:00085490       ??1?$CProcessLocal@V_AFX_RICHEDIT_STATE@@@@QAE@XZ 1010c490 f i nafxcwd:winctrl4.obj
 0002:00086510       ??0CStringList@@QAE@H@Z    1010d510 f   nafxcwd:list_s.obj
 0002:000865b0       ?RemoveAll@CStringList@@QAEXXZ 1010d5b0 f   nafxcwd:list_s.obj
 0002:00086650       ??1CStringList@@UAE@XZ     1010d650 f   nafxcwd:list_s.obj
 0002:000866c0       ?NewNode@CStringList@@IAEPAUCNode@1@PAU21@0@Z 1010d6c0 f   nafxcwd:list_s.obj
 0002:00086810       ?FreeNode@CStringList@@IAEXPAUCNode@1@@Z 1010d810 f   nafxcwd:list_s.obj
 0002:00086890       ?AddHead@CStringList@@QAEPAU__POSITION@@PBD@Z 1010d890 f   nafxcwd:list_s.obj
 0002:00086900       ?AddHead@CStringList@@QAEPAU__POSITION@@ABV?$CStringT@DV?$StrTraitMFC@DV?$ChTraitsCRT@D@ATL@@@@@ATL@@@Z 1010d900 f   nafxcwd:list_s.obj
 0002:00086980       ?AddTail@CStringList@@QAEPAU__POSITION@@PBD@Z 1010d980 f   nafxcwd:list_s.obj
 0002:000869f0       ?AddTail@CStringList@@QAEPAU__POSITION@@ABV?$CStringT@DV?$StrTraitMFC@DV?$ChTraitsCRT@D@ATL@@@@@ATL@@@Z 1010d9f0 f   nafxcwd:list_s.obj
 0002:00086a60       ?AddHead@CStringList@@QAEXPAV1@@Z 1010da60 f   nafxcwd:list_s.obj
 0002:00086af0       ?AddTail@CStringList@@QAEXPAV1@@Z 1010daf0 f   nafxcwd:list_s.obj
 0002:00086b80       ?RemoveHead@CStringList@@QAE?AV?$CStringT@DV?$StrTraitMFC@DV?$ChTraitsCRT@D@ATL@@@@@ATL@@XZ 1010db80 f   nafxcwd:list_s.obj
 0002:00086c90       ?RemoveTail@CStringList@@QAE?AV?$CStringT@DV?$StrTraitMFC@DV?$ChTraitsCRT@D@ATL@@@@@ATL@@XZ 1010dc90 f   nafxcwd:list_s.obj
 0002:00086da0       ?InsertBefore@CStringList@@QAEPAU__POSITION@@PAU2@PBD@Z 1010dda0 f   nafxcwd:list_s.obj
 0002:00086e10       ?InsertBefore@CStringList@@QAEPAU__POSITION@@PAU2@ABV?$CStringT@DV?$StrTraitMFC@DV?$ChTraitsCRT@D@ATL@@@@@ATL@@@Z 1010de10 f   nafxcwd:list_s.obj
 0002:00086ef0       ?InsertAfter@CStringList@@QAEPAU__POSITION@@PAU2@PBD@Z 1010def0 f   nafxcwd:list_s.obj
 0002:00086f60       ?InsertAfter@CStringList@@QAEPAU__POSITION@@PAU2@ABV?$CStringT@DV?$StrTraitMFC@DV?$ChTraitsCRT@D@ATL@@@@@ATL@@@Z 1010df60 f   nafxcwd:list_s.obj
 0002:00087060       ?RemoveAt@CStringList@@QAEXPAU__POSITION@@@Z 1010e060 f   nafxcwd:list_s.obj
 0002:00087160       ?FindIndex@CStringList@@QBEPAU__POSITION@@H@Z 1010e160 f   nafxcwd:list_s.obj
 0002:000871f0       ?Find@CStringList@@QBEPAU__POSITION@@PBDPAU2@@Z 1010e1f0 f   nafxcwd:list_s.obj
 0002:00087290       ?Serialize@CStringList@@UAEXAAVCArchive@@@Z 1010e290 f   nafxcwd:list_s.obj
 0002:000873a0       ?Dump@CStringList@@UBEXAAVCDumpContext@@@Z 1010e3a0 f   nafxcwd:list_s.obj
 0002:00087430       ?AssertValid@CStringList@@UBEXXZ 1010e430 f   nafxcwd:list_s.obj
 0002:000878d0       ??_ECStringList@@UAEPAXI@Z 1010e8d0 f i nafxcwd:list_s.obj
 0002:000878d0       ??_GCStringList@@UAEPAXI@Z 1010e8d0 f i nafxcwd:list_s.obj
 0002:00087910       ??_G?$CStringT@DV?$StrTraitMFC@DV?$ChTraitsCRT@D@ATL@@@@@ATL@@QAEPAXI@Z 1010e910 f i nafxcwd:list_s.obj
 0002:00087950       ?data@CPlex@@QAEPAXXZ      1010e950 f i nafxcwd:list_s.obj
 0002:00087970       ??0CPtrList@@QAE@H@Z       1010e970 f   nafxcwd:list_p.obj
 0002:00087a10       ?RemoveAll@CPtrList@@QAEXXZ 1010ea10 f   nafxcwd:list_p.obj
 0002:00087a70       ??1CPtrList@@UAE@XZ        1010ea70 f   nafxcwd:list_p.obj
 0002:00087ae0       ?NewNode@CPtrList@@IAEPAUCNode@1@PAU21@0@Z 1010eae0 f   nafxcwd:list_p.obj
 0002:00087bf0       ?FreeNode@CPtrList@@IAEXPAUCNode@1@@Z 1010ebf0 f   nafxcwd:list_p.obj
 0002:00087c60       ?AddHead@CPtrList@@QAEPAU__POSITION@@PAX@Z 1010ec60 f   nafxcwd:list_p.obj
 0002:00087cd0       ?AddTail@CPtrList@@QAEPAU__POSITION@@PAX@Z 1010ecd0 f   nafxcwd:list_p.obj
 0002:00087d40       ?AddHead@CPtrList@@QAEXPAV1@@Z 1010ed40 f   nafxcwd:list_p.obj
 0002:00087dd0       ?AddTail@CPtrList@@QAEXPAV1@@Z 1010edd0 f   nafxcwd:list_p.obj
 0002:00087e60       ?RemoveHead@CPtrList@@QAEPAXXZ 1010ee60 f   nafxcwd:list_p.obj
 0002:00087f20       ?RemoveTail@CPtrList@@QAEPAXXZ 1010ef20 f   nafxcwd:list_p.obj
 0002:00087fe0       ?InsertBefore@CPtrList@@QAEPAU__POSITION@@PAU2@PAX@Z 1010efe0 f   nafxcwd:list_p.obj
 0002:000880b0       ?InsertAfter@CPtrList@@QAEPAU__POSITION@@PAU2@PAX@Z 1010f0b0 f   nafxcwd:list_p.obj
 0002:000881b0       ?RemoveAt@CPtrList@@QAEXPAU__POSITION@@@Z 1010f1b0 f   nafxcwd:list_p.obj
 0002:000882b0       ?FindIndex@CPtrList@@QBEPAU__POSITION@@H@Z 1010f2b0 f   nafxcwd:list_p.obj
 0002:00088340       ?Find@CPtrList@@QBEPAU__POSITION@@PAXPAU2@@Z 1010f340 f   nafxcwd:list_p.obj
 0002:000883d0       ?Dump@CPtrList@@UBEXAAVCDumpContext@@@Z 1010f3d0 f   nafxcwd:list_p.obj
 0002:00088470       ?AssertValid@CPtrList@@UBEXXZ 1010f470 f   nafxcwd:list_p.obj
 0002:00088810       ??_ECPtrList@@UAEPAXI@Z    1010f810 f i nafxcwd:list_p.obj
 0002:00088810       ??_GCPtrList@@UAEPAXI@Z    1010f810 f i nafxcwd:list_p.obj
 0002:00088850       ??0CByteArray@@QAE@XZ      1010f850 f   nafxcwd:array_b.obj
 0002:000888a0       ??1CByteArray@@UAE@XZ      1010f8a0 f   nafxcwd:array_b.obj
 0002:00088910       ?SetSize@CByteArray@@QAEXHH@Z 1010f910 f   nafxcwd:array_b.obj
 0002:00088be0       ?Append@CByteArray@@QAEHABV1@@Z 1010fbe0 f   nafxcwd:array_b.obj
 0002:00088c70       ?Copy@CByteArray@@QAEXABV1@@Z 1010fc70 f   nafxcwd:array_b.obj
 0002:00088cf0       ?FreeExtra@CByteArray@@QAEXXZ 1010fcf0 f   nafxcwd:array_b.obj
 0002:00088dc0       ?SetAtGrow@CByteArray@@QAEXHE@Z 1010fdc0 f   nafxcwd:array_b.obj
 0002:00088e30       ?InsertAt@CByteArray@@QAEXHEH@Z 1010fe30 f   nafxcwd:array_b.obj
 0002:00088f60       ?RemoveAt@CByteArray@@QAEXHH@Z 1010ff60 f   nafxcwd:array_b.obj
 0002:00089040       ?InsertAt@CByteArray@@QAEXHPAV1@@Z 10110040 f   nafxcwd:array_b.obj
 0002:00089150       ?Serialize@CByteArray@@UAEXAAVCArchive@@@Z 10110150 f   nafxcwd:array_b.obj
 0002:00089270       ?Dump@CByteArray@@UBEXAAVCDumpContext@@@Z 10110270 f   nafxcwd:array_b.obj
 0002:00089330       ?AssertValid@CByteArray@@UBEXXZ 10110330 f   nafxcwd:array_b.obj
 0002:00089710       ??_GCByteArray@@UAEPAXI@Z  10110710 f i nafxcwd:array_b.obj
 0002:00089710       ??_ECByteArray@@UAEPAXI@Z  10110710 f i nafxcwd:array_b.obj
 0002:00089750       ??0CWordArray@@QAE@XZ      10110750 f   nafxcwd:array_w.obj
 0002:000897a0       ??1CWordArray@@UAE@XZ      101107a0 f   nafxcwd:array_w.obj
 0002:00089810       ?SetSize@CWordArray@@QAEXHH@Z 10110810 f   nafxcwd:array_w.obj
 0002:00089b00       ?Append@CWordArray@@QAEHABV1@@Z 10110b00 f   nafxcwd:array_w.obj
 0002:00089ba0       ?Copy@CWordArray@@QAEXABV1@@Z 10110ba0 f   nafxcwd:array_w.obj
 0002:00089c20       ?FreeExtra@CWordArray@@QAEXXZ 10110c20 f   nafxcwd:array_w.obj
 0002:00089cf0       ?SetAtGrow@CWordArray@@QAEXHG@Z 10110cf0 f   nafxcwd:array_w.obj
 0002:00089d70       ?InsertAt@CWordArray@@QAEXHGH@Z 10110d70 f   nafxcwd:array_w.obj
 0002:00089eb0       ?RemoveAt@CWordArray@@QAEXHH@Z 10110eb0 f   nafxcwd:array_w.obj
 0002:00089fa0       ?InsertAt@CWordArray@@QAEXHPAV1@@Z 10110fa0 f   nafxcwd:array_w.obj
 0002:0008a0b0       ?Serialize@CWordArray@@UAEXAAVCArchive@@@Z 101110b0 f   nafxcwd:array_w.obj
 0002:0008a1e0       ?Dump@CWordArray@@UBEXAAVCDumpContext@@@Z 101111e0 f   nafxcwd:array_w.obj
 0002:0008a2a0       ?AssertValid@CWordArray@@UBEXXZ 101112a0 f   nafxcwd:array_w.obj
 0002:0008a6a0       ??_GCWordArray@@UAEPAXI@Z  101116a0 f i nafxcwd:array_w.obj
 0002:0008a6a0       ??_ECWordArray@@UAEPAXI@Z  101116a0 f i nafxcwd:array_w.obj
 0002:0008a6e0       ??0CDWordArray@@QAE@XZ     101116e0 f   nafxcwd:array_d.obj
 0002:0008a730       ??1CDWordArray@@UAE@XZ     10111730 f   nafxcwd:array_d.obj
 0002:0008a7a0       ?SetSize@CDWordArray@@QAEXHH@Z 101117a0 f   nafxcwd:array_d.obj
 0002:0008aa90       ?Append@CDWordArray@@QAEHABV1@@Z 10111a90 f   nafxcwd:array_d.obj
 0002:0008ab30       ?Copy@CDWordArray@@QAEXABV1@@Z 10111b30 f   nafxcwd:array_d.obj
 0002:0008abb0       ?FreeExtra@CDWordArray@@QAEXXZ 10111bb0 f   nafxcwd:array_d.obj
 0002:0008ac80       ?SetAtGrow@CDWordArray@@QAEXHK@Z 10111c80 f   nafxcwd:array_d.obj
 0002:0008acf0       ?InsertAt@CDWordArray@@QAEXHKH@Z 10111cf0 f   nafxcwd:array_d.obj
 0002:0008ae30       ?RemoveAt@CDWordArray@@QAEXHH@Z 10111e30 f   nafxcwd:array_d.obj
 0002:0008af20       ?InsertAt@CDWordArray@@QAEXHPAV1@@Z 10111f20 f   nafxcwd:array_d.obj
 0002:0008b030       ?Serialize@CDWordArray@@UAEXAAVCArchive@@@Z 10112030 f   nafxcwd:array_d.obj
 0002:0008b160       ?Dump@CDWordArray@@UBEXAAVCDumpContext@@@Z 10112160 f   nafxcwd:array_d.obj
 0002:0008b220       ?AssertValid@CDWordArray@@UBEXXZ 10112220 f   nafxcwd:array_d.obj
 0002:0008b610       ??_GCDWordArray@@UAEPAXI@Z 10112610 f i nafxcwd:array_d.obj
 0002:0008b610       ??_ECDWordArray@@UAEPAXI@Z 10112610 f i nafxcwd:array_d.obj
 0002:0008b650       ??0CUIntArray@@QAE@XZ      10112650 f   nafxcwd:array_u.obj
 0002:0008b6a0       ??1CUIntArray@@UAE@XZ      101126a0 f   nafxcwd:array_u.obj
 0002:0008b710       ?SetSize@CUIntArray@@QAEXHH@Z 10112710 f   nafxcwd:array_u.obj
 0002:0008ba00       ?Append@CUIntArray@@QAEHABV1@@Z 10112a00 f   nafxcwd:array_u.obj
 0002:0008baa0       ?Copy@CUIntArray@@QAEXABV1@@Z 10112aa0 f   nafxcwd:array_u.obj
 0002:0008bb20       ?FreeExtra@CUIntArray@@QAEXXZ 10112b20 f   nafxcwd:array_u.obj
 0002:0008bbf0       ?SetAtGrow@CUIntArray@@QAEXHI@Z 10112bf0 f   nafxcwd:array_u.obj
 0002:0008bc60       ?InsertAt@CUIntArray@@QAEXHIH@Z 10112c60 f   nafxcwd:array_u.obj
 0002:0008bda0       ?RemoveAt@CUIntArray@@QAEXHH@Z 10112da0 f   nafxcwd:array_u.obj
 0002:0008be90       ?InsertAt@CUIntArray@@QAEXHPAV1@@Z 10112e90 f   nafxcwd:array_u.obj
 0002:0008bfa0       ?Dump@CUIntArray@@UBEXAAVCDumpContext@@@Z 10112fa0 f   nafxcwd:array_u.obj
 0002:0008c060       ?AssertValid@CUIntArray@@UBEXXZ 10113060 f   nafxcwd:array_u.obj
 0002:0008c410       ??_ECUIntArray@@UAEPAXI@Z  10113410 f i nafxcwd:array_u.obj
 0002:0008c410       ??_GCUIntArray@@UAEPAXI@Z  10113410 f i nafxcwd:array_u.obj
 0002:0008c450       ??0CPtrArray@@QAE@XZ       10113450 f   nafxcwd:array_p.obj
 0002:0008c4a0       ??1CPtrArray@@UAE@XZ       101134a0 f   nafxcwd:array_p.obj
 0002:0008c510       ?SetSize@CPtrArray@@QAEXHH@Z 10113510 f   nafxcwd:array_p.obj
 0002:0008c800       ?Append@CPtrArray@@QAEHABV1@@Z 10113800 f   nafxcwd:array_p.obj
 0002:0008c8a0       ?Copy@CPtrArray@@QAEXABV1@@Z 101138a0 f   nafxcwd:array_p.obj
 0002:0008c920       ?FreeExtra@CPtrArray@@QAEXXZ 10113920 f   nafxcwd:array_p.obj
 0002:0008c9f0       ?SetAtGrow@CPtrArray@@QAEXHPAX@Z 101139f0 f   nafxcwd:array_p.obj
 0002:0008ca60       ?InsertAt@CPtrArray@@QAEXHPAXH@Z 10113a60 f   nafxcwd:array_p.obj
 0002:0008cba0       ?RemoveAt@CPtrArray@@QAEXHH@Z 10113ba0 f   nafxcwd:array_p.obj
 0002:0008cc90       ?InsertAt@CPtrArray@@QAEXHPAV1@@Z 10113c90 f   nafxcwd:array_p.obj
 0002:0008cda0       ?Dump@CPtrArray@@UBEXAAVCDumpContext@@@Z 10113da0 f   nafxcwd:array_p.obj
 0002:0008ce60       ?AssertValid@CPtrArray@@UBEXXZ 10113e60 f   nafxcwd:array_p.obj
 0002:0008d210       ??_GCPtrArray@@UAEPAXI@Z   10114210 f i nafxcwd:array_p.obj
 0002:0008d210       ??_ECPtrArray@@UAEPAXI@Z   10114210 f i nafxcwd:array_p.obj
 0002:0008d250       ??0CObArray@@QAE@XZ        10114250 f   nafxcwd:array_o.obj
 0002:0008d2a0       ??1CObArray@@UAE@XZ        101142a0 f   nafxcwd:array_o.obj
 0002:0008d310       ?SetSize@CObArray@@QAEXHH@Z 10114310 f   nafxcwd:array_o.obj
 0002:0008d600       ?Append@CObArray@@QAEHABV1@@Z 10114600 f   nafxcwd:array_o.obj
 0002:0008d6a0       ?Copy@CObArray@@QAEXABV1@@Z 101146a0 f   nafxcwd:array_o.obj
 0002:0008d720       ?FreeExtra@CObArray@@QAEXXZ 10114720 f   nafxcwd:array_o.obj
 0002:0008d7f0       ?SetAtGrow@CObArray@@QAEXHPAVCObject@@@Z 101147f0 f   nafxcwd:array_o.obj
 0002:0008d860       ?InsertAt@CObArray@@QAEXHPAVCObject@@H@Z 10114860 f   nafxcwd:array_o.obj
 0002:0008d9a0       ?RemoveAt@CObArray@@QAEXHH@Z 101149a0 f   nafxcwd:array_o.obj
 0002:0008da90       ?InsertAt@CObArray@@QAEXHPAV1@@Z 10114a90 f   nafxcwd:array_o.obj
 0002:0008dba0       ?Serialize@CObArray@@UAEXAAVCArchive@@@Z 10114ba0 f   nafxcwd:array_o.obj
 0002:0008dc70       ?Dump@CObArray@@UBEXAAVCDumpContext@@@Z 10114c70 f   nafxcwd:array_o.obj
 0002:0008dd30       ?AssertValid@CObArray@@UBEXXZ 10114d30 f   nafxcwd:array_o.obj
 0002:0008e110       ??_GCObArray@@UAEPAXI@Z    10115110 f i nafxcwd:array_o.obj
 0002:0008e110       ??_ECObArray@@UAEPAXI@Z    10115110 f i nafxcwd:array_o.obj
 0002:0008e150       ??0CStringArray@@QAE@XZ    10115150 f   nafxcwd:array_s.obj
 0002:0008e1a0       ??1CStringArray@@UAE@XZ    101151a0 f   nafxcwd:array_s.obj
 0002:0008e290       ?SetSize@CStringArray@@QAEXHH@Z 10115290 f   nafxcwd:array_s.obj
 0002:0008e650       ?Append@CStringArray@@QAEHABV1@@Z 10115650 f   nafxcwd:array_s.obj
 0002:0008e740       ?Copy@CStringArray@@QAEXABV1@@Z 10115740 f   nafxcwd:array_s.obj
 0002:0008e7c0       ?FreeExtra@CStringArray@@QAEXXZ 101157c0 f   nafxcwd:array_s.obj
 0002:0008e890       ?SetAtGrow@CStringArray@@QAEXHPBD@Z 10115890 f   nafxcwd:array_s.obj
 0002:0008e910       ?SetAtGrow@CStringArray@@QAEXHABV?$CStringT@DV?$StrTraitMFC@DV?$ChTraitsCRT@D@ATL@@@@@ATL@@@Z 10115910 f   nafxcwd:array_s.obj
 0002:0008e990       ?InsertEmpty@CStringArray@@IAEXHH@Z 10115990 f   nafxcwd:array_s.obj
 0002:0008eaa0       ?InsertAt@CStringArray@@QAEXHPBDH@Z 10115aa0 f   nafxcwd:array_s.obj
 0002:0008eb40       ?InsertAt@CStringArray@@QAEXHABV?$CStringT@DV?$StrTraitMFC@DV?$ChTraitsCRT@D@ATL@@@@@ATL@@H@Z 10115b40 f   nafxcwd:array_s.obj
 0002:0008eba0       ?RemoveAt@CStringArray@@QAEXHH@Z 10115ba0 f   nafxcwd:array_s.obj
 0002:0008ecb0       ?InsertAt@CStringArray@@QAEXHPAV1@@Z 10115cb0 f   nafxcwd:array_s.obj
 0002:0008edc0       ?Serialize@CStringArray@@UAEXAAVCArchive@@@Z 10115dc0 f   nafxcwd:array_s.obj
 0002:0008ee90       ?Dump@CStringArray@@UBEXAAVCDumpContext@@@Z 10115e90 f   nafxcwd:array_s.obj
 0002:0008ef50       ?AssertValid@CStringArray@@UBEXXZ 10115f50 f   nafxcwd:array_s.obj
 0002:0008f3f0       ??_ECStringArray@@UAEPAXI@Z 101163f0 f i nafxcwd:array_s.obj
 0002:0008f3f0       ??_GCStringArray@@UAEPAXI@Z 101163f0 f i nafxcwd:array_s.obj
 0002:0008f430       ?Create@CPlex@@SGPAU1@AAPAU1@II@Z 10116430 f   nafxcwd:plex.obj
 0002:0008f4b0       ?FreeDataChain@CPlex@@QAEXXZ 101164b0 f   nafxcwd:plex.obj
 0002:00090560       ??0CMapPtrToPtr@@QAE@H@Z   10117560 f   nafxcwd:map_pp.obj
 0002:00090610       ?InitHashTable@CMapPtrToPtr@@QAEXIH@Z 10117610 f   nafxcwd:map_pp.obj
 0002:000906e0       ?RemoveAll@CMapPtrToPtr@@QAEXXZ 101176e0 f   nafxcwd:map_pp.obj
 0002:00090750       ??1CMapPtrToPtr@@UAE@XZ    10117750 f   nafxcwd:map_pp.obj
 0002:000907c0       ?NewAssoc@CMapPtrToPtr@@IAEPAUCAssoc@1@XZ 101177c0 f   nafxcwd:map_pp.obj
 0002:000908c0       ?FreeAssoc@CMapPtrToPtr@@IAEXPAUCAssoc@1@@Z 101178c0 f   nafxcwd:map_pp.obj
 0002:00090920       ?GetAssocAt@CMapPtrToPtr@@IBEPAUCAssoc@1@PAXAAI1@Z 10117920 f   nafxcwd:map_pp.obj
 0002:000909a0       ?GetValueAt@CMapPtrToPtr@@QBEPAXPAX@Z 101179a0 f   nafxcwd:map_pp.obj
 0002:00090a10       ?Lookup@CMapPtrToPtr@@QBEHPAXAAPAX@Z 10117a10 f   nafxcwd:map_pp.obj
 0002:00090a70       ??ACMapPtrToPtr@@QAEAAPAXPAX@Z 10117a70 f   nafxcwd:map_pp.obj
 0002:00090b10       ?RemoveKey@CMapPtrToPtr@@QAEHPAX@Z 10117b10 f   nafxcwd:map_pp.obj
 0002:00090bb0       ?GetNextAssoc@CMapPtrToPtr@@QBEXAAPAU__POSITION@@AAPAX1@Z 10117bb0 f   nafxcwd:map_pp.obj
 0002:00090d30       ?Dump@CMapPtrToPtr@@UBEXAAVCDumpContext@@@Z 10117d30 f   nafxcwd:map_pp.obj
 0002:00090df0       ?AssertValid@CMapPtrToPtr@@UBEXXZ 10117df0 f   nafxcwd:map_pp.obj
 0002:00091080       ??_GCMapPtrToPtr@@UAEPAXI@Z 10118080 f i nafxcwd:map_pp.obj
 0002:00091080       ??_ECMapPtrToPtr@@UAEPAXI@Z 10118080 f i nafxcwd:map_pp.obj
 0002:000910c0       ?HashKey@CMapPtrToPtr@@QBEIPAX@Z 101180c0 f i nafxcwd:map_pp.obj
 0002:000910e0       ??0CMapWordToPtr@@QAE@H@Z  101180e0 f   nafxcwd:map_wp.obj
 0002:00091190       ?InitHashTable@CMapWordToPtr@@QAEXIH@Z 10118190 f   nafxcwd:map_wp.obj
 0002:00091260       ?RemoveAll@CMapWordToPtr@@QAEXXZ 10118260 f   nafxcwd:map_wp.obj
 0002:000912d0       ??1CMapWordToPtr@@UAE@XZ   101182d0 f   nafxcwd:map_wp.obj
 0002:00091340       ?NewAssoc@CMapWordToPtr@@IAEPAUCAssoc@1@XZ 10118340 f   nafxcwd:map_wp.obj
 0002:00091440       ?FreeAssoc@CMapWordToPtr@@IAEXPAUCAssoc@1@@Z 10118440 f   nafxcwd:map_wp.obj
 0002:000914a0       ?GetAssocAt@CMapWordToPtr@@IBEPAUCAssoc@1@GAAI0@Z 101184a0 f   nafxcwd:map_wp.obj
 0002:00091520       ?Lookup@CMapWordToPtr@@QBEHGAAPAX@Z 10118520 f   nafxcwd:map_wp.obj
 0002:00091580       ??ACMapWordToPtr@@QAEAAPAXG@Z 10118580 f   nafxcwd:map_wp.obj
 0002:00091620       ?RemoveKey@CMapWordToPtr@@QAEHG@Z 10118620 f   nafxcwd:map_wp.obj
 0002:000916c0       ?GetNextAssoc@CMapWordToPtr@@QBEXAAPAU__POSITION@@AAGAAPAX@Z 101186c0 f   nafxcwd:map_wp.obj
 0002:00091840       ?Dump@CMapWordToPtr@@UBEXAAVCDumpContext@@@Z 10118840 f   nafxcwd:map_wp.obj
 0002:00091900       ?AssertValid@CMapWordToPtr@@UBEXXZ 10118900 f   nafxcwd:map_wp.obj
 0002:00091b80       ??_GCMapWordToPtr@@UAEPAXI@Z 10118b80 f i nafxcwd:map_wp.obj
 0002:00091b80       ??_ECMapWordToPtr@@UAEPAXI@Z 10118b80 f i nafxcwd:map_wp.obj
 0002:00091bc0       ?HashKey@CMapWordToPtr@@QBEIG@Z 10118bc0 f i nafxcwd:map_wp.obj
 0002:00091be0       ??0CMapPtrToWord@@QAE@H@Z  10118be0 f   nafxcwd:map_pw.obj
 0002:00091c90       ?InitHashTable@CMapPtrToWord@@QAEXIH@Z 10118c90 f   nafxcwd:map_pw.obj
 0002:00091d60       ?RemoveAll@CMapPtrToWord@@QAEXXZ 10118d60 f   nafxcwd:map_pw.obj
 0002:00091dd0       ??1CMapPtrToWord@@UAE@XZ   10118dd0 f   nafxcwd:map_pw.obj
 0002:00091e40       ?NewAssoc@CMapPtrToWord@@IAEPAUCAssoc@1@XZ 10118e40 f   nafxcwd:map_pw.obj
 0002:00091f40       ?FreeAssoc@CMapPtrToWord@@IAEXPAUCAssoc@1@@Z 10118f40 f   nafxcwd:map_pw.obj
 0002:00091fa0       ?GetAssocAt@CMapPtrToWord@@IBEPAUCAssoc@1@PAXAAI1@Z 10118fa0 f   nafxcwd:map_pw.obj
 0002:00092020       ?Lookup@CMapPtrToWord@@QBEHPAXAAG@Z 10119020 f   nafxcwd:map_pw.obj
 0002:00092080       ??ACMapPtrToWord@@QAEAAGPAX@Z 10119080 f   nafxcwd:map_pw.obj
 0002:00092120       ?RemoveKey@CMapPtrToWord@@QAEHPAX@Z 10119120 f   nafxcwd:map_pw.obj
 0002:000921c0       ?GetNextAssoc@CMapPtrToWord@@QBEXAAPAU__POSITION@@AAPAXAAG@Z 101191c0 f   nafxcwd:map_pw.obj
 0002:00092340       ?Dump@CMapPtrToWord@@UBEXAAVCDumpContext@@@Z 10119340 f   nafxcwd:map_pw.obj
 0002:00092400       ?AssertValid@CMapPtrToWord@@UBEXXZ 10119400 f   nafxcwd:map_pw.obj
 0002:00092680       ??_ECMapPtrToWord@@UAEPAXI@Z 10119680 f i nafxcwd:map_pw.obj
 0002:00092680       ??_GCMapPtrToWord@@UAEPAXI@Z 10119680 f i nafxcwd:map_pw.obj
 0002:000926c0       ?HashKey@CMapPtrToWord@@QBEIPAX@Z 101196c0 f i nafxcwd:map_pw.obj
 0002:000926e0       ??0CMapWordToOb@@QAE@H@Z   101196e0 f   nafxcwd:map_wo.obj
 0002:00092790       ?InitHashTable@CMapWordToOb@@QAEXIH@Z 10119790 f   nafxcwd:map_wo.obj
 0002:00092860       ?RemoveAll@CMapWordToOb@@QAEXXZ 10119860 f   nafxcwd:map_wo.obj
 0002:000928d0       ??1CMapWordToOb@@UAE@XZ    101198d0 f   nafxcwd:map_wo.obj
 0002:00092940       ?NewAssoc@CMapWordToOb@@IAEPAUCAssoc@1@XZ 10119940 f   nafxcwd:map_wo.obj
 0002:00092a40       ?FreeAssoc@CMapWordToOb@@IAEXPAUCAssoc@1@@Z 10119a40 f   nafxcwd:map_wo.obj
 0002:00092aa0       ?GetAssocAt@CMapWordToOb@@IBEPAUCAssoc@1@GAAI0@Z 10119aa0 f   nafxcwd:map_wo.obj
 0002:00092b20       ?Lookup@CMapWordToOb@@QBEHGAAPAVCObject@@@Z 10119b20 f   nafxcwd:map_wo.obj
 0002:00092b80       ??ACMapWordToOb@@QAEAAPAVCObject@@G@Z 10119b80 f   nafxcwd:map_wo.obj
 0002:00092c20       ?RemoveKey@CMapWordToOb@@QAEHG@Z 10119c20 f   nafxcwd:map_wo.obj
 0002:00092cc0       ?GetNextAssoc@CMapWordToOb@@QBEXAAPAU__POSITION@@AAGAAPAVCObject@@@Z 10119cc0 f   nafxcwd:map_wo.obj
 0002:00092e40       ?Serialize@CMapWordToOb@@UAEXAAVCArchive@@@Z 10119e40 f   nafxcwd:map_wo.obj
 0002:00092f70       ?Dump@CMapWordToOb@@UBEXAAVCDumpContext@@@Z 10119f70 f   nafxcwd:map_wo.obj
 0002:00093030       ?AssertValid@CMapWordToOb@@UBEXXZ 1011a030 f   nafxcwd:map_wo.obj
 0002:000932f0       ??_GCMapWordToOb@@UAEPAXI@Z 1011a2f0 f i nafxcwd:map_wo.obj
 0002:000932f0       ??_ECMapWordToOb@@UAEPAXI@Z 1011a2f0 f i nafxcwd:map_wo.obj
 0002:00093330       ?HashKey@CMapWordToOb@@QBEIG@Z 1011a330 f i nafxcwd:map_wo.obj
 0002:00093350       ??0CMapStringToPtr@@QAE@H@Z 1011a350 f   nafxcwd:map_sp.obj
 0002:00093400       ?InitHashTable@CMapStringToPtr@@QAEXIH@Z 1011a400 f   nafxcwd:map_sp.obj
 0002:000934d0       ?RemoveAll@CMapStringToPtr@@QAEXXZ 1011a4d0 f   nafxcwd:map_sp.obj
 0002:000935a0       ??1CMapStringToPtr@@UAE@XZ 1011a5a0 f   nafxcwd:map_sp.obj
 0002:00093610       ?NewAssoc@CMapStringToPtr@@IAEPAUCAssoc@1@XZ 1011a610 f   nafxcwd:map_sp.obj
 0002:00093740       ?FreeAssoc@CMapStringToPtr@@IAEXPAUCAssoc@1@@Z 1011a740 f   nafxcwd:map_sp.obj
 0002:000937b0       ?GetAssocAt@CMapStringToPtr@@IBEPAUCAssoc@1@PBDAAI1@Z 1011a7b0 f   nafxcwd:map_sp.obj
 0002:00093840       ?Lookup@CMapStringToPtr@@QBEHPBDAAPAX@Z 1011a840 f   nafxcwd:map_sp.obj
 0002:000938a0       ?LookupKey@CMapStringToPtr@@QBEHPBDAAPBD@Z 1011a8a0 f   nafxcwd:map_sp.obj
 0002:00093900       ??ACMapStringToPtr@@QAEAAPAXPBD@Z 1011a900 f   nafxcwd:map_sp.obj
 0002:000939b0       ?RemoveKey@CMapStringToPtr@@QAEHPBD@Z 1011a9b0 f   nafxcwd:map_sp.obj
 0002:00093a70       ?GetNextAssoc@CMapStringToPtr@@QBEXAAPAU__POSITION@@AAV?$CStringT@DV?$StrTraitMFC@DV?$ChTraitsCRT@D@ATL@@@@@ATL@@AAPAX@Z 1011aa70 f   nafxcwd:map_sp.obj
 0002:00093be0       ?Dump@CMapStringToPtr@@UBEXAAVCDumpContext@@@Z 1011abe0 f   nafxcwd:map_sp.obj
 0002:00093cd0       ?AssertValid@CMapStringToPtr@@UBEXXZ 1011acd0 f   nafxcwd:map_sp.obj
 0002:00093fa0       ??_ECMapStringToPtr@@UAEPAXI@Z 1011afa0 f i nafxcwd:map_sp.obj
 0002:00093fa0       ??_GCMapStringToPtr@@UAEPAXI@Z 1011afa0 f i nafxcwd:map_sp.obj
 0002:00093fe0       ?HashKey@CMapStringToPtr@@QBEIPBD@Z 1011afe0 f i nafxcwd:map_sp.obj
 0002:00094040       ??0CMapStringToOb@@QAE@H@Z 1011b040 f   nafxcwd:map_so.obj
 0002:000940f0       ?InitHashTable@CMapStringToOb@@QAEXIH@Z 1011b0f0 f   nafxcwd:map_so.obj
 0002:000941c0       ?RemoveAll@CMapStringToOb@@QAEXXZ 1011b1c0 f   nafxcwd:map_so.obj
 0002:00094290       ??1CMapStringToOb@@UAE@XZ  1011b290 f   nafxcwd:map_so.obj
 0002:00094300       ?NewAssoc@CMapStringToOb@@IAEPAUCAssoc@1@XZ 1011b300 f   nafxcwd:map_so.obj
 0002:00094430       ?FreeAssoc@CMapStringToOb@@IAEXPAUCAssoc@1@@Z 1011b430 f   nafxcwd:map_so.obj
 0002:000944a0       ?GetAssocAt@CMapStringToOb@@IBEPAUCAssoc@1@PBDAAI1@Z 1011b4a0 f   nafxcwd:map_so.obj
 0002:00094530       ?Lookup@CMapStringToOb@@QBEHPBDAAPAVCObject@@@Z 1011b530 f   nafxcwd:map_so.obj
 0002:00094590       ?LookupKey@CMapStringToOb@@QBEHPBDAAPBD@Z 1011b590 f   nafxcwd:map_so.obj
 0002:000945f0       ??ACMapStringToOb@@QAEAAPAVCObject@@PBD@Z 1011b5f0 f   nafxcwd:map_so.obj
 0002:000946a0       ?RemoveKey@CMapStringToOb@@QAEHPBD@Z 1011b6a0 f   nafxcwd:map_so.obj
 0002:00094760       ?GetNextAssoc@CMapStringToOb@@QBEXAAPAU__POSITION@@AAV?$CStringT@DV?$StrTraitMFC@DV?$ChTraitsCRT@D@ATL@@@@@ATL@@AAPAVCObject@@@Z 1011b760 f   nafxcwd:map_so.obj
 0002:000948d0       ?Serialize@CMapStringToOb@@UAEXAAVCArchive@@@Z 1011b8d0 f   nafxcwd:map_so.obj
 0002:00094a40       ?Dump@CMapStringToOb@@UBEXAAVCDumpContext@@@Z 1011ba40 f   nafxcwd:map_so.obj
 0002:00094b30       ?AssertValid@CMapStringToOb@@UBEXXZ 1011bb30 f   nafxcwd:map_so.obj
 0002:00094e60       ??_GCMapStringToOb@@UAEPAXI@Z 1011be60 f i nafxcwd:map_so.obj
 0002:00094e60       ??_ECMapStringToOb@@UAEPAXI@Z 1011be60 f i nafxcwd:map_so.obj
 0002:00094ea0       ?HashKey@CMapStringToOb@@QBEIPBD@Z 1011bea0 f i nafxcwd:map_so.obj
 0002:00094f00       ??0CMapStringToString@@QAE@H@Z 1011bf00 f   nafxcwd:map_ss.obj
 0002:00094fb0       ?InitHashTable@CMapStringToString@@QAEXIH@Z 1011bfb0 f   nafxcwd:map_ss.obj
 0002:00095080       ?RemoveAll@CMapStringToString@@QAEXXZ 1011c080 f   nafxcwd:map_ss.obj
 0002:00095140       ??1CMapStringToString@@UAE@XZ 1011c140 f   nafxcwd:map_ss.obj
 0002:000951b0       ?NewAssoc@CMapStringToString@@IAEPAVCAssoc@1@PBD@Z 1011c1b0 f   nafxcwd:map_ss.obj
 0002:00095300       ?FreeAssoc@CMapStringToString@@IAEXPAVCAssoc@1@@Z 1011c300 f   nafxcwd:map_ss.obj
 0002:00095370       ?GetAssocAt@CMapStringToString@@IBEPAVCAssoc@1@PBDAAI1@Z 1011c370 f   nafxcwd:map_ss.obj
 0002:00095400       ?PLookup@CMapStringToString@@QBEPBUCPair@1@PBD@Z 1011c400 f   nafxcwd:map_ss.obj
 0002:00095440       ?PLookup@CMapStringToString@@QAEPAUCPair@1@PBD@Z 1011c440 f   nafxcwd:map_ss.obj
 0002:00095480       ?Lookup@CMapStringToString@@QBEHPBDAAV?$CStringT@DV?$StrTraitMFC@DV?$ChTraitsCRT@D@ATL@@@@@ATL@@@Z 1011c480 f   nafxcwd:map_ss.obj
 0002:000954e0       ?LookupKey@CMapStringToString@@QBEHPBDAAPBD@Z 1011c4e0 f   nafxcwd:map_ss.obj
 0002:00095540       ??ACMapStringToString@@QAEAAV?$CStringT@DV?$StrTraitMFC@DV?$ChTraitsCRT@D@ATL@@@@@ATL@@PBD@Z 1011c540 f   nafxcwd:map_ss.obj
 0002:000955e0       ?RemoveKey@CMapStringToString@@QAEHPBD@Z 1011c5e0 f   nafxcwd:map_ss.obj
 0002:000956a0       ?PGetFirstAssoc@CMapStringToString@@QBEPBUCPair@1@XZ 1011c6a0 f   nafxcwd:map_ss.obj
 0002:00095750       ?PGetFirstAssoc@CMapStringToString@@QAEPAUCPair@1@XZ 1011c750 f   nafxcwd:map_ss.obj
 0002:00095800       ?GetNextAssoc@CMapStringToString@@QBEXAAPAU__POSITION@@AAV?$CStringT@DV?$StrTraitMFC@DV?$ChTraitsCRT@D@ATL@@@@@ATL@@1@Z 1011c800 f   nafxcwd:map_ss.obj
 0002:00095980       ?PGetNextAssoc@CMapStringToString@@QBEPBUCPair@1@PBU21@@Z 1011c980 f   nafxcwd:map_ss.obj
 0002:00095a90       ?PGetNextAssoc@CMapStringToString@@QAEPAUCPair@1@PBU21@@Z 1011ca90 f   nafxcwd:map_ss.obj
 0002:00095ba0       ?Serialize@CMapStringToString@@UAEXAAVCArchive@@@Z 1011cba0 f   nafxcwd:map_ss.obj
 0002:00095d30       ?Dump@CMapStringToString@@UBEXAAVCDumpContext@@@Z 1011cd30 f   nafxcwd:map_ss.obj
 0002:00095e40       ?AssertValid@CMapStringToString@@UBEXXZ 1011ce40 f   nafxcwd:map_ss.obj
 0002:00096280       ??_ECMapStringToString@@UAEPAXI@Z 1011d280 f i nafxcwd:map_ss.obj
 0002:00096280       ??_GCMapStringToString@@UAEPAXI@Z 1011d280 f i nafxcwd:map_ss.obj
 0002:000962c0       ??_GCAssoc@CMapStringToString@@QAEPAXI@Z 1011d2c0 f i nafxcwd:map_ss.obj
 0002:00096300       ??1CAssoc@CMapStringToString@@QAE@XZ 1011d300 f i nafxcwd:map_ss.obj
 0002:00096320       ?HashKey@CMapStringToString@@QBEIPBD@Z 1011d320 f i nafxcwd:map_ss.obj
 0002:000973c0       ??0CWnd@@QAE@XZ            1011e3c0 f   nafxcwd:wincore.obj
 0002:00097460       ??0CWnd@@AAE@PAUHWND__@@@Z 1011e460 f   nafxcwd:wincore.obj
 0002:00097500       ?_AfxModifyStyle@@YGHPAUHWND__@@HKKI@Z 1011e500 f   nafxcwd:wincore.obj
 0002:00097590       ?ModifyStyle@CWnd@@SGHPAUHWND__@@KKI@Z 1011e590 f   nafxcwd:wincore.obj
 0002:000975b0       ?ModifyStyleEx@CWnd@@SGHPAUHWND__@@KKI@Z 1011e5b0 f   nafxcwd:wincore.obj
 0002:000975d0       ?_AfxPreInitDialog@@YGXPAVCWnd@@PAUtagRECT@@PAK@Z 1011e5d0 f   nafxcwd:wincore.obj
 0002:00097630       ?_AfxPostInitDialog@@YGXPAVCWnd@@ABUtagRECT@@K@Z 1011e630 f   nafxcwd:wincore.obj
 0002:000976d0       ?_AfxHandleActivate@@YGXPAVCWnd@@I0@Z 1011e6d0 f   nafxcwd:wincore.obj
 0002:00097750       ?_AfxHandleSetCursor@@YGHPAVCWnd@@II@Z 1011e750 f   nafxcwd:wincore.obj
 0002:000977d0       ?AfxCallWndProc@@YGJPAVCWnd@@PAUHWND__@@IIJ@Z 1011e7d0 f   nafxcwd:wincore.obj
 0002:00097980       ?GetCurrentMessage@CWnd@@KGPBUtagMSG@@XZ 1011e980 f   nafxcwd:wincore.obj
 0002:000979d0       ?Default@CWnd@@IAEJXZ      1011e9d0 f   nafxcwd:wincore.obj
 0002:00097a10       ?afxMapHWND@@YGPAVCHandleMap@@H@Z 1011ea10 f   nafxcwd:wincore.obj
 0002:00097af0       ?FromHandle@CWnd@@SGPAV1@PAUHWND__@@@Z 1011eaf0 f   nafxcwd:wincore.obj
 0002:00097b70       ?FromHandlePermanent@CWnd@@SGPAV1@PAUHWND__@@@Z 1011eb70 f   nafxcwd:wincore.obj
 0002:00097bd0       ?Attach@CWnd@@QAEHPAUHWND__@@@Z 1011ebd0 f   nafxcwd:wincore.obj
 0002:00097c80       ?Detach@CWnd@@QAEPAUHWND__@@XZ 1011ec80 f   nafxcwd:wincore.obj
 0002:00097ce0       ?PreSubclassWindow@CWnd@@UAEXXZ 1011ece0 f   nafxcwd:wincore.obj
 0002:00097cf0       ?AfxWndProc@@YGJPAUHWND__@@IIJ@Z 1011ecf0 f   nafxcwd:wincore.obj
 0002:00097da0       ?AfxGetAfxWndProc@@YGP6GJPAUHWND__@@IIJ@ZXZ 1011eda0 f   nafxcwd:wincore.obj
 0002:00097db0       ?_AfxActivationWndProc@@YGJPAUHWND__@@IIJ@Z 1011edb0 f   nafxcwd:wincore.obj
 0002:00098030       ?_AfxCbtFilterHook@@YGJHIJ@Z 1011f030 f   nafxcwd:wincore.obj
 0002:000983e0       ?AfxHookWindowCreate@@YGXPAVCWnd@@@Z 1011f3e0 f   nafxcwd:wincore.obj
 0002:000984c0       ?AfxUnhookWindowCreate@@YGHXZ 1011f4c0 f   nafxcwd:wincore.obj
 0002:00098520       ?CreateEx@CWnd@@UAEHKPBD0KABUtagRECT@@PAV1@IPAX@Z 1011f520 f   nafxcwd:wincore.obj
 0002:00098580       ?CreateEx@CWnd@@UAEHKPBD0KHHHHPAUHWND__@@PAUHMENU__@@PAX@Z 1011f580 f   nafxcwd:wincore.obj
 0002:000986d0       ?PreCreateWindow@CWnd@@UAEHAAUtagCREATESTRUCTA@@@Z 1011f6d0 f   nafxcwd:wincore.obj
 0002:00098740       ?Create@CWnd@@UAEHPBD0KABUtagRECT@@PAV1@IPAUCCreateContext@@@Z 1011f740 f   nafxcwd:wincore.obj
 0002:000987e0       ??1CWnd@@UAE@XZ            1011f7e0 f   nafxcwd:wincore.obj
 0002:000988e0       ?OnDestroy@CWnd@@IAEXXZ    1011f8e0 f   nafxcwd:wincore.obj
 0002:00098970       ?OnNcDestroy@CWnd@@IAEXXZ  1011f970 f   nafxcwd:wincore.obj
 0002:00098b30       ?PostNcDestroy@CWnd@@MAEXXZ 1011fb30 f   nafxcwd:wincore.obj
 0002:00098b40       ?OnFinalRelease@CWnd@@UAEXXZ 1011fb40 f   nafxcwd:wincore.obj
 0002:00098b70       ?AssertValid@CWnd@@UBEXXZ  1011fb70 f   nafxcwd:wincore.obj
 0002:00098cc0       ?Dump@CWnd@@UBEXAAVCDumpContext@@@Z 1011fcc0 f   nafxcwd:wincore.obj
 0002:00098ee0       ?DestroyWindow@CWnd@@UAEHXZ 1011fee0 f   nafxcwd:wincore.obj
 0002:00099010       ?DefWindowProcA@CWnd@@MAEJIIJ@Z 10120010 f   nafxcwd:wincore.obj
 0002:000990a0       ?GetSuperWndProcAddr@CWnd@@MAEPAP6GJPAUHWND__@@IIJ@ZXZ 101200a0 f   nafxcwd:wincore.obj
 0002:000990c0       ?PreTranslateMessage@CWnd@@UAEHPAUtagMSG@@@Z 101200c0 f   nafxcwd:wincore.obj
 0002:00099100       ?CancelToolTips@CWnd@@SGXH@Z 10120100 f   nafxcwd:wincore.obj
 0002:00099170       ?OnToolHitTest@CWnd@@UBEHVCPoint@@PAUtagTOOLINFOA@@@Z 10120170 f   nafxcwd:wincore.obj
 0002:00099230       ?GetWindowTextA@CWnd@@QBEXAAV?$CStringT@DV?$StrTraitMFC@DV?$ChTraitsCRT@D@ATL@@@@@ATL@@@Z 10120230 f   nafxcwd:wincore.obj
 0002:000992d0       ?GetDlgItemTextA@CWnd@@QBEHHAAV?$CStringT@DV?$StrTraitMFC@DV?$ChTraitsCRT@D@ATL@@@@@ATL@@@Z 101202d0 f   nafxcwd:wincore.obj
 0002:000993a0       ?GetWindowPlacement@CWnd@@QBEHPAUtagWINDOWPLACEMENT@@@Z 101203a0 f   nafxcwd:wincore.obj
 0002:000993f0       ?SetWindowPlacement@CWnd@@QAEHPBUtagWINDOWPLACEMENT@@@Z 101203f0 f   nafxcwd:wincore.obj
 0002:00099440       ?OnDrawItem@CWnd@@IAEXHPAUtagDRAWITEMSTRUCT@@@Z 10120440 f   nafxcwd:wincore.obj
 0002:000994a0       ?OnCompareItem@CWnd@@IAEHHPAUtagCOMPAREITEMSTRUCT@@@Z 101204a0 f   nafxcwd:wincore.obj
 0002:000994d0       ?OnDeleteItem@CWnd@@IAEXHPAUtagDELETEITEMSTRUCT@@@Z 101204d0 f   nafxcwd:wincore.obj
 0002:00099500       ?OnCharToItem@CWnd@@IAEHIPAVCListBox@@I@Z 10120500 f   nafxcwd:wincore.obj
 0002:00099540       ?OnVKeyToItem@CWnd@@IAEHIPAVCListBox@@I@Z 10120540 f   nafxcwd:wincore.obj
 0002:00099580       ?TrackPopupMenu@CMenu@@QAEHIHHPAVCWnd@@PBUtagRECT@@@Z 10120580 f   nafxcwd:wincore.obj
 0002:00099620       ?TrackPopupMenuEx@CMenu@@QAEHIHHPAVCWnd@@PAUtagTPMPARAMS@@@Z 10120620 f   nafxcwd:wincore.obj
 0002:000996c0       ?_AfxFindPopupMenuFromID@@YGPAVCMenu@@PAV1@I@Z 101206c0 f   nafxcwd:wincore.obj
 0002:00099760       ?OnMeasureItem@CWnd@@IAEXHPAUtagMEASUREITEMSTRUCT@@@Z 10120760 f   nafxcwd:wincore.obj
 0002:00099870       ?AfxRegisterClass@@YGHPAUtagWNDCLASSA@@@Z 10120870 f   nafxcwd:wincore.obj
 0002:00099a70       ?AfxRegisterWndClass@@YGPBDIPAUHICON__@@PAUHBRUSH__@@0@Z 10120a70 f   nafxcwd:wincore.obj
 0002:00099b70       ?OnNTCtlColor@CWnd@@IAEJIJ@Z 10120b70 f   nafxcwd:wincore.obj
 0002:00099be0       ?WinHelpA@CWnd@@UAEXKI@Z   10120be0 f   nafxcwd:wincore.obj
 0002:00099d00       ?HtmlHelpA@CWnd@@UAEXKI@Z  10120d00 f   nafxcwd:wincore.obj
 0002:00099e20       ?PrepareForHelp@CWnd@@QAEXXZ 10120e20 f   nafxcwd:wincore.obj
 0002:00099ec0       ??1_AFX_HTMLHELP_STATE@@UAE@XZ 10120ec0 f   nafxcwd:wincore.obj
 0002:00099f00       ?AfxHtmlHelp@@YGPAUHWND__@@PAU1@PBDIK@Z 10120f00 f   nafxcwd:wincore.obj
 0002:00099fc0       ?WinHelpInternal@CWnd@@UAEXKI@Z 10120fc0 f   nafxcwd:wincore.obj
 0002:0009a070       ?GetMessageMap@CWnd@@MBEPBUAFX_MSGMAP@@XZ 10121070 f   nafxcwd:wincore.obj
 0002:0009a080       ?AfxFindMessageEntry@@YGPBUAFX_MSGMAP_ENTRY@@PBU1@III@Z 10121080 f   nafxcwd:wincore.obj
 0002:0009a0c0       ?AfxResetMsgCache@@YGXXZ   101210c0 f   nafxcwd:wincore.obj
 0002:0009a0e0       ?WindowProc@CWnd@@MAEJIIJ@Z 101210e0 f   nafxcwd:wincore.obj
 0002:0009a140       ?OnWndMsg@CWnd@@MAEHIIJPAJ@Z 10121140 f   nafxcwd:wincore.obj
 0002:0009aed0       ??0CTestCmdUI@@QAE@XZ      10121ed0 f   nafxcwd:wincore.obj
 0002:0009af00       ?Enable@CTestCmdUI@@UAEXH@Z 10121f00 f   nafxcwd:wincore.obj
 0002:0009af20       ?SetCheck@CTestCmdUI@@UAEXH@Z 10121f20 f   nafxcwd:wincore.obj
 0002:0009af30       ?SetRadio@CTestCmdUI@@UAEXH@Z 10121f30 f   nafxcwd:wincore.obj
 0002:0009af40       ?SetText@CTestCmdUI@@UAEXPBD@Z 10121f40 f   nafxcwd:wincore.obj
 0002:0009af50       ?OnCommand@CWnd@@MAEHIJ@Z  10121f50 f   nafxcwd:wincore.obj
 0002:0009b0c0       ?OnNotify@CWnd@@MAEHIJPAJ@Z 101220c0 f   nafxcwd:wincore.obj
 0002:0009b1c0       ?GetParentFrame@CWnd@@QBEPAVCFrameWnd@@XZ 101221c0 f   nafxcwd:wincore.obj
 0002:0009b230       ?AfxGetParentOwner@@YGPAUHWND__@@PAU1@@Z 10122230 f   nafxcwd:wincore.obj
 0002:0009b2a0       ?GetTopLevelParent@CWnd@@QBEPAV1@XZ 101222a0 f   nafxcwd:wincore.obj
 0002:0009b300       ?GetTopLevelOwner@CWnd@@QBEPAV1@XZ 10122300 f   nafxcwd:wincore.obj
 0002:0009b360       ?GetParentOwner@CWnd@@QBEPAV1@XZ 10122360 f   nafxcwd:wincore.obj
 0002:0009b3d0       ?IsTopParentActive@CWnd@@QBEHXZ 101223d0 f   nafxcwd:wincore.obj
 0002:0009b430       ?ActivateTopParent@CWnd@@QAEXXZ 10122430 f   nafxcwd:wincore.obj
 0002:0009b490       ?GetTopLevelFrame@CWnd@@QBEPAVCFrameWnd@@XZ 10122490 f   nafxcwd:wincore.obj
 0002:0009b510       ?GetSafeOwner@CWnd@@SGPAV1@PAV1@PAPAUHWND__@@@Z 10122510 f   nafxcwd:wincore.obj
 0002:0009b540       ?MessageBoxA@CWnd@@QAEHPBD0I@Z 10122540 f   nafxcwd:wincore.obj
 0002:0009b580       ?GetDescendantWindow@CWnd@@SGPAV1@PAUHWND__@@HH@Z 10122580 f   nafxcwd:wincore.obj
 0002:0009b650       ?SendMessageToDescendants@CWnd@@SGXPAUHWND__@@IIJHH@Z 10122650 f   nafxcwd:wincore.obj
 0002:0009b710       ?GetScrollBarCtrl@CWnd@@UBEPAVCScrollBar@@H@Z 10122710 f   nafxcwd:wincore.obj
 0002:0009b720       ?SetScrollPos@CWnd@@QAEHHHH@Z 10122720 f   nafxcwd:wincore.obj
 0002:0009b780       ?GetScrollPos@CWnd@@QBEHH@Z 10122780 f   nafxcwd:wincore.obj
 0002:0009b7d0       ?SetScrollRange@CWnd@@QAEXHHHH@Z 101227d0 f   nafxcwd:wincore.obj
 0002:0009b830       ?GetScrollRange@CWnd@@QBEXHPAH0@Z 10122830 f   nafxcwd:wincore.obj
 0002:0009b890       ?EnableScrollBarCtrl@CWnd@@QAEXHH@Z 10122890 f   nafxcwd:wincore.obj
 0002:0009b900       ?SetScrollInfo@CWnd@@QAEHHPAUtagSCROLLINFO@@H@Z 10122900 f   nafxcwd:wincore.obj
 0002:0009b990       ?GetScrollInfo@CWnd@@QAEHHPAUtagSCROLLINFO@@I@Z 10122990 f   nafxcwd:wincore.obj
 0002:0009ba20       ?GetScrollLimit@CWnd@@QAEHH@Z 10122a20 f   nafxcwd:wincore.obj
 0002:0009ba80       ?ScrollWindow@CWnd@@QAEXHHPBUtagRECT@@0@Z 10122a80 f   nafxcwd:wincore.obj
 0002:0009bb90       ?RepositionBars@CWnd@@QAEXIIIIPAUtagRECT@@PBU2@H@Z 10122b90 f   nafxcwd:wincore.obj
 0002:0009be10       ?AfxRepositionWindow@@YGXPAUAFX_SIZEPARENTPARAMS@@PAUHWND__@@PBUtagRECT@@@Z 10122e10 f   nafxcwd:wincore.obj
 0002:0009bf60       ?CalcWindowRect@CWnd@@UAEXPAUtagRECT@@I@Z 10122f60 f   nafxcwd:wincore.obj
 0002:0009bfb0       ?HandleFloatingSysCommand@CWnd@@QAEHIJ@Z 10122fb0 f   nafxcwd:wincore.obj
 0002:0009c180       ?WalkPreTranslateTree@CWnd@@SGHPAUHWND__@@PAUtagMSG@@@Z 10123180 f   nafxcwd:wincore.obj
 0002:0009c230       ?SendChildNotifyLastMsg@CWnd@@QAEHPAJ@Z 10123230 f   nafxcwd:wincore.obj
 0002:0009c280       ?ReflectLastMsg@CWnd@@KGHPAUHWND__@@PAJ@Z 10123280 f   nafxcwd:wincore.obj
 0002:0009c3c0       ?OnChildNotify@CWnd@@MAEHIIJPAJ@Z 101233c0 f   nafxcwd:wincore.obj
 0002:0009c440       ?ReflectChildNotify@CWnd@@IAEHIIJPAJ@Z 10123440 f   nafxcwd:wincore.obj
 0002:0009c600       ?OnParentNotify@CWnd@@IAEXIJ@Z 10123600 f   nafxcwd:wincore.obj
 0002:0009c650       ?OnSetFocus@CWnd@@IAEXPAV1@@Z 10123650 f   nafxcwd:wincore.obj
 0002:0009c6a0       ?OnActivateTopLevel@CWnd@@IAEJIJ@Z 101236a0 f   nafxcwd:wincore.obj
 0002:0009c6e0       ?OnSysColorChange@CWnd@@IAEXXZ 101236e0 f   nafxcwd:wincore.obj
 0002:0009c740       ?OnSettingChange@CWnd@@IAEXIPBD@Z 10123740 f   nafxcwd:wincore.obj
 0002:0009c790       ?OnDevModeChange@CWnd@@IAEXPAD@Z 10123790 f   nafxcwd:wincore.obj
 0002:0009c800       ?OnHelpInfo@CWnd@@IAEHPAUtagHELPINFO@@@Z 10123800 f   nafxcwd:wincore.obj
 0002:0009c890       ?OnDisplayChange@CWnd@@IAEJIJ@Z 10123890 f   nafxcwd:wincore.obj
 0002:0009c900       ?OnDragList@CWnd@@IAEJIJ@Z 10123900 f   nafxcwd:wincore.obj
 0002:0009c950       ?OnGetObject@CWnd@@IAEJIJ@Z 10123950 f   nafxcwd:wincore.obj
 0002:0009c9b0       ?GetInterfaceMap@CWnd@@MBEPBUAFX_INTERFACEMAP@@XZ 101239b0 f   nafxcwd:wincore.obj
 0002:0009c9c0       ?AddRef@XAccessible@CWnd@@UAGKXZ 101239c0 f   nafxcwd:wincore.obj
 0002:0009c9e0       ?Release@XAccessible@CWnd@@UAGKXZ 101239e0 f   nafxcwd:wincore.obj
 0002:0009ca00       ?QueryInterface@XAccessible@CWnd@@UAGJABU_GUID@@PAPAX@Z 10123a00 f   nafxcwd:wincore.obj
 0002:0009ca30       ?Invoke@XAccessible@CWnd@@UAGJJABU_GUID@@KGPAUtagDISPPARAMS@@PAUtagVARIANT@@PAUtagEXCEPINFO@@PAI@Z 10123a30 f   nafxcwd:wincore.obj
 0002:0009ca70       ?GetIDsOfNames@XAccessible@CWnd@@UAGJABU_GUID@@PAPA_WIKPAJ@Z 10123a70 f   nafxcwd:wincore.obj
 0002:0009ca90       ?GetTypeInfoCount@XAccessible@CWnd@@UAGJPAI@Z 10123a90 f   nafxcwd:wincore.obj
 0002:0009cab0       ?GetTypeInfo@XAccessible@CWnd@@UAGJIKPAPAUITypeInfo@@@Z 10123ab0 f   nafxcwd:wincore.obj
 0002:0009cac0       ?get_accParent@XAccessible@CWnd@@UAGJPAPAUIDispatch@@@Z 10123ac0 f   nafxcwd:wincore.obj
 0002:0009caf0       ?get_accChildCount@XAccessible@CWnd@@UAGJPAJ@Z 10123af0 f   nafxcwd:wincore.obj
 0002:0009cb20       ?get_accChild@XAccessible@CWnd@@UAGJUtagVARIANT@@PAPAUIDispatch@@@Z 10123b20 f   nafxcwd:wincore.obj
 0002:0009cb70       ?get_accName@XAccessible@CWnd@@UAGJUtagVARIANT@@PAPA_W@Z 10123b70 f   nafxcwd:wincore.obj
 0002:0009cbc0       ?get_accValue@XAccessible@CWnd@@UAGJUtagVARIANT@@PAPA_W@Z 10123bc0 f   nafxcwd:wincore.obj
 0002:0009cc10       ?get_accDescription@XAccessible@CWnd@@UAGJUtagVARIANT@@PAPA_W@Z 10123c10 f   nafxcwd:wincore.obj
 0002:0009cc60       ?get_accRole@XAccessible@CWnd@@UAGJUtagVARIANT@@PAU3@@Z 10123c60 f   nafxcwd:wincore.obj
 0002:0009ccb0       ?get_accState@XAccessible@CWnd@@UAGJUtagVARIANT@@PAU3@@Z 10123cb0 f   nafxcwd:wincore.obj
 0002:0009cd00       ?get_accHelp@XAccessible@CWnd@@UAGJUtagVARIANT@@PAPA_W@Z 10123d00 f   nafxcwd:wincore.obj
 0002:0009cd50       ?get_accHelpTopic@XAccessible@CWnd@@UAGJPAPA_WUtagVARIANT@@PAJ@Z 10123d50 f   nafxcwd:wincore.obj
 0002:0009cda0       ?get_accKeyboardShortcut@XAccessible@CWnd@@UAGJUtagVARIANT@@PAPA_W@Z 10123da0 f   nafxcwd:wincore.obj
 0002:0009cdf0       ?get_accFocus@XAccessible@CWnd@@UAGJPAUtagVARIANT@@@Z 10123df0 f   nafxcwd:wincore.obj
 0002:0009ce20       ?get_accSelection@XAccessible@CWnd@@UAGJPAUtagVARIANT@@@Z 10123e20 f   nafxcwd:wincore.obj
 0002:0009ce50       ?get_accDefaultAction@XAccessible@CWnd@@UAGJUtagVARIANT@@PAPA_W@Z 10123e50 f   nafxcwd:wincore.obj
 0002:0009cea0       ?accSelect@XAccessible@CWnd@@UAGJJUtagVARIANT@@@Z 10123ea0 f   nafxcwd:wincore.obj
 0002:0009cef0       ?accLocation@XAccessible@CWnd@@UAGJPAJ000UtagVARIANT@@@Z 10123ef0 f   nafxcwd:wincore.obj
 0002:0009cf40       ?accNavigate@XAccessible@CWnd@@UAGJJUtagVARIANT@@PAU3@@Z 10123f40 f   nafxcwd:wincore.obj
 0002:0009cf90       ?accHitTest@XAccessible@CWnd@@UAGJJJPAUtagVARIANT@@@Z 10123f90 f   nafxcwd:wincore.obj
 0002:0009cfc0       ?accDoDefaultAction@XAccessible@CWnd@@UAGJUtagVARIANT@@@Z 10123fc0 f   nafxcwd:wincore.obj
 0002:0009d000       ?put_accName@XAccessible@CWnd@@UAGJUtagVARIANT@@PA_W@Z 10124000 f   nafxcwd:wincore.obj
 0002:0009d050       ?put_accValue@XAccessible@CWnd@@UAGJUtagVARIANT@@PA_W@Z 10124050 f   nafxcwd:wincore.obj
 0002:0009d0a0       ?AddRef@XAccessibleServer@CWnd@@UAGKXZ 101240a0 f   nafxcwd:wincore.obj
 0002:0009d0c0       ?Release@XAccessibleServer@CWnd@@UAGKXZ 101240c0 f   nafxcwd:wincore.obj
 0002:0009d0e0       ?QueryInterface@XAccessibleServer@CWnd@@UAGJABU_GUID@@PAPAX@Z 101240e0 f   nafxcwd:wincore.obj
 0002:0009d110       ?SetProxy@XAccessibleServer@CWnd@@UAGJPAUIAccessibleProxy@@@Z 10124110 f   nafxcwd:wincore.obj
 0002:0009d140       ?GetHWND@XAccessibleServer@CWnd@@UAGJPAPAUHWND__@@@Z 10124140 f   nafxcwd:wincore.obj
 0002:0009d170       ?GetEnumVariant@XAccessibleServer@CWnd@@UAGJPAPAUIEnumVARIANT@@@Z 10124170 f   nafxcwd:wincore.obj
 0002:0009d1a0       ?EnsureStdObj@CWnd@@UAEJXZ 101241a0 f   nafxcwd:wincore.obj
 0002:0009d1e0       ?get_accParent@CWnd@@UAEJPAPAUIDispatch@@@Z 101241e0 f   nafxcwd:wincore.obj
 0002:0009d220       ?get_accChildCount@CWnd@@UAEJPAJ@Z 10124220 f   nafxcwd:wincore.obj
 0002:0009d260       ?get_accChild@CWnd@@UAEJUtagVARIANT@@PAPAUIDispatch@@@Z 10124260 f   nafxcwd:wincore.obj
 0002:0009d2c0       ?get_accName@CWnd@@UAEJUtagVARIANT@@PAPA_W@Z 101242c0 f   nafxcwd:wincore.obj
 0002:0009d320       ?get_accValue@CWnd@@UAEJUtagVARIANT@@PAPA_W@Z 10124320 f   nafxcwd:wincore.obj
 0002:0009d360       ?get_accDescription@CWnd@@UAEJUtagVARIANT@@PAPA_W@Z 10124360 f   nafxcwd:wincore.obj
 0002:0009d3a0       ?get_accRole@CWnd@@UAEJUtagVARIANT@@PAU2@@Z 101243a0 f   nafxcwd:wincore.obj
 0002:0009d400       ?get_accState@CWnd@@UAEJUtagVARIANT@@PAU2@@Z 10124400 f   nafxcwd:wincore.obj
 0002:0009d460       ?get_accHelp@CWnd@@UAEJUtagVARIANT@@PAPA_W@Z 10124460 f   nafxcwd:wincore.obj
 0002:0009d4c0       ?get_accHelpTopic@CWnd@@UAEJPAPA_WUtagVARIANT@@PAJ@Z 101244c0 f   nafxcwd:wincore.obj
 0002:0009d520       ?get_accKeyboardShortcut@CWnd@@UAEJUtagVARIANT@@PAPA_W@Z 10124520 f   nafxcwd:wincore.obj
 0002:0009d580       ?get_accFocus@CWnd@@UAEJPAUtagVARIANT@@@Z 10124580 f   nafxcwd:wincore.obj
 0002:0009d5c0       ?get_accSelection@CWnd@@UAEJPAUtagVARIANT@@@Z 101245c0 f   nafxcwd:wincore.obj
 0002:0009d600       ?get_accDefaultAction@CWnd@@UAEJUtagVARIANT@@PAPA_W@Z 10124600 f   nafxcwd:wincore.obj
 0002:0009d660       ?accSelect@CWnd@@UAEJJUtagVARIANT@@@Z 10124660 f   nafxcwd:wincore.obj
 0002:0009d6c0       ?accLocation@CWnd@@UAEJPAJ000UtagVARIANT@@@Z 101246c0 f   nafxcwd:wincore.obj
 0002:0009d730       ?accNavigate@CWnd@@UAEJJUtagVARIANT@@PAU2@@Z 10124730 f   nafxcwd:wincore.obj
 0002:0009d790       ?accHitTest@CWnd@@UAEJJJPAUtagVARIANT@@@Z 10124790 f   nafxcwd:wincore.obj
 0002:0009d7e0       ?accDoDefaultAction@CWnd@@UAEJUtagVARIANT@@@Z 101247e0 f   nafxcwd:wincore.obj
 0002:0009d840       ?put_accName@CWnd@@UAEJUtagVARIANT@@PA_W@Z 10124840 f   nafxcwd:wincore.obj
 0002:0009d8a0       ?put_accValue@CWnd@@UAEJUtagVARIANT@@PA_W@Z 101248a0 f   nafxcwd:wincore.obj
 0002:0009d900       ?SetProxy@CWnd@@UAEJPAUIAccessibleProxy@@@Z 10124900 f   nafxcwd:wincore.obj
 0002:0009d920       ?CreateAccessibleProxy@CWnd@@UAEJIJPAJ@Z 10124920 f   nafxcwd:wincore.obj
 0002:0009da70       ?GetWindowLessChildCount@CWnd@@QAEJXZ 10124a70 f   nafxcwd:wincore.obj
 0002:0009db00       ?GetWindowedChildCount@CWnd@@QAEJXZ 10124b00 f   nafxcwd:wincore.obj
 0002:0009db50       ?GetAccessibleChildCount@CWnd@@QAEJXZ 10124b50 f   nafxcwd:wincore.obj
 0002:0009db80       ?GetAccessibleChild@CWnd@@QAEJUtagVARIANT@@PAPAUIDispatch@@@Z 10124b80 f   nafxcwd:wincore.obj
 0002:0009dc20       ?GetAccessibleName@CWnd@@QAEJUtagVARIANT@@PAPA_W@Z 10124c20 f   nafxcwd:wincore.obj
 0002:0009dd90       ?GetAccessibilityLocation@CWnd@@QAEJUtagVARIANT@@PAJ111@Z 10124d90 f   nafxcwd:wincore.obj
 0002:0009dee0       ?GetAccessibilityHitTest@CWnd@@QAEJJJPAUtagVARIANT@@@Z 10124ee0 f   nafxcwd:wincore.obj
 0002:0009dff0       ?OnHScroll@CWnd@@IAEXIIPAVCScrollBar@@@Z 10124ff0 f   nafxcwd:wincore.obj
 0002:0009e020       ?OnVScroll@CWnd@@IAEXIIPAVCScrollBar@@@Z 10125020 f   nafxcwd:wincore.obj
 0002:0009e050       ?OnPaint@CWnd@@IAEXXZ      10125050 f   nafxcwd:wincore.obj
 0002:0009e0e0       ?OnEnterIdle@CWnd@@IAEXIPAV1@@Z 101250e0 f   nafxcwd:wincore.obj
 0002:0009e120       ?OnCtlColor@CWnd@@IAEPAUHBRUSH__@@PAVCDC@@PAV1@I@Z 10125120 f   nafxcwd:wincore.obj
 0002:0009e170       ?GrayCtlColor@CWnd@@SGHPAUHDC__@@PAUHWND__@@IPAUHBRUSH__@@K@Z 10125170 f   nafxcwd:wincore.obj
 0002:0009e250       ?UpdateData@CWnd@@QAEHH@Z  10125250 f   nafxcwd:wincore.obj
 0002:0009e3f0       ??0CDataExchange@@QAE@PAVCWnd@@H@Z 101253f0 f   nafxcwd:wincore.obj
 0002:0009e430       ?CenterWindow@CWnd@@QAEXPAV1@@Z 10125430 f   nafxcwd:wincore.obj
 0002:0009e700       ?CheckAutoCenter@CWnd@@UAEHXZ 10125700 f   nafxcwd:wincore.obj
 0002:0009e710       ?ExecuteDlgInit@CWnd@@QAEHPBD@Z 10125710 f   nafxcwd:wincore.obj
 0002:0009e7d0       ?ExecuteDlgInit@CWnd@@QAEHPAX@Z 101257d0 f   nafxcwd:wincore.obj
 0002:0009ea20       ?UpdateDialogControls@CWnd@@QAEXPAVCCmdTarget@@H@Z 10125a20 f   nafxcwd:wincore.obj
 0002:0009ebe0       ?PreTranslateInput@CWnd@@QAEHPAUtagMSG@@@Z 10125be0 f   nafxcwd:wincore.obj
 0002:0009ec60       ?RunModalLoop@CWnd@@QAEHK@Z 10125c60 f   nafxcwd:wincore.obj
 0002:0009eef0       ?ContinueModal@CWnd@@UAEHXZ 10125ef0 f   nafxcwd:wincore.obj
 0002:0009ef10       ?EndModalLoop@CWnd@@UAEXH@Z 10125f10 f   nafxcwd:wincore.obj
 0002:0009ef80       ?SetOccDialogInfo@CWnd@@MAEHPAU_AFX_OCC_DIALOG_INFO@@@Z 10125f80 f   nafxcwd:wincore.obj
 0002:0009efb0       ?_AfxRegisterWithIcon@@YGHPAUtagWNDCLASSA@@PBDI@Z 10125fb0 f   nafxcwd:wincore.obj
 0002:0009f010       ?_AfxInitCommonControls@@YGJPAUtagINITCOMMONCONTROLSEX@@J@Z 10126010 f   nafxcwd:wincore.obj
 0002:0009f0e0       ?AfxEndDeferRegisterClass@@YGHJ@Z 101260e0 f   nafxcwd:wincore.obj
 0002:0009f4a0       ?IsFrameWnd@CWnd@@UBEHXZ   101264a0 f   nafxcwd:wincore.obj
 0002:0009f4b0       ?IsFrameWnd@CFrameWnd@@UBEHXZ 101264b0 f   nafxcwd:wincore.obj
 0002:0009f4c0       ?IsTracking@CFrameWnd@@QBEHXZ 101264c0 f   nafxcwd:wincore.obj
 0002:0009f510       ?SubclassWindow@CWnd@@QAEHPAUHWND__@@@Z 10126510 f   nafxcwd:wincore.obj
 0002:0009f680       ?SubclassDlgItem@CWnd@@QAEHIPAV1@@Z 10126680 f   nafxcwd:wincore.obj
 0002:0009f7a0       ?UnsubclassWindow@CWnd@@QAEPAUHWND__@@XZ 101267a0 f   nafxcwd:wincore.obj
 0002:0009f810       ?CreateControlContainer@CWnd@@MAEHPAPAVCOleControlContainer@@@Z 10126810 f   nafxcwd:wincore.obj
 0002:0009f850       ?CreateControlSite@CWnd@@MAEHPAVCOleControlContainer@@PAPAVCOleControlSite@@IABU_GUID@@@Z 10126850 f   nafxcwd:wincore.obj
 0002:0009f890       ?GetControlContainer@CWnd@@QAEPAVCOleControlContainer@@XZ 10126890 f   nafxcwd:wincore.obj
 0002:000a19e0       ??_GCWnd@@UAEPAXI@Z        101289e0 f i nafxcwd:wincore.obj
 0002:000a19e0       ??_ECWnd@@UAEPAXI@Z        101289e0 f i nafxcwd:wincore.obj
 0002:000a1a20       ??0XAccessible@CWnd@@QAE@XZ 10128a20 f i nafxcwd:wincore.obj
 0002:000a1a40       ??0XAccessibleServer@CWnd@@QAE@XZ 10128a40 f i nafxcwd:wincore.obj
 0002:000a1a60       ??_E_AFX_HTMLHELP_STATE@@UAEPAXI@Z 10128a60 f i nafxcwd:wincore.obj
 0002:000a1a60       ??_G_AFX_HTMLHELP_STATE@@UAEPAXI@Z 10128a60 f i nafxcwd:wincore.obj
 0002:000a1aa0       ??1?$CComPtr@UIAccessibleProxy@@@ATL@@QAE@XZ 10128aa0 f i nafxcwd:wincore.obj
 0002:000a1be0       ??1?$CProcessLocal@V_AFX_HTMLHELP_STATE@@@@QAE@XZ 10128be0 f i nafxcwd:wincore.obj
 0002:000a1c80       ?OnAmbientProperty@CWnd@@UAEHPAVCOleControlSite@@JPAUtagVARIANT@@@Z 10128c80 f   nafxcwd:winocc.obj
 0002:000a1cd0       ?GetControlUnknown@CWnd@@QAEPAUIUnknown@@XZ 10128cd0 f   nafxcwd:winocc.obj
 0002:000a1d00       ?PaintWindowlessControls@CWnd@@QAEHPAVCDC@@@Z 10128d00 f   nafxcwd:winocc.obj
 0002:000a1d40       ?GetOleControlSite@CWnd@@QBEPAVCOleControlSite@@I@Z 10128d40 f   nafxcwd:winocc.obj
 0002:000a1d70       ?CheckDlgButton@CWnd@@QAEXHI@Z 10128d70 f   nafxcwd:winocc.obj
 0002:000a1de0       ?CheckRadioButton@CWnd@@QAEXHHH@Z 10128de0 f   nafxcwd:winocc.obj
 0002:000a1e60       ?GetDlgItem@CWnd@@QBEPAV1@H@Z 10128e60 f   nafxcwd:winocc.obj
 0002:000a1ed0       ?GetDlgItem@CWnd@@QBEXHPAPAUHWND__@@@Z 10128ed0 f   nafxcwd:winocc.obj
 0002:000a1f50       ?GetDlgItemInt@CWnd@@QBEIHPAHH@Z 10128f50 f   nafxcwd:winocc.obj
 0002:000a1fd0       ?GetDlgItemTextA@CWnd@@QBEHHPADH@Z 10128fd0 f   nafxcwd:winocc.obj
 0002:000a2050       ?SendDlgItemMessageA@CWnd@@QAEJHIIJ@Z 10129050 f   nafxcwd:winocc.obj
 0002:000a20d0       ?SetDlgItemInt@CWnd@@QAEXHIH@Z 101290d0 f   nafxcwd:winocc.obj
 0002:000a2150       ?SetDlgItemTextA@CWnd@@QAEXHPBD@Z 10129150 f   nafxcwd:winocc.obj
 0002:000a21c0       ?IsDlgButtonChecked@CWnd@@QBEIH@Z 101291c0 f   nafxcwd:winocc.obj
 0002:000a2230       ?ScrollWindowEx@CWnd@@QAEHHHPBUtagRECT@@0PAVCRgn@@PAU2@I@Z 10129230 f   nafxcwd:winocc.obj
 0002:000a22d0       ?IsDialogMessageA@CWnd@@QAEHPAUtagMSG@@@Z 101292d0 f   nafxcwd:winocc.obj
 0002:000a2350       ?GetStyle@CWnd@@QBEKXZ     10129350 f   nafxcwd:winocc.obj
 0002:000a23c0       ?GetExStyle@CWnd@@QBEKXZ   101293c0 f   nafxcwd:winocc.obj
 0002:000a2430       ?ModifyStyle@CWnd@@QAEHKKI@Z 10129430 f   nafxcwd:winocc.obj
 0002:000a24b0       ?ModifyStyleEx@CWnd@@QAEHKKI@Z 101294b0 f   nafxcwd:winocc.obj
 0002:000a2530       ?SetWindowTextA@CWnd@@QAEXPBD@Z 10129530 f   nafxcwd:winocc.obj
 0002:000a25b0       ?GetWindowTextA@CWnd@@QBEHPADH@Z 101295b0 f   nafxcwd:winocc.obj
 0002:000a2690       ?GetWindowTextLengthA@CWnd@@QBEHXZ 10129690 f   nafxcwd:winocc.obj
 0002:000a2750       ?GetDlgCtrlID@CWnd@@QBEHXZ 10129750 f   nafxcwd:winocc.obj
 0002:000a27c0       ?SetDlgCtrlID@CWnd@@QAEHH@Z 101297c0 f   nafxcwd:winocc.obj
 0002:000a2840       ?MoveWindow@CWnd@@QAEXHHHHH@Z 10129840 f   nafxcwd:winocc.obj
 0002:000a28d0       ?SetWindowPos@CWnd@@QAEHPBV1@HHHHI@Z 101298d0 f   nafxcwd:winocc.obj
 0002:000a2970       ?ShowWindow@CWnd@@QAEHH@Z  10129970 f   nafxcwd:winocc.obj
 0002:000a29f0       ?IsWindowEnabled@CWnd@@QBEHXZ 101299f0 f   nafxcwd:winocc.obj
 0002:000a2a60       ?EnableWindow@CWnd@@QAEHH@Z 10129a60 f   nafxcwd:winocc.obj
 0002:000a2ae0       ?SetFocus@CWnd@@QAEPAV1@XZ 10129ae0 f   nafxcwd:winocc.obj
 0002:000a2b50       ?InvokeHelper@CWnd@@QAAXJGGPAXPBEZZ 10129b50 f   nafxcwd:winocc.obj
 0002:000a2bc0       ?GetProperty@CWnd@@QBEXJGPAX@Z 10129bc0 f   nafxcwd:winocc.obj
 0002:000a2c20       ?SetProperty@CWnd@@QAAXJGZZ 10129c20 f   nafxcwd:winocc.obj
 0002:000a2c80       ?GetDSCCursor@CWnd@@QAEPAUIUnknown@@XZ 10129c80 f   nafxcwd:winocc.obj
 0002:000a2d10       ?BindDefaultProperty@CWnd@@QAEXJGPBDPAV1@@Z 10129d10 f   nafxcwd:winocc.obj
 0002:000a2d70       ?BindProperty@CWnd@@QAEXJPAV1@@Z 10129d70 f   nafxcwd:winocc.obj
 0002:000a2dc0       ?AttachControlSite@CWnd@@IAEXPAVCHandleMap@@@Z 10129dc0 f   nafxcwd:winocc.obj
 0002:000a2e20       ?AttachControlSite@CWnd@@QAEXPAV1@I@Z 10129e20 f   nafxcwd:winocc.obj
 0002:000a2ea0       ?GetStyle@COleControlSiteOrWnd@@QBEKXZ 10129ea0 f   nafxcwd:winocc.obj
 0002:000a2ee0       ?GetNextDlgTabItem@CWnd@@QBEPAUCOleControlSiteOrWnd@@PAU2@H@Z 10129ee0 f   nafxcwd:winocc.obj
 0002:000a3030       ?GetPrevDlgGroupItem@CWnd@@QBEPAUCOleControlSiteOrWnd@@PAU2@@Z 1012a030 f   nafxcwd:winocc.obj
 0002:000a31b0       ?GetNextDlgGroupItem@CWnd@@QBEPAUCOleControlSiteOrWnd@@PAU2@@Z 1012a1b0 f   nafxcwd:winocc.obj
 0002:000a3330       ?RemoveRadioCheckFromGroup@CWnd@@QBEXPBUCOleControlSiteOrWnd@@@Z 1012a330 f   nafxcwd:winocc.obj
 0002:000a34b0       ?AttachControlSite@COleControlContainer@@UAEXPAVCWnd@@I@Z 1012a4b0 f   nafxcwd:winocc.obj
 0002:000a3ba0       ?GetPrev@?$_CTypedPtrList@VCPtrList@@PAUCOleControlSiteOrWnd@@@@QAEAAPAUCOleControlSiteOrWnd@@AAPAU__POSITION@@@Z 1012aba0 f i nafxcwd:winocc.obj
 0002:000a3bc0       ??0CCmdTarget@@QAE@XZ      1012abc0 f   nafxcwd:cmdtarg.obj
 0002:000a3c20       ??1CCmdTarget@@UAE@XZ      1012ac20 f   nafxcwd:cmdtarg.obj
 0002:000a3ca0       ?_AfxDispatchCmdMsg@@YGHPAVCCmdTarget@@IHP81@AEXXZPAXIPAUAFX_CMDHANDLERINFO@@@Z 1012aca0 f   nafxcwd:cmdtarg.obj
 0002:000a40f0       ?OnCmdMsg@CCmdTarget@@UAEHIHPAXPAUAFX_CMDHANDLERINFO@@@Z 1012b0f0 f   nafxcwd:cmdtarg.obj
 0002:000a4390       ?IsInvokeAllowed@CCmdTarget@@UAEHJ@Z 1012b390 f   nafxcwd:cmdtarg.obj
 0002:000a43b0       ?GetDispatchIID@CCmdTarget@@UAEHPAU_GUID@@@Z 1012b3b0 f   nafxcwd:cmdtarg.obj
 0002:000a43c0       ?GetTypeInfoCount@CCmdTarget@@UAEIXZ 1012b3c0 f   nafxcwd:cmdtarg.obj
 0002:000a43d0       ?GetTypeLibCache@CCmdTarget@@UAEPAVCTypeLibCache@@XZ 1012b3d0 f   nafxcwd:cmdtarg.obj
 0002:000a43e0       ?GetTypeLib@CCmdTarget@@UAEJKPAPAUITypeLib@@@Z 1012b3e0 f   nafxcwd:cmdtarg.obj
 0002:000a4400       ?BeginWaitCursor@CCmdTarget@@QAEXXZ 1012b400 f   nafxcwd:cmdtarg.obj
 0002:000a4430       ?EndWaitCursor@CCmdTarget@@QAEXXZ 1012b430 f   nafxcwd:cmdtarg.obj
 0002:000a4460       ?RestoreWaitCursor@CCmdTarget@@QAEXXZ 1012b460 f   nafxcwd:cmdtarg.obj
 0002:000a4490       ?GetMessageMap@CCmdTarget@@MBEPBUAFX_MSGMAP@@XZ 1012b490 f   nafxcwd:cmdtarg.obj
 0002:000a44a0       ?GetDispatchMap@CCmdTarget@@MBEPBUAFX_DISPMAP@@XZ 1012b4a0 f   nafxcwd:cmdtarg.obj
 0002:000a44b0       ?GetEventSinkMap@CCmdTarget@@MBEPBUAFX_EVENTSINKMAP@@XZ 1012b4b0 f   nafxcwd:cmdtarg.obj
 0002:000a44c0       ?GetInterfaceMap@CCmdTarget@@MBEPBUAFX_INTERFACEMAP@@XZ 1012b4c0 f   nafxcwd:cmdtarg.obj
 0002:000a44d0       ?OnFinalRelease@CCmdTarget@@UAEXXZ 1012b4d0 f   nafxcwd:cmdtarg.obj
 0002:000a4540       ?OnCreateAggregates@CCmdTarget@@UAEHXZ 1012b540 f   nafxcwd:cmdtarg.obj
 0002:000a4550       ?GetInterfaceHook@CCmdTarget@@UAEPAUIUnknown@@PBX@Z 1012b550 f   nafxcwd:cmdtarg.obj
 0002:000a4560       ?GetConnectionMap@CCmdTarget@@MBEPBUAFX_CONNECTIONMAP@@XZ 1012b560 f   nafxcwd:cmdtarg.obj
 0002:000a4570       ?GetConnectionHook@CCmdTarget@@MAEPAUIConnectionPoint@@ABU_GUID@@@Z 1012b570 f   nafxcwd:cmdtarg.obj
 0002:000a4580       ?GetExtraConnectionPoints@CCmdTarget@@MAEHPAVCPtrArray@@@Z 1012b580 f   nafxcwd:cmdtarg.obj
 0002:000a4590       ?GetCommandMap@CCmdTarget@@MBEPBUAFX_OLECMDMAP@@XZ 1012b590 f   nafxcwd:cmdtarg.obj
 0002:000a45a0       ?GetRoutingView@CCmdTarget@@IAEPAVCView@@XZ 1012b5a0 f   nafxcwd:cmdtarg.obj
 0002:000a45b0       ?GetRoutingFrame@CCmdTarget@@IAEPAVCFrameWnd@@XZ 1012b5b0 f   nafxcwd:cmdtarg.obj
 0002:000a45c0       ??0CCmdUI@@QAE@XZ          1012b5c0 f   nafxcwd:cmdtarg.obj
 0002:000a4640       ?Enable@CCmdUI@@UAEXH@Z    1012b640 f   nafxcwd:cmdtarg.obj
 0002:000a4720       ?SetCheck@CCmdUI@@UAEXH@Z  1012b720 f   nafxcwd:cmdtarg.obj
 0002:000a47e0       ?SetRadio@CCmdUI@@UAEXH@Z  1012b7e0 f   nafxcwd:cmdtarg.obj
 0002:000a4880       ?SetText@CCmdUI@@UAEXPBD@Z 1012b880 f   nafxcwd:cmdtarg.obj
 0002:000a49a0       ?DoUpdate@CCmdUI@@QAEHPAVCCmdTarget@@H@Z 1012b9a0 f   nafxcwd:cmdtarg.obj
 0002:000a4e80       ??2CObject@@SGPAXI@Z       1012be80 f   nafxcwd:afxmem.obj
 0002:000a4ea0       ??3CObject@@SGXPAX@Z       1012bea0 f   nafxcwd:afxmem.obj
 0002:000a4ec0       ??3CObject@@SGXPAX0@Z      1012bec0 f   nafxcwd:afxmem.obj
 0002:000a4ee0       ??2@YAPAXIPBDH@Z           1012bee0 f   nafxcwd:afxmem.obj
 0002:000a4f00       ??_U@YAPAXIPBDH@Z          1012bf00 f   nafxcwd:afxmem.obj
 0002:000a4f20       ??3@YAXPAXPBDH@Z           1012bf20 f   nafxcwd:afxmem.obj
 0002:000a4f40       ??_V@YAXPAXPBDH@Z          1012bf40 f   nafxcwd:afxmem.obj
 0002:000a4f60       ??2CObject@@SGPAXIPBDH@Z   1012bf60 f   nafxcwd:afxmem.obj
 0002:000a4f80       ??3CObject@@SGXPAXPBDH@Z   1012bf80 f   nafxcwd:afxmem.obj
 0002:000a4fa0       ?AfxAllocMemoryDebug@@YGPAXIHPBDH@Z 1012bfa0 f   nafxcwd:afxmem.obj
 0002:000a4fd0       ?AfxFreeMemoryDebug@@YGXPAXH@Z 1012bfd0 f   nafxcwd:afxmem.obj
 0002:000a5000       ?_AfxDefaultAllocHook@@YGHIHJ@Z 1012c000 f   nafxcwd:afxmem.obj
 0002:000a5010       ?_AfxAllocHookProxy@@YAHHPAXIHJPBEH@Z 1012c010 f   nafxcwd:afxmem.obj
 0002:000a50a0       ?AfxSetAllocHook@@YGP6GHIHJ@ZP6GHIHJ@Z@Z 1012c0a0 f   nafxcwd:afxmem.obj
 0002:000a50e0       ?AfxEnableMemoryTracking@@YGHH@Z 1012c0e0 f   nafxcwd:afxmem.obj
 0002:000a5140       ?AfxSetAllocStop@@YGXJ@Z   1012c140 f   nafxcwd:afxmem.obj
 0002:000a5160       ?AfxCheckMemory@@YGHXZ     1012c160 f   nafxcwd:afxmem.obj
 0002:000a5170       ?AfxIsMemoryBlock@@YGHPBXIPAJ@Z 1012c170 f   nafxcwd:afxmem.obj
 0002:000a5190       ??0CMemoryState@@QAE@XZ    1012c190 f   nafxcwd:afxmem.obj
 0002:000a51b0       ?UpdateData@CMemoryState@@QAEXXZ 1012c1b0 f   nafxcwd:afxmem.obj
 0002:000a5220       ?Difference@CMemoryState@@QAEHABU1@0@Z 1012c220 f   nafxcwd:afxmem.obj
 0002:000a5260       ?DumpStatistics@CMemoryState@@QBEXXZ 1012c260 f   nafxcwd:afxmem.obj
 0002:000a5280       ?Checkpoint@CMemoryState@@QAEXXZ 1012c280 f   nafxcwd:afxmem.obj
 0002:000a52a0       ?DumpAllObjectsSince@CMemoryState@@QBEXXZ 1012c2a0 f   nafxcwd:afxmem.obj
 0002:000a52c0       ?_AfxDoForAllObjectsProxy@@YAXPAX0@Z 1012c2c0 f   nafxcwd:afxmem.obj
 0002:000a52f0       ?AfxDoForAllObjects@@YGXP6AXPAVCObject@@PAX@Z1@Z 1012c2f0 f   nafxcwd:afxmem.obj
 0002:000a5330       ?AfxDumpMemoryLeaks@@YGHXZ 1012c330 f   nafxcwd:afxmem.obj
 0002:000a5340       ?AfxNewHandler@@YAHI@Z     1012c340 f   nafxcwd:afxmem.obj
 0002:000a5350       ?AfxGetNewHandler@@YGP6AHI@ZXZ 1012c350 f   nafxcwd:afxmem.obj
 0002:000a5360       ?AfxSetNewHandler@@YGP6AHI@ZP6AHI@Z@Z 1012c360 f   nafxcwd:afxmem.obj
 0002:000a5380       ??2@YAPAXI@Z               1012c380 f   nafxcwd:afxmem.obj
 0002:000a53d0       ??3@YAXPAX@Z               1012c3d0 f   nafxcwd:afxmem.obj
 0002:000a53f0       ??_U@YAPAXI@Z              1012c3f0 f   nafxcwd:afxmem.obj
 0002:000a5410       ??_V@YAXPAX@Z              1012c410 f   nafxcwd:afxmem.obj
 0002:000a5430       ??2@YAPAXIHPBDH@Z          1012c430 f   nafxcwd:afxmem.obj
 0002:000a5480       ??3@YAXPAXHPBDH@Z          1012c480 f   nafxcwd:afxmem.obj
 0002:000a54a0       ??_U@YAPAXIHPBDH@Z         1012c4a0 f   nafxcwd:afxmem.obj
 0002:000a54c0       ??_V@YAXPAXHPBDH@Z         1012c4c0 f   nafxcwd:afxmem.obj
 0002:000a5680       ?AfxLoadString@@YGHIPADI@Z 1012c680 f   nafxcwd:winstr.obj
 0002:000a5730       ?AfxLoadString@@YGHIPA_WI@Z 1012c730 f   nafxcwd:winstr.obj
 0002:000a5810       ?AfxFindStringResourceHandle@@YGPAUHINSTANCE__@@I@Z 1012c810 f   nafxcwd:winstr.obj
 0002:000a5820       ?AfxExtractSubString@@YGHAAV?$CStringT@DV?$StrTraitMFC@DV?$ChTraitsCRT@D@ATL@@@@@ATL@@PBDHD@Z 1012c820 f   nafxcwd:winstr.obj
 0002:000a59a0       ?AfxA2WHelper@@YGPA_WPA_WPBDH@Z 1012c9a0 f   nafxcwd:strcore.obj
 0002:000a59c0       ?AfxW2AHelper@@YGPADPADPB_WH@Z 1012c9c0 f   nafxcwd:strcore.obj
 0002:000a59e0       ??$HashKey@VCComBSTR@ATL@@@@YGIVCComBSTR@ATL@@@Z 1012c9e0 f   nafxcwd:strcore.obj
 0002:000a5a50       ??$SerializeElements@VCComBSTR@ATL@@@@YGXAAVCArchive@@PAVCComBSTR@ATL@@H@Z 1012ca50 f   nafxcwd:strcore.obj
 0002:000a5a70       ??$HashKey@PB_W@@YGIPB_W@Z 1012ca70 f   nafxcwd:strcore.obj
 0002:000a5ab0       ??$HashKey@PBD@@YGIPBD@Z   1012cab0 f   nafxcwd:strcore.obj
 0002:000a5af0       ??$SerializeElements@V?$CStringT@DV?$StrTraitMFC@DV?$ChTraitsCRT@D@ATL@@@@@ATL@@@@YGXAAVCArchive@@PAV?$CStringT@DV?$StrTraitMFC@DV?$ChTraitsCRT@D@ATL@@@@@ATL@@H@Z 1012caf0 f   nafxcwd:strcore.obj
 0002:000a5b10       ??$SerializeElements@V?$CStringT@_WV?$StrTraitMFC@_WV?$ChTraitsCRT@_W@ATL@@@@@ATL@@@@YGXAAVCArchive@@PAV?$CStringT@_WV?$StrTraitMFC@_WV?$ChTraitsCRT@_W@ATL@@@@@ATL@@H@Z 1012cb10 f   nafxcwd:strcore.obj
 0002:000a5b30       ?AfxGetStringManager@@YGPAUIAtlStringMgr@ATL@@XZ 1012cb30 f   nafxcwd:strcore.obj
 0002:000a5b40       ?Allocate@CAfxStringMgr@@UAEPAUCStringData@ATL@@HH@Z 1012cb40 f   nafxcwd:strcore.obj
 0002:000a5bf0       ?Free@CAfxStringMgr@@UAEXPAUCStringData@ATL@@@Z 1012cbf0 f   nafxcwd:strcore.obj
 0002:000a5c10       ?Reallocate@CAfxStringMgr@@UAEPAUCStringData@ATL@@PAU23@HH@Z 1012cc10 f   nafxcwd:strcore.obj
 0002:000a5ca0       ?GetNilString@CAfxStringMgr@@UAEPAUCStringData@ATL@@XZ 1012cca0 f   nafxcwd:strcore.obj
 0002:000a5cc0       ?Clone@CAfxStringMgr@@UAEPAUIAtlStringMgr@ATL@@XZ 1012ccc0 f   nafxcwd:strcore.obj
 0002:000a5da0       ??$SerializeElementsInsertExtract@VCComBSTR@ATL@@@@YGXAAVCArchive@@PAVCComBSTR@ATL@@H@Z 1012cda0 f i nafxcwd:strcore.obj
 0002:000a5e90       ??$SerializeElementsInsertExtract@V?$CStringT@DV?$StrTraitMFC@DV?$ChTraitsCRT@D@ATL@@@@@ATL@@@@YGXAAVCArchive@@PAV?$CStringT@DV?$StrTraitMFC@DV?$ChTraitsCRT@D@ATL@@@@@ATL@@H@Z 1012ce90 f i nafxcwd:strcore.obj
 0002:000a5f60       ??$SerializeElementsInsertExtract@V?$CStringT@_WV?$StrTraitMFC@_WV?$ChTraitsCRT@_W@ATL@@@@@ATL@@@@YGXAAVCArchive@@PAV?$CStringT@_WV?$StrTraitMFC@_WV?$ChTraitsCRT@_W@ATL@@@@@ATL@@H@Z 1012cf60 f i nafxcwd:strcore.obj
 0002:000a6030       ??$?6_WV?$StrTraitMFC@_WV?$ChTraitsCRT@_W@ATL@@@@@@YGAAVCArchive@@AAV0@ABV?$CStringT@_WV?$StrTraitMFC@_WV?$ChTraitsCRT@_W@ATL@@@@@ATL@@@Z 1012d030 f i nafxcwd:strcore.obj
 0002:000a6080       ??$?5_WV?$StrTraitMFC@_WV?$ChTraitsCRT@_W@ATL@@@@@@YGAAVCArchive@@AAV0@AAV?$CStringT@_WV?$StrTraitMFC@_WV?$ChTraitsCRT@_W@ATL@@@@@ATL@@@Z 1012d080 f i nafxcwd:strcore.obj
 0002:000a6260       ??4?$CStringT@_WV?$StrTraitMFC@_WV?$ChTraitsCRT@_W@ATL@@@@@ATL@@QAEAAV01@PB_W@Z 1012d260 f i nafxcwd:strcore.obj
 0002:000a6290       ??4?$CStringT@_WV?$StrTraitMFC@_WV?$ChTraitsCRT@_W@ATL@@@@@ATL@@QAEAAV01@PBD@Z 1012d290 f i nafxcwd:strcore.obj
 0002:000a6330       ??B?$CSimpleStringT@_W$0A@@ATL@@QBEPB_WXZ 1012d330 f i nafxcwd:strcore.obj
 0002:000a6350       ?GetLength@?$CSimpleStringT@_W$0A@@ATL@@QBEHXZ 1012d350 f i nafxcwd:strcore.obj
 0002:000a6370       ??4?$CSimpleStringT@_W$0A@@ATL@@QAEAAV01@PB_W@Z 1012d370 f i nafxcwd:strcore.obj
 0002:000a63a0       ?Empty@?$CSimpleStringT@_W$0A@@ATL@@QAEXXZ 1012d3a0 f i nafxcwd:strcore.obj
 0002:000a6430       ?GetBuffer@?$CSimpleStringT@_W$0A@@ATL@@QAEPA_WH@Z 1012d430 f i nafxcwd:strcore.obj
 0002:000a6450       ?ReleaseBufferSetLength@?$CSimpleStringT@_W$0A@@ATL@@QAEXH@Z 1012d450 f i nafxcwd:strcore.obj
 0002:000a64a0       ?GetData@?$CSimpleStringT@_W$0A@@ATL@@ABEPAUCStringData@2@XZ 1012d4a0 f i nafxcwd:strcore.obj
 0002:000a64c0       ?SetString@?$CSimpleStringT@_W$0A@@ATL@@QAEXPB_W@Z 1012d4c0 f i nafxcwd:strcore.obj
 0002:000a64f0       ?Attach@?$CSimpleStringT@_W$0A@@ATL@@AAEXPAUCStringData@2@@Z 1012d4f0 f i nafxcwd:strcore.obj
 0002:000a6510       ?PrepareWrite@?$CSimpleStringT@_W$0A@@ATL@@AAEPA_WH@Z 1012d510 f i nafxcwd:strcore.obj
 0002:000a6570       ?SetLength@?$CSimpleStringT@_W$0A@@ATL@@AAEXH@Z 1012d570 f i nafxcwd:strcore.obj
 0002:000a6640       ?SetString@?$CSimpleStringT@_W$0A@@ATL@@QAEXPB_WH@Z 1012d640 f i nafxcwd:strcore.obj
 0002:000a6710       ?StringLength@?$CSimpleStringT@_W$0A@@ATL@@SAHPB_W@Z 1012d710 f i nafxcwd:strcore.obj
 0002:000a6740       ?PrepareWrite2@?$CSimpleStringT@_W$0A@@ATL@@AAEXH@Z 1012d740 f i nafxcwd:strcore.obj
 0002:000a6800       ?GetString@?$CSimpleStringT@_W$0A@@ATL@@QBEPB_WXZ 1012d800 f i nafxcwd:strcore.obj
 0002:000a6820       ?CopyChars@?$CSimpleStringT@_W$0A@@ATL@@SAXPA_WPB_WH@Z 1012d820 f i nafxcwd:strcore.obj
 0002:000a6850       ?CopyCharsOverlapped@?$CSimpleStringT@_W$0A@@ATL@@SAXPA_WPB_WH@Z 1012d850 f i nafxcwd:strcore.obj
 0002:000a6880       ?Fork@?$CSimpleStringT@_W$0A@@ATL@@AAEXH@Z 1012d880 f i nafxcwd:strcore.obj
 0002:000a6960       ?Reallocate@?$CSimpleStringT@_W$0A@@ATL@@AAEXH@Z 1012d960 f i nafxcwd:strcore.obj
 0002:000a6a00       ?ThrowMemoryException@?$CSimpleStringT@_W$0A@@ATL@@KAXXZ 1012da00 f i nafxcwd:strcore.obj
 0002:000a6a40       ??0CAfxStringMgr@@QAE@XZ   1012da40 f i nafxcwd:strcore.obj
 0002:000a6a80       ??3CException@@SGXPAX@Z    1012da80 f   nafxcwd:except.obj
 0002:000a6ae0       ??3CException@@SGXPAXPBDH@Z 1012dae0 f   nafxcwd:except.obj
 0002:000a6af0       ??0CException@@QAE@XZ      1012daf0 f   nafxcwd:except.obj
 0002:000a6b30       ??0CException@@QAE@H@Z     1012db30 f   nafxcwd:except.obj
 0002:000a6b70       ?Delete@CException@@QAEXXZ 1012db70 f   nafxcwd:except.obj
 0002:000a6bc0       ?GetErrorMessage@CException@@UAEHPADIPAI@Z 1012dbc0 f   nafxcwd:except.obj
 0002:000a6bf0       ?ReportError@CException@@UAEHII@Z 1012dbf0 f   nafxcwd:except.obj
 0002:000a6c90       ??0AFX_EXCEPTION_LINK@@QAE@XZ 1012dc90 f   nafxcwd:except.obj
 0002:000a6cd0       ?AfxTryCleanup@@YGXXZ      1012dcd0 f   nafxcwd:except.obj
 0002:000a6d30       ?AfxThrowLastCleanup@@YGXXZ 1012dd30 f   nafxcwd:except.obj
 0002:000a6e10       ?AfxGetExceptionContext@@YAPAUAFX_EXCEPTION_CONTEXT@@XZ 1012de10 f i nafxcwd:except.obj
 0002:000a6e50       ?_AfxThreadEntry@@YGIPAX@Z 1012de50 f   nafxcwd:thrdcore.obj
 0002:000a71b0       ?AfxGetThread@@YGPAVCWinThread@@XZ 1012e1b0 f   nafxcwd:thrdcore.obj
 0002:000a71d0       ?AfxGetCurrentMessage@@YGPAUtagMSG@@XZ 1012e1d0 f   nafxcwd:thrdcore.obj
 0002:000a7200       ?AfxInternalPumpMessage@@YGHXZ 1012e200 f   nafxcwd:thrdcore.obj
 0002:000a7310       ?AfxPumpMessage@@YGHXZ     1012e310 f   nafxcwd:thrdcore.obj
 0002:000a7340       ?AfxInternalProcessWndProcException@@YGJPAVCException@@PBUtagMSG@@@Z 1012e340 f   nafxcwd:thrdcore.obj
 0002:000a7380       ?AfxProcessWndProcException@@YGJPAVCException@@PBUtagMSG@@@Z 1012e380 f   nafxcwd:thrdcore.obj
 0002:000a73c0       ?AfxInternalPreTranslateMessage@@YAHPAUtagMSG@@@Z 1012e3c0 f   nafxcwd:thrdcore.obj
 0002:000a7460       ?AfxPreTranslateMessage@@YAHPAUtagMSG@@@Z 1012e460 f   nafxcwd:thrdcore.obj
 0002:000a74a0       ?AfxInternalIsIdleMessage@@YAHPAUtagMSG@@@Z 1012e4a0 f   nafxcwd:thrdcore.obj
 0002:000a7560       ?AfxIsIdleMessage@@YAHPAUtagMSG@@@Z 1012e560 f   nafxcwd:thrdcore.obj
 0002:000a75a0       ?AfxBeginThread@@YGPAVCWinThread@@P6AIPAX@Z0HIKPAU_SECURITY_ATTRIBUTES@@@Z 1012e5a0 f   nafxcwd:thrdcore.obj
 0002:000a76d0       ?AfxBeginThread@@YGPAVCWinThread@@PAUCRuntimeClass@@HIKPAU_SECURITY_ATTRIBUTES@@@Z 1012e6d0 f   nafxcwd:thrdcore.obj
 0002:000a77d0       ?AfxEndThread@@YGXIH@Z     1012e7d0 f   nafxcwd:thrdcore.obj
 0002:000a7870       ?AfxInitThread@@YGXXZ      1012e870 f   nafxcwd:thrdcore.obj
 0002:000a78d0       ?AfxTermThread@@YGXPAUHINSTANCE__@@@Z 1012e8d0 f   nafxcwd:thrdcore.obj
 0002:000a7a50       ?CreateThread@CWinThread@@QAEHKIPAU_SECURITY_ATTRIBUTES@@@Z 1012ea50 f   nafxcwd:thrdcore.obj
 0002:000a7c40       ?Delete@CWinThread@@UAEXXZ 1012ec40 f   nafxcwd:thrdcore.obj
 0002:000a7c90       ?InitInstance@CWinThread@@UAEHXZ 1012ec90 f   nafxcwd:thrdcore.obj
 0002:000a7cb0       ?Run@CWinThread@@UAEHXZ    1012ecb0 f   nafxcwd:thrdcore.obj
 0002:000a7d90       ?IsIdleMessage@CWinThread@@UAEHPAUtagMSG@@@Z 1012ed90 f   nafxcwd:thrdcore.obj
 0002:000a7db0       ?ExitInstance@CWinThread@@UAEHXZ 1012edb0 f   nafxcwd:thrdcore.obj
 0002:000a7e00       ?OnIdle@CWinThread@@UAEHJ@Z 1012ee00 f   nafxcwd:thrdcore.obj
 0002:000a8000       ?DispatchThreadMessage@CWinThread@@IAEXPAUtagMSG@@@Z 1012f000 f   nafxcwd:thrdcore.obj
 0002:000a8020       ?DispatchThreadMessageEx@CWinThread@@IAEHPAUtagMSG@@@Z 1012f020 f   nafxcwd:thrdcore.obj
 0002:000a8130       ?PreTranslateMessage@CWinThread@@UAEHPAUtagMSG@@@Z 1012f130 f   nafxcwd:thrdcore.obj
 0002:000a8160       ?ProcessWndProcException@CWinThread@@UAEJPAVCException@@PBUtagMSG@@@Z 1012f160 f   nafxcwd:thrdcore.obj
 0002:000a8180       ?_AfxMsgFilterHook@@YGJHIJ@Z 1012f180 f   nafxcwd:thrdcore.obj
 0002:000a8210       ?IsHelpKey@@YGHPAUtagMSG@@@Z 1012f210 f   nafxcwd:thrdcore.obj
 0002:000a8290       ?ProcessMessageFilter@CWinThread@@UAEHHPAUtagMSG@@@Z 1012f290 f   nafxcwd:thrdcore.obj
 0002:000a8420       ?GetMainWnd@CWinThread@@UAEPAVCWnd@@XZ 1012f420 f   nafxcwd:thrdcore.obj
 0002:000a8460       ?PumpMessage@CWinThread@@UAEHXZ 1012f460 f   nafxcwd:thrdcore.obj
 0002:000a8470       ?AssertValid@CWinThread@@UBEXXZ 1012f470 f   nafxcwd:thrdcore.obj
 0002:000a8490       ?Dump@CWinThread@@UBEXAAVCDumpContext@@@Z 1012f490 f   nafxcwd:thrdcore.obj
 0002:000a8d00       ?IsEnterKey@@YAHPAUtagMSG@@@Z 1012fd00 f i nafxcwd:thrdcore.obj
 0002:000a8d40       ?IsButtonUp@@YAHPAUtagMSG@@@Z 1012fd40 f i nafxcwd:thrdcore.obj
 0002:000a8d60       ?AfxDlgProc@@YGHPAUHWND__@@IIJ@Z 1012fd60 f   nafxcwd:dlgcore.obj
 0002:000a8db0       ?GetMessageMap@CDialog@@MBEPBUAFX_MSGMAP@@XZ 1012fdb0 f   nafxcwd:dlgcore.obj
 0002:000a8dc0       ?PreTranslateMessage@CDialog@@UAEHPAUtagMSG@@@Z 1012fdc0 f   nafxcwd:dlgcore.obj
 0002:000a8ec0       ?OnCmdMsg@CDialog@@UAEHIHPAXPAUAFX_CMDHANDLERINFO@@@Z 1012fec0 f   nafxcwd:dlgcore.obj
 0002:000a9040       ??0CDialog@@QAE@XZ         10130040 f   nafxcwd:dlgcore.obj
 0002:000a90c0       ??1CDialog@@UAE@XZ         101300c0 f   nafxcwd:dlgcore.obj
 0002:000a9180       ?OnPaint@CDialog@@IAEXXZ   10130180 f   nafxcwd:dlgcore.obj
 0002:000a9210       ?Create@CDialog@@UAEHPBDPAVCWnd@@@Z 10130210 f   nafxcwd:dlgcore.obj
 0002:000a9310       ?CreateIndirect@CDialog@@UAEHPAXPAVCWnd@@@Z 10130310 f   nafxcwd:dlgcore.obj
 0002:000a9330       ?CreateIndirect@CDialog@@IAEHPAXPAVCWnd@@PAUHINSTANCE__@@@Z 10130330 f   nafxcwd:dlgcore.obj
 0002:000a9390       ?CreateIndirect@CDialog@@UAEHPBUDLGTEMPLATE@@PAVCWnd@@PAX@Z 10130390 f   nafxcwd:dlgcore.obj
 0002:000a93c0       ?CreateIndirect@CDialog@@IAEHPBUDLGTEMPLATE@@PAVCWnd@@PAXPAUHINSTANCE__@@@Z 101303c0 f   nafxcwd:dlgcore.obj
 0002:000a9420       ?CreateDlg@CWnd@@IAEHPBDPAV1@@Z 10130420 f   nafxcwd:dlgcore.obj
 0002:000a94d0       ?CreateDlgIndirect@CWnd@@IAEHPBUDLGTEMPLATE@@PAV1@PAUHINSTANCE__@@@Z 101304d0 f   nafxcwd:dlgcore.obj
 0002:000a9930       ?SetOccDialogInfo@CDialog@@MAEHPAU_AFX_OCC_DIALOG_INFO@@@Z 10130930 f   nafxcwd:dlgcore.obj
 0002:000a9950       ??0CDialog@@QAE@PBDPAVCWnd@@@Z 10130950 f   nafxcwd:dlgcore.obj
 0002:000a9a20       ??0CDialog@@QAE@IPAVCWnd@@@Z 10130a20 f   nafxcwd:dlgcore.obj
 0002:000a9a70       ?InitModalIndirect@CDialog@@QAEHPAXPAVCWnd@@@Z 10130a70 f   nafxcwd:dlgcore.obj
 0002:000a9b00       ?InitModalIndirect@CDialog@@QAEHPBUDLGTEMPLATE@@PAVCWnd@@PAX@Z 10130b00 f   nafxcwd:dlgcore.obj
 0002:000a9b90       ?PreModal@CDialog@@IAEPAUHWND__@@XZ 10130b90 f   nafxcwd:dlgcore.obj
 0002:000a9c00       ?PostModal@CDialog@@IAEXXZ 10130c00 f   nafxcwd:dlgcore.obj
 0002:000a9c60       ?DoModal@CDialog@@UAEHXZ   10130c60 f   nafxcwd:dlgcore.obj
 0002:000a9f10       ?EndDialog@CDialog@@QAEXH@Z 10130f10 f   nafxcwd:dlgcore.obj
 0002:000a9f70       ?HandleSetFont@CDialog@@IAEJIJ@Z 10130f70 f   nafxcwd:dlgcore.obj
 0002:000a9fa0       ?PreInitDialog@CDialog@@MAEXXZ 10130fa0 f   nafxcwd:dlgcore.obj
 0002:000a9fb0       ?HandleInitDialog@CDialog@@IAEJIJ@Z 10130fb0 f   nafxcwd:dlgcore.obj
 0002:000aa0d0       ?AfxHelpEnabled@@YGHXZ     101310d0 f   nafxcwd:dlgcore.obj
 0002:000aa140       ?OnSetFont@CDialog@@UAEXPAVCFont@@@Z 10131140 f   nafxcwd:dlgcore.obj
 0002:000aa150       ?OnInitDialog@CDialog@@UAEHXZ 10131150 f   nafxcwd:dlgcore.obj
 0002:000aa250       ?OnOK@CDialog@@MAEXXZ      10131250 f   nafxcwd:dlgcore.obj
 0002:000aa2b0       ?OnCancel@CDialog@@MAEXXZ  101312b0 f   nafxcwd:dlgcore.obj
 0002:000aa2d0       ?CheckAutoCenter@CDialog@@UAEHXZ 101312d0 f   nafxcwd:dlgcore.obj
 0002:000aa400       ?OnCommandHelp@CDialog@@IAEJIJ@Z 10131400 f   nafxcwd:dlgcore.obj
 0002:000aa460       ?OnHelpHitTest@CDialog@@IAEJIJ@Z 10131460 f   nafxcwd:dlgcore.obj
 0002:000aa490       ?AssertValid@CDialog@@UBEXXZ 10131490 f   nafxcwd:dlgcore.obj
 0002:000aa4b0       ?Dump@CDialog@@UBEXAAVCDumpContext@@@Z 101314b0 f   nafxcwd:dlgcore.obj
 0002:000aa590       ?_AfxCheckDialogTemplate@@YGHPBDH@Z 10131590 f   nafxcwd:dlgcore.obj
 0002:000aaeb0       ??_ECDialog@@UAEPAXI@Z     10131eb0 f i nafxcwd:dlgcore.obj
 0002:000aaeb0       ??_GCDialog@@UAEPAXI@Z     10131eb0 f i nafxcwd:dlgcore.obj
 0002:000aaef0       ?GetMessageMap@CWinApp@@MBEPBUAFX_MSGMAP@@XZ 10131ef0 f   nafxcwd:appcore.obj
 0002:000aaf00       ?Run@CWinApp@@UAEHXZ       10131f00 f   nafxcwd:appcore.obj
 0002:000aaf60       ?WinHelpA@CWinApp@@UAEXKI@Z 10131f60 f   nafxcwd:appcore.obj
 0002:000aafc0       ?HtmlHelpA@CWinApp@@UAEXKI@Z 10131fc0 f   nafxcwd:appcore.obj
 0002:000ab020       ?WinHelpInternal@CWinApp@@UAEXKI@Z 10132020 f   nafxcwd:appcore.obj
 0002:000ab080       ?ProcessWndProcException@CWinApp@@UAEJPAVCException@@PBUtagMSG@@@Z 10132080 f   nafxcwd:appcore.obj
 0002:000ab140       ?OnIdle@CWinApp@@UAEHJ@Z   10132140 f   nafxcwd:appcore.obj
 0002:000ab220       ?DevModeChange@CWinApp@@QAEXPAD@Z 10132220 f   nafxcwd:appcore.obj
 0002:000ab340       ?AssertValid@CWinApp@@UBEXXZ 10132340 f   nafxcwd:appcore.obj
 0002:000ab3d0       ?Dump@CWinApp@@UBEXAAVCDumpContext@@@Z 101323d0 f   nafxcwd:appcore.obj
 0002:000ab930       ?AfxLockTempMaps@@YGXXZ    10132930 f   nafxcwd:winhand.obj
 0002:000ab950       ?AfxUnlockTempMaps@@YGHH@Z 10132950 f   nafxcwd:winhand.obj
 0002:000abb80       ??0CHandleMap@@QAE@PAUCRuntimeClass@@P6GXPAVCObject@@@Z2IH@Z 10132b80 f   nafxcwd:winhand.obj
 0002:000abca0       ?FromHandle@CHandleMap@@QAEPAVCObject@@PAX@Z 10132ca0 f   nafxcwd:winhand.obj
 0002:000abf20       ?SetPermanent@CHandleMap@@QAEXPAXPAVCObject@@@Z 10132f20 f   nafxcwd:winhand.obj
 0002:000abf60       ?RemoveHandle@CHandleMap@@QAEXPAX@Z 10132f60 f   nafxcwd:winhand.obj
 0002:000ac030       ?DeleteTemp@CHandleMap@@QAEXXZ 10133030 f   nafxcwd:winhand.obj
 0002:000ac160       ?DeleteTempMap@CWnd@@SGXXZ 10133160 f   nafxcwd:winhand.obj
 0002:000ac180       ?DeleteTempMap@CImageList@@SGXXZ 10133180 f   nafxcwd:winhand.obj
 0002:000ac1a0       ?DeleteTempMap@CDC@@SGXXZ  101331a0 f   nafxcwd:winhand.obj
 0002:000ac1c0       ?DeleteTempMap@CGdiObject@@SGXXZ 101331c0 f   nafxcwd:winhand.obj
 0002:000ac1e0       ?DeleteTempMap@CMenu@@SGXXZ 101331e0 f   nafxcwd:winhand.obj
 0002:000ac430       ?GetDataNA@?$CThreadLocal@V_AFX_THREAD_STATE@@@@QAEPAV_AFX_THREAD_STATE@@XZ 10133430 f i nafxcwd:winhand.obj
 0002:000ac460       ?GetRuntimeClass@CObject@@UBEPAUCRuntimeClass@@XZ 10133460 f   nafxcwd:objcore.obj
 0002:000ac470       ?IsKindOf@CObject@@QBEHPBUCRuntimeClass@@@Z 10133470 f   nafxcwd:objcore.obj
 0002:000ac4e0       ?AfxDynamicDownCast@@YAPAVCObject@@PAUCRuntimeClass@@PAV1@@Z 101334e0 f   nafxcwd:objcore.obj
 0002:000ac510       ?AfxStaticDownCast@@YAPAVCObject@@PAUCRuntimeClass@@PAV1@@Z 10133510 f   nafxcwd:objcore.obj
 0002:000ac540       ?AfxAssertValidObject@@YGXPBVCObject@@PBDH@Z 10133540 f   nafxcwd:objcore.obj
 0002:000ac6a0       ?AssertValid@CObject@@UBEXXZ 101336a0 f   nafxcwd:objcore.obj
 0002:000ac6d0       ?Dump@CObject@@UBEXAAVCDumpContext@@@Z 101336d0 f   nafxcwd:objcore.obj
 0002:000ac730       ?CreateObject@CRuntimeClass@@QAEPAVCObject@@XZ 10133730 f   nafxcwd:objcore.obj
 0002:000ac800       ?IsSerializable@CObject@@QBEHXZ 10133800 f   nafxcwd:objcore.obj
 0002:000ac830       ?AfxClassInit@@YGXPAUCRuntimeClass@@@Z 10133830 f   nafxcwd:objcore.obj
 0002:000ac860       ?IsDerivedFrom@CRuntimeClass@@QBEHPBU1@@Z 10133860 f   nafxcwd:objcore.obj
 0002:000ac920       ?AfxDoForAllClasses@@YGXP6AXPBUCRuntimeClass@@PAX@Z1@Z 10133920 f   nafxcwd:objcore.obj
 0002:000acac0       ?AddHead@?$CTypedSimpleList@PAUCRuntimeClass@@@@QAEXPAUCRuntimeClass@@@Z 10133ac0 f i nafxcwd:objcore.obj
 0002:000acae0       ??B?$CTypedSimpleList@PAUCRuntimeClass@@@@QAEPAUCRuntimeClass@@XZ 10133ae0 f i nafxcwd:objcore.obj
 0002:000acb00       ?afxMapHMENU@@YGPAVCHandleMap@@H@Z 10133b00 f   nafxcwd:winmenu.obj
 0002:000acbe0       ?FromHandle@CMenu@@SGPAV1@PAUHMENU__@@@Z 10133be0 f   nafxcwd:winmenu.obj
 0002:000acc50       ?FromHandlePermanent@CMenu@@SGPAV1@PAUHMENU__@@@Z 10133c50 f   nafxcwd:winmenu.obj
 0002:000accb0       ?AssertValid@CMenu@@UBEXXZ 10133cb0 f   nafxcwd:winmenu.obj
 0002:000accf0       ?Dump@CMenu@@UBEXAAVCDumpContext@@@Z 10133cf0 f   nafxcwd:winmenu.obj
 0002:000acd40       ?Attach@CMenu@@QAEHPAUHMENU__@@@Z 10133d40 f   nafxcwd:winmenu.obj
 0002:000acdc0       ?Detach@CMenu@@QAEPAUHMENU__@@XZ 10133dc0 f   nafxcwd:winmenu.obj
 0002:000ace10       ?DestroyMenu@CMenu@@QAEHXZ 10133e10 f   nafxcwd:winmenu.obj
 0002:000ace40       ?GetMenuStringA@CMenu@@QBEHIAAV?$CStringT@DV?$StrTraitMFC@DV?$ChTraitsCRT@D@ATL@@@@@ATL@@I@Z 10133e40 f   nafxcwd:winmenu.obj
 0002:000acee0       ?DrawItem@CMenu@@UAEXPAUtagDRAWITEMSTRUCT@@@Z 10133ee0 f   nafxcwd:winmenu.obj
 0002:000acef0       ?MeasureItem@CMenu@@UAEXPAUtagMEASUREITEMSTRUCT@@@Z 10133ef0 f   nafxcwd:winmenu.obj
 0002:000acf00       ??0CChevronOwnerDrawMenu@@QAE@XZ 10133f00 f   nafxcwd:winmenu.obj
 0002:000acfc0       ?DrawItem@CChevronOwnerDrawMenu@@UAEXPAUtagDRAWITEMSTRUCT@@@Z 10133fc0 f   nafxcwd:winmenu.obj
 0002:000ad5a0       ?MeasureItem@CChevronOwnerDrawMenu@@UAEXPAUtagMEASUREITEMSTRUCT@@@Z 101345a0 f   nafxcwd:winmenu.obj
 0002:000ada70       ??_ECChevronOwnerDrawMenu@@UAEPAXI@Z 10134a70 f i nafxcwd:winmenu.obj
 0002:000ada70       ??_GCChevronOwnerDrawMenu@@UAEPAXI@Z 10134a70 f i nafxcwd:winmenu.obj
 0002:000adab0       ??1CChevronOwnerDrawMenu@@UAE@XZ 10134ab0 f i nafxcwd:winmenu.obj
 0002:000adb10       ?UpdateSysColors@AUX_DATA@@QAEXXZ 10134b10 f   nafxcwd:auxdata.obj
 0002:000adbc0       ?UpdateSysMetrics@AUX_DATA@@QAEXXZ 10134bc0 f   nafxcwd:auxdata.obj
 0002:000adcb0       ?ThrowOsError@CFileException@@SGXJPBD@Z 10134cb0 f   nafxcwd:filex.obj
 0002:000adce0       ?ThrowErrno@CFileException@@SGXHPBD@Z 10134ce0 f   nafxcwd:filex.obj
 0002:000add10       ?GetErrorMessage@CFileException@@UAEHPADIPAI@Z 10134d10 f   nafxcwd:filex.obj
 0002:000ade30       ?Dump@CFileException@@UBEXAAVCDumpContext@@@Z 10134e30 f   nafxcwd:filex.obj
 0002:000adec0       ?AfxThrowFileException@@YGXHJPBD@Z 10134ec0 f   nafxcwd:filex.obj
 0002:000adfb0       ?ErrnoToException@CFileException@@SGHH@Z 10134fb0 f   nafxcwd:filex.obj
 0002:000ae060       ?OsErrorToException@CFileException@@SGHJ@Z 10135060 f   nafxcwd:filex.obj
 0002:000ae800       ?_AfxConvertDialogUnitsToPixels@@YGXPBDGHHPAUtagSIZE@@@Z 10135800 f   nafxcwd:dlgtempl.obj
 0002:000ae960       ??0CDialogTemplate@@QAE@PBUDLGTEMPLATE@@@Z 10135960 f   nafxcwd:dlgtempl.obj
 0002:000ae9b0       ??0CDialogTemplate@@QAE@PAX@Z 101359b0 f   nafxcwd:dlgtempl.obj
 0002:000aea20       ?SetTemplate@CDialogTemplate@@IAEHPBUDLGTEMPLATE@@I@Z 10135a20 f   nafxcwd:dlgtempl.obj
 0002:000aeab0       ??1CDialogTemplate@@QAE@XZ 10135ab0 f   nafxcwd:dlgtempl.obj
 0002:000aead0       ?Load@CDialogTemplate@@QAEHPBD@Z 10135ad0 f   nafxcwd:dlgtempl.obj
 0002:000aeb60       ?Detach@CDialogTemplate@@QAEPAXXZ 10135b60 f   nafxcwd:dlgtempl.obj
 0002:000aeb90       ?HasFont@CDialogTemplate@@QBEHXZ 10135b90 f   nafxcwd:dlgtempl.obj
 0002:000aebd0       ?GetFontSizeField@CDialogTemplate@@KAPAEPBUDLGTEMPLATE@@@Z 10135bd0 f   nafxcwd:dlgtempl.obj
 0002:000aec80       ?GetTemplateSize@CDialogTemplate@@KAIPBUDLGTEMPLATE@@@Z 10135c80 f   nafxcwd:dlgtempl.obj
 0002:000aedd0       ?GetFont@CDialogTemplate@@SAHPBUDLGTEMPLATE@@AAV?$CStringT@DV?$StrTraitMFC@DV?$ChTraitsCRT@D@ATL@@@@@ATL@@AAG@Z 10135dd0 f   nafxcwd:dlgtempl.obj
 0002:000aee70       ?GetFont@CDialogTemplate@@QBEHAAV?$CStringT@DV?$StrTraitMFC@DV?$ChTraitsCRT@D@ATL@@@@@ATL@@AAG@Z 10135e70 f   nafxcwd:dlgtempl.obj
 0002:000aeed0       ?SetFont@CDialogTemplate@@QAEHPBDG@Z 10135ed0 f   nafxcwd:dlgtempl.obj
 0002:000af0c0       ?SetSystemFont@CDialogTemplate@@QAEHG@Z 101360c0 f   nafxcwd:dlgtempl.obj
 0002:000af190       ?GetSizeInDialogUnits@CDialogTemplate@@QBEXPAUtagSIZE@@@Z 10136190 f   nafxcwd:dlgtempl.obj
 0002:000af250       ?GetSizeInPixels@CDialogTemplate@@QBEXPAUtagSIZE@@@Z 10136250 f   nafxcwd:dlgtempl.obj
 0002:000af670       ?IsDialogEx@@YAHPBUDLGTEMPLATE@@@Z 10136670 f i nafxcwd:dlgtempl.obj
 0002:000af690       ?HasFont@@YAHPBUDLGTEMPLATE@@@Z 10136690 f i nafxcwd:dlgtempl.obj
 0002:000af6d0       ?FontAttrSize@@YAHH@Z      101366d0 f i nafxcwd:dlgtempl.obj
 0002:000af6f0       ?_SkipString@@YAPA_WPA_W@Z 101366f0 f i nafxcwd:dlgtempl.obj
 0002:000af720       ?_AfxAbbreviateName@@YGXPADHH@Z 10136720 f   nafxcwd:filelist.obj
 0002:000af940       ??0CRecentFileList@@QAE@IPBD0HH@Z 10136940 f   nafxcwd:filelist.obj
 0002:000afa70       ??1CRecentFileList@@UAE@XZ 10136a70 f   nafxcwd:filelist.obj
 0002:000afae0       ?Add@CRecentFileList@@UAEXPBD@Z 10136ae0 f   nafxcwd:filelist.obj
 0002:000afc90       ?Remove@CRecentFileList@@UAEXH@Z 10136c90 f   nafxcwd:filelist.obj
 0002:000afd60       ?GetDisplayName@CRecentFileList@@UBEHAAV?$CStringT@DV?$StrTraitMFC@DV?$ChTraitsCRT@D@ATL@@@@@ATL@@HPBDHH@Z 10136d60 f   nafxcwd:filelist.obj
 0002:000aff70       ?UpdateMenu@CRecentFileList@@UAEXPAVCCmdUI@@@Z 10136f70 f   nafxcwd:filelist.obj
 0002:000b0440       ?WriteList@CRecentFileList@@UAEXXZ 10137440 f   nafxcwd:filelist.obj
 0002:000b0590       ?ReadList@CRecentFileList@@UAEXXZ 10137590 f   nafxcwd:filelist.obj
 0002:000b0af0       ??_ECRecentFileList@@UAEPAXI@Z 10137af0 f i nafxcwd:filelist.obj
 0002:000b0af0       ??_GCRecentFileList@@UAEPAXI@Z 10137af0 f i nafxcwd:filelist.obj
 0002:000b0b30       ??_E?$CStringT@DV?$StrTraitMFC@DV?$ChTraitsCRT@D@ATL@@@@@ATL@@QAEPAXI@Z 10137b30 f i nafxcwd:filelist.obj
 0002:000b0bc0       ?IsDirSep@@YAHD@Z          10137bc0 f i nafxcwd:filecore.obj
 0002:000b0c00       ??0CFile@@QAE@XZ           10137c00 f   nafxcwd:filecore.obj
 0002:000b0c40       ??0CFile@@QAE@PAX@Z        10137c40 f   nafxcwd:filecore.obj
 0002:000b0c80       ??0CFile@@QAE@PBDI@Z       10137c80 f   nafxcwd:filecore.obj
 0002:000b0d60       ??1CFile@@UAE@XZ           10137d60 f   nafxcwd:filecore.obj
 0002:000b0de0       ?Duplicate@CFile@@UBEPAV1@XZ 10137de0 f   nafxcwd:filecore.obj
 0002:000b0f20       ?Open@CFile@@UAEHPBDIPAVCFileException@@@Z 10137f20 f   nafxcwd:filecore.obj
 0002:000b12e0       ?Read@CFile@@UAEIPAXI@Z    101382e0 f   nafxcwd:filecore.obj
 0002:000b13b0       ?Write@CFile@@UAEXPBXI@Z   101383b0 f   nafxcwd:filecore.obj
 0002:000b1490       ?Seek@CFile@@UAE_K_JI@Z    10138490 f   nafxcwd:filecore.obj
 0002:000b1550       ?GetPosition@CFile@@UBE_KXZ 10138550 f   nafxcwd:filecore.obj
 0002:000b15f0       ?Flush@CFile@@UAEXXZ       101385f0 f   nafxcwd:filecore.obj
 0002:000b1650       ?Close@CFile@@UAEXXZ       10138650 f   nafxcwd:filecore.obj
 0002:000b16f0       ?Abort@CFile@@UAEXXZ       101386f0 f   nafxcwd:filecore.obj
 0002:000b1740       ?LockRange@CFile@@UAEX_K0@Z 10138740 f   nafxcwd:filecore.obj
 0002:000b17d0       ?UnlockRange@CFile@@UAEX_K0@Z 101387d0 f   nafxcwd:filecore.obj
 0002:000b1860       ?SetLength@CFile@@UAEX_K@Z 10138860 f   nafxcwd:filecore.obj
 0002:000b18e0       ?GetLength@CFile@@UBE_KXZ  101388e0 f   nafxcwd:filecore.obj
 0002:000b1950       ?GetBufferPtr@CFile@@UAEIIIPAPAX0@Z 10138950 f   nafxcwd:filecore.obj
 0002:000b1980       ?Rename@CFile@@SGXPBD0@Z   10138980 f   nafxcwd:filecore.obj
 0002:000b19b0       ?Remove@CFile@@SGXPBD@Z    101389b0 f   nafxcwd:filecore.obj
 0002:000b19e0       ?CreateInstance@AFX_COM@@QAEJABU_GUID@@PAUIUnknown@@0PAPAX@Z 101389e0 f   nafxcwd:filecore.obj
 0002:000b1a70       ?GetClassObject@AFX_COM@@QAEJABU_GUID@@0PAPAX@Z 10138a70 f   nafxcwd:filecore.obj
 0002:000b1bc0       ?AfxStringFromCLSID@@YG?AV?$CStringT@DV?$StrTraitMFC@DV?$ChTraitsCRT@D@ATL@@@@@ATL@@ABU_GUID@@@Z 10138bc0 f   nafxcwd:filecore.obj
 0002:000b1c80       ?AfxGetInProcServer@@YGHPBDAAV?$CStringT@DV?$StrTraitMFC@DV?$ChTraitsCRT@D@ATL@@@@@ATL@@@Z 10138c80 f   nafxcwd:filecore.obj
 0002:000b1d70       ?AfxResolveShortcut@@YGHPAVCWnd@@PBDPADH@Z 10138d70 f   nafxcwd:filecore.obj
 0002:000b1f50       ?AfxFullPath@@YGHPADPBD@Z  10138f50 f   nafxcwd:filecore.obj
 0002:000b2230       ?AfxGetRoot@@YGXPBDAAV?$CStringT@DV?$StrTraitMFC@DV?$ChTraitsCRT@D@ATL@@@@@ATL@@@Z 10139230 f   nafxcwd:filecore.obj
 0002:000b22a0       ?AfxComparePath@@YGHPBD0@Z 101392a0 f   nafxcwd:filecore.obj
 0002:000b24c0       ?AfxGetFileTitle@@YGIPBDPADI@Z 101394c0 f   nafxcwd:filecore.obj
 0002:000b25b0       ?AfxGetModuleShortFileName@@YGXPAUHINSTANCE__@@AAV?$CStringT@DV?$StrTraitMFC@DV?$ChTraitsCRT@D@ATL@@@@@ATL@@@Z 101395b0 f   nafxcwd:filecore.obj
 0002:000b2630       ?AssertValid@CFile@@UBEXXZ 10139630 f   nafxcwd:filecore.obj
 0002:000b2650       ?Dump@CFile@@UBEXAAVCDumpContext@@@Z 10139650 f   nafxcwd:filecore.obj
 0002:000b2d70       ??_ECFile@@UAEPAXI@Z       10139d70 f i nafxcwd:filecore.obj
 0002:000b2d70       ??_GCFile@@UAEPAXI@Z       10139d70 f i nafxcwd:filecore.obj
 0002:000b2db0       ?Dump@CFileStatus@@QBEXAAVCDumpContext@@@Z 10139db0 f   nafxcwd:filest.obj
 0002:000b2e90       ?GetFileName@CFile@@UBE?AV?$CStringT@DV?$StrTraitMFC@DV?$ChTraitsCRT@D@ATL@@@@@ATL@@XZ 10139e90 f   nafxcwd:filest.obj
 0002:000b2f80       ?GetFileTitle@CFile@@UBE?AV?$CStringT@DV?$StrTraitMFC@DV?$ChTraitsCRT@D@ATL@@@@@ATL@@XZ 10139f80 f   nafxcwd:filest.obj
 0002:000b3070       ?GetFilePath@CFile@@UBE?AV?$CStringT@DV?$StrTraitMFC@DV?$ChTraitsCRT@D@ATL@@@@@ATL@@XZ 1013a070 f   nafxcwd:filest.obj
 0002:000b30f0       ?GetStatus@CFile@@QBEHAAUCFileStatus@@@Z 1013a0f0 f   nafxcwd:filest.obj
 0002:000b32e0       ?GetStatus@CFile@@SGHPBDAAUCFileStatus@@@Z 1013a2e0 f   nafxcwd:filest.obj
 0002:000b34e0       ?AfxTimeToFileTime@@YAXABVCTime@ATL@@PAU_FILETIME@@@Z 1013a4e0 f   nafxcwd:filest.obj
 0002:000b35a0       ?SetStatus@CFile@@SGXPBDABUCFileStatus@@@Z 1013a5a0 f   nafxcwd:filest.obj
 0002:000b3770       ?GetStatus@CMemFile@@QBEHAAUCFileStatus@@@Z 1013a770 f   nafxcwd:filest.obj
 0002:000b4b30       ??6@YGAAVCDumpContext@@AAV0@UtagSIZE@@@Z 1013bb30 f   nafxcwd:wingdi.obj
 0002:000b4b80       ??6@YGAAVCDumpContext@@AAV0@UtagPOINT@@@Z 1013bb80 f   nafxcwd:wingdi.obj
 0002:000b4bd0       ??6@YGAAVCDumpContext@@AAV0@ABUtagRECT@@@Z 1013bbd0 f   nafxcwd:wingdi.obj
 0002:000b4c50       ??0CDC@@QAE@XZ             1013bc50 f   nafxcwd:wingdi.obj
 0002:000b4c90       ?AssertValid@CDC@@UBEXXZ   1013bc90 f   nafxcwd:wingdi.obj
 0002:000b4cb0       ?Dump@CDC@@UBEXAAVCDumpContext@@@Z 1013bcb0 f   nafxcwd:wingdi.obj
 0002:000b4d30       ?afxMapHDC@@YGPAVCHandleMap@@H@Z 1013bd30 f   nafxcwd:wingdi.obj
 0002:000b4e00       ?FromHandle@CDC@@SGPAV1@PAUHDC__@@@Z 1013be00 f   nafxcwd:wingdi.obj
 0002:000b4e70       ?Attach@CDC@@QAEHPAUHDC__@@@Z 1013be70 f   nafxcwd:wingdi.obj
 0002:000b4f10       ?Detach@CDC@@QAEPAUHDC__@@XZ 1013bf10 f   nafxcwd:wingdi.obj
 0002:000b4f70       ?DeleteDC@CDC@@QAEHXZ      1013bf70 f   nafxcwd:wingdi.obj
 0002:000b4fa0       ??1CDC@@UAE@XZ             1013bfa0 f   nafxcwd:wingdi.obj
 0002:000b5010       ?SetAttribDC@CDC@@UAEXPAUHDC__@@@Z 1013c010 f   nafxcwd:wingdi.obj
 0002:000b5030       ?SetOutputDC@CDC@@UAEXPAUHDC__@@@Z 1013c030 f   nafxcwd:wingdi.obj
 0002:000b50c0       ?ReleaseAttribDC@CDC@@UAEXXZ 1013c0c0 f   nafxcwd:wingdi.obj
 0002:000b50e0       ?ReleaseOutputDC@CDC@@UAEXXZ 1013c0e0 f   nafxcwd:wingdi.obj
 0002:000b5160       ?StartDocA@CDC@@QAEHPBD@Z  1013c160 f   nafxcwd:wingdi.obj
 0002:000b51a0       ?SaveDC@CDC@@UAEHXZ        1013c1a0 f   nafxcwd:wingdi.obj
 0002:000b5220       ?RestoreDC@CDC@@UAEHH@Z    1013c220 f   nafxcwd:wingdi.obj
 0002:000b52e0       ?SelectGdiObject@CDC@@KGPAVCGdiObject@@PAUHDC__@@PAX@Z 1013c2e0 f   nafxcwd:wingdi.obj
 0002:000b5300       ?SelectStockObject@CDC@@UAEPAVCGdiObject@@H@Z 1013c300 f   nafxcwd:wingdi.obj
 0002:000b53b0       ?SelectObject@CDC@@QAEPAVCPen@@PAV2@@Z 1013c3b0 f   nafxcwd:wingdi.obj
 0002:000b5440       ?SelectObject@CDC@@QAEPAVCBrush@@PAV2@@Z 1013c440 f   nafxcwd:wingdi.obj
 0002:000b54d0       ?SelectObject@CDC@@UAEPAVCFont@@PAV2@@Z 1013c4d0 f   nafxcwd:wingdi.obj
 0002:000b5560       ?SelectObject@CDC@@QAEHPAVCRgn@@@Z 1013c560 f   nafxcwd:wingdi.obj
 0002:000b55e0       ?SelectPalette@CDC@@QAEPAVCPalette@@PAV2@H@Z 1013c5e0 f   nafxcwd:wingdi.obj
 0002:000b5630       ?SetBkColor@CDC@@UAEKK@Z   1013c630 f   nafxcwd:wingdi.obj
 0002:000b56b0       ?SetBkMode@CDC@@QAEHH@Z    1013c6b0 f   nafxcwd:wingdi.obj
 0002:000b5730       ?SetPolyFillMode@CDC@@QAEHH@Z 1013c730 f   nafxcwd:wingdi.obj
 0002:000b57b0       ?SetROP2@CDC@@QAEHH@Z      1013c7b0 f   nafxcwd:wingdi.obj
 0002:000b5830       ?SetStretchBltMode@CDC@@QAEHH@Z 1013c830 f   nafxcwd:wingdi.obj
 0002:000b58b0       ?SetTextColor@CDC@@UAEKK@Z 1013c8b0 f   nafxcwd:wingdi.obj
 0002:000b5930       ?SetMapMode@CDC@@UAEHH@Z   1013c930 f   nafxcwd:wingdi.obj
 0002:000b59b0       ?SetViewportOrg@CDC@@UAE?AVCPoint@@HH@Z 1013c9b0 f   nafxcwd:wingdi.obj
 0002:000b5a70       ?OffsetViewportOrg@CDC@@UAE?AVCPoint@@HH@Z 1013ca70 f   nafxcwd:wingdi.obj
 0002:000b5b30       ?SetViewportExt@CDC@@UAE?AVCSize@@HH@Z 1013cb30 f   nafxcwd:wingdi.obj
 0002:000b5bf0       ?ScaleViewportExt@CDC@@UAE?AVCSize@@HHHH@Z 1013cbf0 f   nafxcwd:wingdi.obj
 0002:000b5cc0       ?SetWindowOrg@CDC@@QAE?AVCPoint@@HH@Z 1013ccc0 f   nafxcwd:wingdi.obj
 0002:000b5d80       ?OffsetWindowOrg@CDC@@QAE?AVCPoint@@HH@Z 1013cd80 f   nafxcwd:wingdi.obj
 0002:000b5e40       ?SetWindowExt@CDC@@UAE?AVCSize@@HH@Z 1013ce40 f   nafxcwd:wingdi.obj
 0002:000b5f00       ?ScaleWindowExt@CDC@@UAE?AVCSize@@HHHH@Z 1013cf00 f   nafxcwd:wingdi.obj
 0002:000b5fd0       ?GetClipBox@CDC@@UBEHPAUtagRECT@@@Z 1013cfd0 f   nafxcwd:wingdi.obj
 0002:000b6010       ?SelectClipRgn@CDC@@QAEHPAVCRgn@@@Z 1013d010 f   nafxcwd:wingdi.obj
 0002:000b6090       ?ExcludeClipRect@CDC@@QAEHHHHH@Z 1013d090 f   nafxcwd:wingdi.obj
 0002:000b6120       ?ExcludeClipRect@CDC@@QAEHPBUtagRECT@@@Z 1013d120 f   nafxcwd:wingdi.obj
 0002:000b61d0       ?IntersectClipRect@CDC@@QAEHHHHH@Z 1013d1d0 f   nafxcwd:wingdi.obj
 0002:000b6260       ?IntersectClipRect@CDC@@QAEHPBUtagRECT@@@Z 1013d260 f   nafxcwd:wingdi.obj
 0002:000b6310       ?OffsetClipRgn@CDC@@QAEHHH@Z 1013d310 f   nafxcwd:wingdi.obj
 0002:000b6390       ?OffsetClipRgn@CDC@@QAEHUtagSIZE@@@Z 1013d390 f   nafxcwd:wingdi.obj
 0002:000b6410       ?MoveTo@CDC@@QAE?AVCPoint@@HH@Z 1013d410 f   nafxcwd:wingdi.obj
 0002:000b64d0       ?LineTo@CDC@@QAEHHH@Z      1013d4d0 f   nafxcwd:wingdi.obj
 0002:000b6540       ?SetTextAlign@CDC@@QAEII@Z 1013d540 f   nafxcwd:wingdi.obj
 0002:000b65c0       ?SetTextJustification@CDC@@QAEHHH@Z 1013d5c0 f   nafxcwd:wingdi.obj
 0002:000b6640       ?SetTextCharacterExtra@CDC@@QAEHH@Z 1013d640 f   nafxcwd:wingdi.obj
 0002:000b66c0       ?SetMapperFlags@CDC@@QAEKK@Z 1013d6c0 f   nafxcwd:wingdi.obj
 0002:000b6740       ?GetLayout@CDC@@QBEKXZ     1013d740 f   nafxcwd:wingdi.obj
 0002:000b67e0       ?SetLayout@CDC@@QAEKK@Z    1013d7e0 f   nafxcwd:wingdi.obj
 0002:000b6880       ?ScreenToClient@CWnd@@QBEXPAUtagRECT@@@Z 1013d880 f   nafxcwd:wingdi.obj
 0002:000b68f0       ?ClientToScreen@CWnd@@QBEXPAUtagRECT@@@Z 1013d8f0 f   nafxcwd:wingdi.obj
 0002:000b6960       ?ArcTo@CDC@@QAEHHHHHHHHH@Z 1013d960 f   nafxcwd:wingdi.obj
 0002:000b6a30       ?SetArcDirection@CDC@@QAEHH@Z 1013da30 f   nafxcwd:wingdi.obj
 0002:000b6ab0       ?PolyDraw@CDC@@QAEHPBUtagPOINT@@PBEH@Z 1013dab0 f   nafxcwd:wingdi.obj
 0002:000b6b70       ?PolylineTo@CDC@@QAEHPBUtagPOINT@@H@Z 1013db70 f   nafxcwd:wingdi.obj
 0002:000b6c30       ?SetColorAdjustment@CDC@@QAEHPBUtagCOLORADJUSTMENT@@@Z 1013dc30 f   nafxcwd:wingdi.obj
 0002:000b6cb0       ?PolyBezierTo@CDC@@QAEHPBUtagPOINT@@H@Z 1013dcb0 f   nafxcwd:wingdi.obj
 0002:000b6d70       ?SelectClipPath@CDC@@QAEHH@Z 1013dd70 f   nafxcwd:wingdi.obj
 0002:000b6e50       ?SelectClipRgn@CDC@@QAEHPAVCRgn@@H@Z 1013de50 f   nafxcwd:wingdi.obj
 0002:000b6ee0       ?AfxEnumMetaFileProc@@YGHPAUHDC__@@PAUtagHANDLETABLE@@PAUtagMETARECORD@@HJ@Z 1013dee0 f   nafxcwd:wingdi.obj
 0002:000b7240       ?PlayMetaFile@CDC@@QAEHPAUHMETAFILE__@@@Z 1013e240 f   nafxcwd:wingdi.obj
 0002:000b7290       ?LPtoDP@CDC@@QBEXPAUtagSIZE@@@Z 1013e290 f   nafxcwd:wingdi.obj
 0002:000b7340       ?DPtoLP@CDC@@QBEXPAUtagSIZE@@@Z 1013e340 f   nafxcwd:wingdi.obj
 0002:000b73f0       ?AssertValid@CClientDC@@UBEXXZ 1013e3f0 f   nafxcwd:wingdi.obj
 0002:000b7440       ?Dump@CClientDC@@UBEXAAVCDumpContext@@@Z 1013e440 f   nafxcwd:wingdi.obj
 0002:000b7490       ??0CClientDC@@QAE@PAVCWnd@@@Z 1013e490 f   nafxcwd:wingdi.obj
 0002:000b7540       ??1CClientDC@@UAE@XZ       1013e540 f   nafxcwd:wingdi.obj
 0002:000b75c0       ?AssertValid@CWindowDC@@UBEXXZ 1013e5c0 f   nafxcwd:wingdi.obj
 0002:000b7610       ?Dump@CWindowDC@@UBEXAAVCDumpContext@@@Z 1013e610 f   nafxcwd:wingdi.obj
 0002:000b7660       ??0CWindowDC@@QAE@PAVCWnd@@@Z 1013e660 f   nafxcwd:wingdi.obj
 0002:000b7710       ??1CWindowDC@@UAE@XZ       1013e710 f   nafxcwd:wingdi.obj
 0002:000b7790       ?AssertValid@CPaintDC@@UBEXXZ 1013e790 f   nafxcwd:wingdi.obj
 0002:000b77d0       ?Dump@CPaintDC@@UBEXAAVCDumpContext@@@Z 1013e7d0 f   nafxcwd:wingdi.obj
 0002:000b7870       ??0CPaintDC@@QAE@PAVCWnd@@@Z 1013e870 f   nafxcwd:wingdi.obj
 0002:000b7930       ??1CPaintDC@@UAE@XZ        1013e930 f   nafxcwd:wingdi.obj
 0002:000b79e0       ?Dump@CGdiObject@@UBEXAAVCDumpContext@@@Z 1013e9e0 f   nafxcwd:wingdi.obj
 0002:000b7a30       ?AssertValid@CGdiObject@@UBEXXZ 1013ea30 f   nafxcwd:wingdi.obj
 0002:000b7a80       ?afxMapHGDIOBJ@@YGPAVCHandleMap@@H@Z 1013ea80 f   nafxcwd:wingdi.obj
 0002:000b7b50       ?FromHandle@CGdiObject@@SGPAV1@PAX@Z 1013eb50 f   nafxcwd:wingdi.obj
 0002:000b7bc0       ?Attach@CGdiObject@@QAEHPAX@Z 1013ebc0 f   nafxcwd:wingdi.obj
 0002:000b7c40       ?Detach@CGdiObject@@QAEPAXXZ 1013ec40 f   nafxcwd:wingdi.obj
 0002:000b7c90       ?DeleteObject@CGdiObject@@QAEHXZ 1013ec90 f   nafxcwd:wingdi.obj
 0002:000b7cc0       ??0CPen@@QAE@HHK@Z         1013ecc0 f   nafxcwd:wingdi.obj
 0002:000b7d40       ??0CPen@@QAE@HHPBUtagLOGBRUSH@@HPBK@Z 1013ed40 f   nafxcwd:wingdi.obj
 0002:000b7dc0       ?Dump@CPen@@UBEXAAVCDumpContext@@@Z 1013edc0 f   nafxcwd:wingdi.obj
 0002:000b7e90       ??0CBrush@@QAE@K@Z         1013ee90 f   nafxcwd:wingdi.obj
 0002:000b7f00       ??0CBrush@@QAE@HK@Z        1013ef00 f   nafxcwd:wingdi.obj
 0002:000b7f70       ??0CBrush@@QAE@PAVCBitmap@@@Z 1013ef70 f   nafxcwd:wingdi.obj
 0002:000b7ff0       ?CreateDIBPatternBrush@CBrush@@QAEHPAXI@Z 1013eff0 f   nafxcwd:wingdi.obj
 0002:000b8070       ?Dump@CBrush@@UBEXAAVCDumpContext@@@Z 1013f070 f   nafxcwd:wingdi.obj
 0002:000b8140       ?Dump@CFont@@UBEXAAVCDumpContext@@@Z 1013f140 f   nafxcwd:wingdi.obj
 0002:000b8340       ?Dump@CBitmap@@UBEXAAVCDumpContext@@@Z 1013f340 f   nafxcwd:wingdi.obj
 0002:000b8460       ?AfxThrowResourceException@@YGXXZ 1013f460 f   nafxcwd:wingdi.obj
 0002:000b8480       ?AfxThrowUserException@@YGXXZ 1013f480 f   nafxcwd:wingdi.obj
 0002:000b84a0       ?AfxGetGrayBitmap@@YGXABVCBitmap@@PAV1@K@Z 1013f4a0 f   nafxcwd:wingdi.obj
 0002:000b87e0       ?AfxDrawGrayBitmap@@YGXPAVCDC@@HHABVCBitmap@@K@Z 1013f7e0 f   nafxcwd:wingdi.obj
 0002:000b8af0       ?AfxGetDitheredBitmap@@YGXABVCBitmap@@PAV1@KK@Z 1013faf0 f   nafxcwd:wingdi.obj
 0002:000b8eb0       ?AfxDrawDitheredBitmap@@YGXPAVCDC@@HHABVCBitmap@@KK@Z 1013feb0 f   nafxcwd:wingdi.obj
 0002:000ba3a0       ??_ECDC@@UAEPAXI@Z         101413a0 f i nafxcwd:wingdi.obj
 0002:000ba3a0       ??_GCDC@@UAEPAXI@Z         101413a0 f i nafxcwd:wingdi.obj
 0002:000ba3e0       ??_GCClientDC@@UAEPAXI@Z   101413e0 f i nafxcwd:wingdi.obj
 0002:000ba3e0       ??_ECClientDC@@UAEPAXI@Z   101413e0 f i nafxcwd:wingdi.obj
 0002:000ba420       ??_GCWindowDC@@UAEPAXI@Z   10141420 f i nafxcwd:wingdi.obj
 0002:000ba420       ??_ECWindowDC@@UAEPAXI@Z   10141420 f i nafxcwd:wingdi.obj
 0002:000ba460       ??_GCPaintDC@@UAEPAXI@Z    10141460 f i nafxcwd:wingdi.obj
 0002:000ba460       ??_ECPaintDC@@UAEPAXI@Z    10141460 f i nafxcwd:wingdi.obj
 0002:000ba4a0       ?OnAppExit@CWinApp@@IAEXXZ 101414a0 f   nafxcwd:appui.obj
 0002:000ba4f0       ?GetOpenDocumentCount@CWinApp@@QAEHXZ 101414f0 f   nafxcwd:appui2.obj
 0002:000ba540       ?AfxCustomLogFont@@YGHIPAUtagLOGFONTA@@@Z 10141540 f   nafxcwd:winutil.obj
 0002:000ba620       ?_AfxIsComboBoxControl@@YGHPAUHWND__@@I@Z 10141620 f   nafxcwd:winutil.obj
 0002:000ba690       ?_AfxCompareClassName@@YGHPAUHWND__@@PBD@Z 10141690 f   nafxcwd:winutil.obj
 0002:000ba6f0       ?_AfxChildWindowFromPoint@@YGPAUHWND__@@PAU1@UtagPOINT@@@Z 101416f0 f   nafxcwd:winutil.obj
 0002:000ba7b0       ?AfxSetWindowText@@YGXPAUHWND__@@PBD@Z 101417b0 f   nafxcwd:winutil.obj
 0002:000ba830       ?AfxDeleteObject@@YGXPAPAX@Z 10141830 f   nafxcwd:winutil.obj
 0002:000ba870       ?AfxCancelModes@@YGXPAUHWND__@@@Z 10141870 f   nafxcwd:winutil.obj
 0002:000ba920       ?AfxGlobalFree@@YGXPAX@Z   10141920 f   nafxcwd:winutil.obj
 0002:000ba990       ?AfxCriticalNewHandler@@YAHI@Z 10141990 f   nafxcwd:winutil.obj
 0002:000bac70       ?GetErrorMessage@CArchiveException@@UAEHPADIPAI@Z 10141c70 f   nafxcwd:arcex.obj
 0002:000badd0       ?Dump@CArchiveException@@UBEXAAVCDumpContext@@@Z 10141dd0 f   nafxcwd:arcex.obj
 0002:000bae40       ?AfxThrowArchiveException@@YGXHPBD@Z 10141e40 f   nafxcwd:arcex.obj
 0002:000bafc0       ?AfxReadStringLength@@YGIAAVCArchive@@AAH@Z 10141fc0 f   nafxcwd:arccore.obj
 0002:000bb090       ?AfxWriteStringLength@@YGXAAVCArchive@@IH@Z 10142090 f   nafxcwd:arccore.obj
 0002:000bb160       ?CreateObject@CRuntimeClass@@SGPAVCObject@@PBD@Z 10142160 f   nafxcwd:arccore.obj
 0002:000bb1d0       ?CreateObject@CRuntimeClass@@SGPAVCObject@@PB_W@Z 101421d0 f   nafxcwd:arccore.obj
 0002:000bb260       ?FromName@CRuntimeClass@@SGPAU1@PBD@Z 10142260 f   nafxcwd:arccore.obj
 0002:000bb2d0       ?FromName@CRuntimeClass@@SGPAU1@PB_W@Z 101422d0 f   nafxcwd:arccore.obj
 0002:000bb400       ?Load@CRuntimeClass@@SGPAU1@AAVCArchive@@PAI@Z 10142400 f   nafxcwd:arccore.obj
 0002:000bb4c0       ?Store@CRuntimeClass@@QBEXAAVCArchive@@@Z 101424c0 f   nafxcwd:arccore.obj
 0002:000bb510       ??0CArchive@@QAE@PAVCFile@@IHPAX@Z 10142510 f   nafxcwd:arccore.obj
 0002:000bb7b0       ??1CArchive@@QAE@XZ        101427b0 f   nafxcwd:arccore.obj
 0002:000bb820       ?Abort@CArchive@@QAEXXZ    10142820 f   nafxcwd:arccore.obj
 0002:000bb9b0       ?Close@CArchive@@QAEXXZ    101429b0 f   nafxcwd:arccore.obj
 0002:000bb9f0       ?Read@CArchive@@QAEIPAXI@Z 101429f0 f   nafxcwd:arccore.obj
 0002:000bbe40       ?Write@CArchive@@QAEXPBXI@Z 10142e40 f   nafxcwd:arccore.obj
 0002:000bc160       ?Flush@CArchive@@QAEXXZ    10143160 f   nafxcwd:arccore.obj
 0002:000bc3a0       ?FillBuffer@CArchive@@QAEXI@Z 101433a0 f   nafxcwd:arccore.obj
 0002:000bc700       ?WriteCount@CArchive@@QAEXK@Z 10143700 f   nafxcwd:arccore.obj
 0002:000bc740       ?ReadCount@CArchive@@QAEKXZ 10143740 f   nafxcwd:arccore.obj
 0002:000bc780       ?WriteString@CArchive@@QAEXPBD@Z 10143780 f   nafxcwd:arccore.obj
 0002:000bc7d0       ?ReadString@CArchive@@QAEPADPADI@Z 101437d0 f   nafxcwd:arccore.obj
 0002:000bc960       ?ReadString@CArchive@@QAEHAAV?$CStringT@DV?$StrTraitMFC@DV?$ChTraitsCRT@D@ATL@@@@@ATL@@@Z 10143960 f   nafxcwd:arccore.obj
 0002:000bd0f0       ?CheckCount@CArchive@@QAEXXZ 101440f0 f   nafxcwd:arcobj.obj
 0002:000bd120       ?WriteObject@CArchive@@QAEXPBVCObject@@@Z 10144120 f   nafxcwd:arcobj.obj
 0002:000bd230       ?ReadObject@CArchive@@QAEPAVCObject@@PBUCRuntimeClass@@@Z 10144230 f   nafxcwd:arcobj.obj
 0002:000bd3c0       ?GetObjectSchema@CArchive@@QAEIXZ 101443c0 f   nafxcwd:arcobj.obj
 0002:000bd3f0       ?MapObject@CArchive@@QAEXPBVCObject@@@Z 101443f0 f   nafxcwd:arcobj.obj
 0002:000bd5b0       ?WriteClass@CArchive@@QAEXPBUCRuntimeClass@@@Z 101445b0 f   nafxcwd:arcobj.obj
 0002:000bd720       ?ReadClass@CArchive@@QAEPAUCRuntimeClass@@PBU2@PAIPAK@Z 10144720 f   nafxcwd:arcobj.obj
 0002:000bdab0       ?SerializeClass@CArchive@@QAEXPBUCRuntimeClass@@@Z 10144ab0 f   nafxcwd:arcobj.obj
 0002:000bdd70       ??0CDocTemplate@@IAE@IPAUCRuntimeClass@@00@Z 10144d70 f   nafxcwd:doctempl.obj
 0002:000bdfe0       ?LoadTemplate@CDocTemplate@@UAEXXZ 10144fe0 f   nafxcwd:doctempl.obj
 0002:000be130       ?SetServerInfo@CDocTemplate@@QAEXIIPAUCRuntimeClass@@0@Z 10145130 f   nafxcwd:doctempl.obj
 0002:000be210       ?SetContainerInfo@CDocTemplate@@QAEXI@Z 10145210 f   nafxcwd:doctempl.obj
 0002:000be260       ??1CDocTemplate@@UAE@XZ    10145260 f   nafxcwd:doctempl.obj
 0002:000be310       ?GetDocString@CDocTemplate@@UBEHAAV?$CStringT@DV?$StrTraitMFC@DV?$ChTraitsCRT@D@ATL@@@@@ATL@@W4DocStringIndex@1@@Z 10145310 f   nafxcwd:doctempl.obj
 0002:000be340       ?AddDocument@CDocTemplate@@UAEXPAVCDocument@@@Z 10145340 f   nafxcwd:doctempl.obj
 0002:000be390       ?RemoveDocument@CDocTemplate@@UAEXPAVCDocument@@@Z 10145390 f   nafxcwd:doctempl.obj
 0002:000be3e0       ?MatchDocType@CDocTemplate@@UAE?AW4Confidence@1@PBDAAPAVCDocument@@@Z 101453e0 f   nafxcwd:doctempl.obj
 0002:000be540       ?CreateNewDocument@CDocTemplate@@UAEPAVCDocument@@XZ 10145540 f   nafxcwd:doctempl.obj
 0002:000be630       ?CreateNewFrame@CDocTemplate@@UAEPAVCFrameWnd@@PAVCDocument@@PAV2@@Z 10145630 f   nafxcwd:doctempl.obj
 0002:000be7f0       ?CreateOleFrame@CDocTemplate@@QAEPAVCFrameWnd@@PAVCWnd@@PAVCDocument@@H@Z 101457f0 f   nafxcwd:doctempl.obj
 0002:000be940       ?InitialUpdateFrame@CDocTemplate@@UAEXPAVCFrameWnd@@PAVCDocument@@H@Z 10145940 f   nafxcwd:doctempl.obj
 0002:000be960       ?SaveAllModified@CDocTemplate@@UAEHXZ 10145960 f   nafxcwd:doctempl.obj
 0002:000be9b0       ?CloseAllDocuments@CDocTemplate@@UAEXH@Z 101459b0 f   nafxcwd:doctempl.obj
 0002:000bea00       ?OnIdle@CDocTemplate@@UAEXXZ 10145a00 f   nafxcwd:doctempl.obj
 0002:000bea80       ?OnCmdMsg@CDocTemplate@@UAEHIHPAXPAUAFX_CMDHANDLERINFO@@@Z 10145a80 f   nafxcwd:doctempl.obj
 0002:000beaf0       ?Dump@CDocTemplate@@UBEXAAVCDumpContext@@@Z 10145af0 f   nafxcwd:doctempl.obj
 0002:000bebf0       ?AssertValid@CDocTemplate@@UBEXXZ 10145bf0 f   nafxcwd:doctempl.obj
 0002:000bf000       ?OpenDocumentFile@CDocManager@@UAEPAVCDocument@@PBD@Z 10146000 f   nafxcwd:docmgr.obj
 0002:000bf3b0       ?GetOpenDocumentCount@CDocManager@@UAEHXZ 101463b0 f   nafxcwd:docmgr.obj
 0002:000bf530       ?GetMessageMap@CDocument@@MBEPBUAFX_MSGMAP@@XZ 10146530 f   nafxcwd:doccore.obj
 0002:000bf540       ??0CDocument@@QAE@XZ       10146540 f   nafxcwd:doccore.obj
 0002:000bf610       ??1CDocument@@UAE@XZ       10146610 f   nafxcwd:doccore.obj
 0002:000bf720       ?OnFinalRelease@CDocument@@UAEXXZ 10146720 f   nafxcwd:doccore.obj
 0002:000bf750       ?DisconnectViews@CDocument@@QAEXXZ 10146750 f   nafxcwd:doccore.obj
 0002:000bf7c0       ?SetTitle@CDocument@@UAEXPBD@Z 101467c0 f   nafxcwd:doccore.obj
 0002:000bf7f0       ?DeleteContents@CDocument@@UAEXXZ 101467f0 f   nafxcwd:doccore.obj
 0002:000bf800       ?OnChangedViewList@CDocument@@UAEXXZ 10146800 f   nafxcwd:doccore.obj
 0002:000bf850       ?UpdateFrameCounts@CDocument@@UAEXXZ 10146850 f   nafxcwd:doccore.obj
 0002:000bfa90       ?CanCloseFrame@CDocument@@UAEHPAVCFrameWnd@@@Z 10146a90 f   nafxcwd:doccore.obj
 0002:000bfb30       ?PreCloseFrame@CDocument@@UAEXPAVCFrameWnd@@@Z 10146b30 f   nafxcwd:doccore.obj
 0002:000bfb40       ?SetPathName@CDocument@@UAEXPBDH@Z 10146b40 f   nafxcwd:doccore.obj
 0002:000bfcb0       ?OnFileClose@CDocument@@IAEXXZ 10146cb0 f   nafxcwd:doccore.obj
 0002:000bfce0       ?OnFileSave@CDocument@@IAEXXZ 10146ce0 f   nafxcwd:doccore.obj
 0002:000bfd00       ?OnFileSaveAs@CDocument@@IAEXXZ 10146d00 f   nafxcwd:doccore.obj
 0002:000bfd50       ?DoFileSave@CDocument@@UAEHXZ 10146d50 f   nafxcwd:doccore.obj
 0002:000bfe20       ?DoSave@CDocument@@UAEHPBDH@Z 10146e20 f   nafxcwd:doccore.obj
 0002:000c0110       ?SaveModified@CDocument@@UAEHXZ 10147110 f   nafxcwd:doccore.obj
 0002:000c02f0       ?GetDefaultMenu@CDocument@@UAEPAUHMENU__@@XZ 101472f0 f   nafxcwd:doccore.obj
 0002:000c0300       ?GetDefaultAccelerator@CDocument@@UAEPAUHACCEL__@@XZ 10147300 f   nafxcwd:doccore.obj
 0002:000c0310       ?ReportSaveLoadException@CDocument@@UAEXPBDPAVCException@@HI@Z 10147310 f   nafxcwd:doccore.obj
 0002:000c0590       ?Open@CMirrorFile@@UAEHPBDIPAVCFileException@@@Z 10147590 f   nafxcwd:doccore.obj
 0002:000c0910       ?Abort@CMirrorFile@@UAEXXZ 10147910 f   nafxcwd:doccore.obj
 0002:000c0950       ?Close@CMirrorFile@@UAEXXZ 10147950 f   nafxcwd:doccore.obj
 0002:000c0a50       ?GetFile@CDocument@@UAEPAVCFile@@PBDIPAVCFileException@@@Z 10147a50 f   nafxcwd:doccore.obj
 0002:000c0b30       ?ReleaseFile@CDocument@@UAEXPAVCFile@@H@Z 10147b30 f   nafxcwd:doccore.obj
 0002:000c0bb0       ?OnNewDocument@CDocument@@UAEHXZ 10147bb0 f   nafxcwd:doccore.obj
 0002:000c0c30       ?OnOpenDocument@CDocument@@UAEHPBD@Z 10147c30 f   nafxcwd:doccore.obj
 0002:000c0f50       ?OnSaveDocument@CDocument@@UAEHPBD@Z 10147f50 f   nafxcwd:doccore.obj
 0002:000c11e0       ?OnCloseDocument@CDocument@@UAEXXZ 101481e0 f   nafxcwd:doccore.obj
 0002:000c12c0       ?OnIdle@CDocument@@UAEXXZ  101482c0 f   nafxcwd:doccore.obj
 0002:000c12d0       ?AddView@CDocument@@QAEXPAVCView@@@Z 101482d0 f   nafxcwd:doccore.obj
 0002:000c1380       ?RemoveView@CDocument@@QAEXPAVCView@@@Z 10148380 f   nafxcwd:doccore.obj
 0002:000c1400       ?GetFirstViewPosition@CDocument@@UBEPAU__POSITION@@XZ 10148400 f   nafxcwd:doccore.obj
 0002:000c1420       ?GetNextView@CDocument@@UBEPAVCView@@AAPAU__POSITION@@@Z 10148420 f   nafxcwd:doccore.obj
 0002:000c14a0       ?UpdateAllViews@CDocument@@QAEXPAVCView@@JPAVCObject@@@Z 101484a0 f   nafxcwd:doccore.obj
 0002:000c1540       ?SendInitialUpdate@CDocument@@QAEXXZ 10148540 f   nafxcwd:doccore.obj
 0002:000c15a0       ?OnCmdMsg@CDocument@@UAEHIHPAXPAUAFX_CMDHANDLERINFO@@@Z 101485a0 f   nafxcwd:doccore.obj
 0002:000c1610       ?Dump@CDocument@@UBEXAAVCDumpContext@@@Z 10148610 f   nafxcwd:doccore.obj
 0002:000c16f0       ?AssertValid@CDocument@@UBEXXZ 101486f0 f   nafxcwd:doccore.obj
 0002:000c1fd0       ??0CFileStatus@@QAE@XZ     10148fd0 f i nafxcwd:doccore.obj
 0002:000c2010       ??0CMirrorFile@@QAE@XZ     10149010 f i nafxcwd:doccore.obj
 0002:000c2050       ??_ECMirrorFile@@UAEPAXI@Z 10149050 f i nafxcwd:doccore.obj
 0002:000c2050       ??_GCMirrorFile@@UAEPAXI@Z 10149050 f i nafxcwd:doccore.obj
 0002:000c2090       ??1CMirrorFile@@UAE@XZ     10149090 f i nafxcwd:doccore.obj
 0002:000c20c0       ?GetMessageMap@CView@@MBEPBUAFX_MSGMAP@@XZ 101490c0 f   nafxcwd:viewcore.obj
 0002:000c20d0       ??0CView@@IAE@XZ           101490d0 f   nafxcwd:viewcore.obj
 0002:000c2100       ??1CView@@UAE@XZ           10149100 f   nafxcwd:viewcore.obj
 0002:000c2190       ?PreCreateWindow@CView@@MAEHAAUtagCREATESTRUCTA@@@Z 10149190 f   nafxcwd:viewcore.obj
 0002:000c2220       ?OnCreate@CView@@IAEHPAUtagCREATESTRUCTA@@@Z 10149220 f   nafxcwd:viewcore.obj
 0002:000c22d0       ?OnDestroy@CView@@IAEXXZ   101492d0 f   nafxcwd:viewcore.obj
 0002:000c2310       ?PostNcDestroy@CView@@MAEXXZ 10149310 f   nafxcwd:viewcore.obj
 0002:000c2350       ?CalcWindowRect@CView@@UAEXPAUtagRECT@@I@Z 10149350 f   nafxcwd:viewcore.obj
 0002:000c2410       ?OnCmdMsg@CView@@UAEHIHPAXPAUAFX_CMDHANDLERINFO@@@Z 10149410 f   nafxcwd:viewcore.obj
 0002:000c24c0       ?OnPaint@CView@@IAEXXZ     101494c0 f   nafxcwd:viewcore.obj
 0002:000c2550       ?OnInitialUpdate@CView@@UAEXXZ 10149550 f   nafxcwd:viewcore.obj
 0002:000c2570       ?OnUpdate@CView@@MAEXPAV1@JPAVCObject@@@Z 10149570 f   nafxcwd:viewcore.obj
 0002:000c25b0       ?OnPrint@CView@@MAEXPAVCDC@@PAUCPrintInfo@@@Z 101495b0 f   nafxcwd:viewcore.obj
 0002:000c25f0       ?OnDraw@CView@@MAEXPAVCDC@@@Z 101495f0 f   nafxcwd:viewcore.obj
 0002:000c2600       ?IsSelected@CView@@UBEHPBVCObject@@@Z 10149600 f   nafxcwd:viewcore.obj
 0002:000c2630       ?OnActivateView@CView@@MAEXHPAV1@0@Z 10149630 f   nafxcwd:viewcore.obj
 0002:000c2680       ?OnActivateFrame@CView@@MAEXIPAVCFrameWnd@@@Z 10149680 f   nafxcwd:viewcore.obj
 0002:000c2690       ?OnMouseActivate@CView@@IAEHPAVCWnd@@II@Z 10149690 f   nafxcwd:viewcore.obj
 0002:000c2780       ?OnScroll@CView@@UAEHIIH@Z 10149780 f   nafxcwd:viewcore.obj
 0002:000c2790       ?OnScrollBy@CView@@UAEHVCSize@@H@Z 10149790 f   nafxcwd:viewcore.obj
 0002:000c27a0       ?OnDragScroll@CView@@UAEKKVCPoint@@@Z 101497a0 f   nafxcwd:viewcore.obj
 0002:000c27c0       ?OnDragEnter@CView@@UAEKPAVCOleDataObject@@KVCPoint@@@Z 101497c0 f   nafxcwd:viewcore.obj
 0002:000c27d0       ?OnDragOver@CView@@UAEKPAVCOleDataObject@@KVCPoint@@@Z 101497d0 f   nafxcwd:viewcore.obj
 0002:000c27e0       ?OnDrop@CView@@UAEHPAVCOleDataObject@@KVCPoint@@@Z 101497e0 f   nafxcwd:viewcore.obj
 0002:000c27f0       ?OnDropEx@CView@@UAEKPAVCOleDataObject@@KKVCPoint@@@Z 101497f0 f   nafxcwd:viewcore.obj
 0002:000c2800       ?OnDragLeave@CView@@UAEXXZ 10149800 f   nafxcwd:viewcore.obj
 0002:000c2810       ?GetParentSplitter@CView@@SGPAVCSplitterWnd@@PBVCWnd@@H@Z 10149810 f   nafxcwd:viewcore.obj
 0002:000c2870       ?GetScrollBarCtrl@CView@@UBEPAVCScrollBar@@H@Z 10149870 f   nafxcwd:viewcore.obj
 0002:000c2950       ?OnUpdateSplitCmd@CView@@IAEXPAVCCmdUI@@@Z 10149950 f   nafxcwd:viewcore.obj
 0002:000c29a0       ?OnSplitCmd@CView@@IAEHI@Z 101499a0 f   nafxcwd:viewcore.obj
 0002:000c2a00       ?OnUpdateNextPaneMenu@CView@@IAEXPAVCCmdUI@@@Z 10149a00 f   nafxcwd:viewcore.obj
 0002:000c2a90       ?OnNextPaneCmd@CView@@IAEHI@Z 10149a90 f   nafxcwd:viewcore.obj
 0002:000c2b00       ?OnPrepareDC@CView@@UAEXPAVCDC@@PAUCPrintInfo@@@Z 10149b00 f   nafxcwd:viewcore.obj
 0002:000c2b60       ?OnPreparePrinting@CView@@MAEHPAUCPrintInfo@@@Z 10149b60 f   nafxcwd:viewcore.obj
 0002:000c2b80       ?OnBeginPrinting@CView@@MAEXPAVCDC@@PAUCPrintInfo@@@Z 10149b80 f   nafxcwd:viewcore.obj
 0002:000c2ba0       ?OnEndPrinting@CView@@MAEXPAVCDC@@PAUCPrintInfo@@@Z 10149ba0 f   nafxcwd:viewcore.obj
 0002:000c2bc0       ?OnEndPrintPreview@CView@@MAEXPAVCDC@@PAUCPrintInfo@@UtagPOINT@@PAVCPreviewView@@@Z 10149bc0 f   nafxcwd:viewcore.obj
 0002:000c2d00       ?Dump@CView@@UBEXAAVCDumpContext@@@Z 10149d00 f   nafxcwd:viewcore.obj
 0002:000c2d50       ?AssertValid@CView@@UBEXXZ 10149d50 f   nafxcwd:viewcore.obj
 0002:000c2d70       ?GetMessageMap@CCtrlView@@MBEPBUAFX_MSGMAP@@XZ 10149d70 f   nafxcwd:viewcore.obj
 0002:000c2d80       ??1CCtrlView@@UAE@XZ       10149d80 f   nafxcwd:viewcore.obj
 0002:000c2db0       ??0CCtrlView@@QAE@PBDK@Z   10149db0 f   nafxcwd:viewcore.obj
 0002:000c2e30       ?PreCreateWindow@CCtrlView@@MAEHAAUtagCREATESTRUCTA@@@Z 10149e30 f   nafxcwd:viewcore.obj
 0002:000c2ed0       ?OnDraw@CCtrlView@@MAEXPAVCDC@@@Z 10149ed0 f   nafxcwd:viewcore.obj
 0002:000c2f00       ?OnPaint@CCtrlView@@IAEXXZ 10149f00 f   nafxcwd:viewcore.obj
 0002:000c2f20       ?Dump@CCtrlView@@UBEXAAVCDumpContext@@@Z 10149f20 f   nafxcwd:viewcore.obj
 0002:000c2f70       ?AssertValid@CCtrlView@@UBEXXZ 10149f70 f   nafxcwd:viewcore.obj
 0002:000c43a0       ?PrepareEditCtrl@CDataExchange@@QAEPAUHWND__@@H@Z 1014b3a0 f   nafxcwd:dlgdata.obj
 0002:000c43d0       ?PrepareCtrl@CDataExchange@@QAEPAUHWND__@@H@Z 1014b3d0 f   nafxcwd:dlgdata.obj
 0002:000c44b0       ?Fail@CDataExchange@@QAEXXZ 1014b4b0 f   nafxcwd:dlgdata.obj
 0002:000c4570       ?_Afx_DDX_TextWithFormat@@YAXPAVCDataExchange@@HPBDIZZ 1014b570 f   nafxcwd:dlgdata.obj
 0002:000c4640       ?DDX_Text@@YGXPAVCDataExchange@@HAAE@Z 1014b640 f   nafxcwd:dlgdata.obj
 0002:000c46c0       ?DDX_Text@@YGXPAVCDataExchange@@HAAF@Z 1014b6c0 f   nafxcwd:dlgdata.obj
 0002:000c4710       ?DDX_Text@@YGXPAVCDataExchange@@HAAH@Z 1014b710 f   nafxcwd:dlgdata.obj
 0002:000c4760       ?DDX_Text@@YGXPAVCDataExchange@@HAAI@Z 1014b760 f   nafxcwd:dlgdata.obj
 0002:000c47b0       ?DDX_Text@@YGXPAVCDataExchange@@HAAJ@Z 1014b7b0 f   nafxcwd:dlgdata.obj
 0002:000c4800       ?DDX_Text@@YGXPAVCDataExchange@@HAAK@Z 1014b800 f   nafxcwd:dlgdata.obj
 0002:000c4850       ?DDX_Text@@YGXPAVCDataExchange@@HAA_J@Z 1014b850 f   nafxcwd:dlgdata.obj
 0002:000c48b0       ?DDX_Text@@YGXPAVCDataExchange@@HAA_K@Z 1014b8b0 f   nafxcwd:dlgdata.obj
 0002:000c4910       ?DDX_Text@@YGXPAVCDataExchange@@HAAV?$CStringT@DV?$StrTraitMFC@DV?$ChTraitsCRT@D@ATL@@@@@ATL@@@Z 1014b910 f   nafxcwd:dlgdata.obj
 0002:000c4980       ?DDX_Text@@YGXPAVCDataExchange@@HPADH@Z 1014b980 f   nafxcwd:dlgdata.obj
 0002:000c4a30       ?DDX_Check@@YGXPAVCDataExchange@@HAAH@Z 1014ba30 f   nafxcwd:dlgdata.obj
 0002:000c4b10       ?DDX_Radio@@YGXPAVCDataExchange@@HAAH@Z 1014bb10 f   nafxcwd:dlgdata.obj
 0002:000c4c90       ?DDX_LBString@@YGXPAVCDataExchange@@HAAV?$CStringT@DV?$StrTraitMFC@DV?$ChTraitsCRT@D@ATL@@@@@ATL@@@Z 1014bc90 f   nafxcwd:dlgdata.obj
 0002:000c4d80       ?DDX_LBStringExact@@YGXPAVCDataExchange@@HAAV?$CStringT@DV?$StrTraitMFC@DV?$ChTraitsCRT@D@ATL@@@@@ATL@@@Z 1014bd80 f   nafxcwd:dlgdata.obj
 0002:000c4e30       ?DDX_CBString@@YGXPAVCDataExchange@@HAAV?$CStringT@DV?$StrTraitMFC@DV?$ChTraitsCRT@D@ATL@@@@@ATL@@@Z 1014be30 f   nafxcwd:dlgdata.obj
 0002:000c4ef0       ?DDX_CBStringExact@@YGXPAVCDataExchange@@HAAV?$CStringT@DV?$StrTraitMFC@DV?$ChTraitsCRT@D@ATL@@@@@ATL@@@Z 1014bef0 f   nafxcwd:dlgdata.obj
 0002:000c4f90       ?DDX_LBIndex@@YGXPAVCDataExchange@@HAAH@Z 1014bf90 f   nafxcwd:dlgdata.obj
 0002:000c5000       ?DDX_CBIndex@@YGXPAVCDataExchange@@HAAH@Z 1014c000 f   nafxcwd:dlgdata.obj
 0002:000c5070       ?DDX_Scroll@@YGXPAVCDataExchange@@HAAH@Z 1014c070 f   nafxcwd:dlgdata.obj
 0002:000c50d0       ?DDX_Slider@@YGXPAVCDataExchange@@HAAH@Z 1014c0d0 f   nafxcwd:dlgdata.obj
 0002:000c5140       ?DDX_IPAddress@@YGXPAVCDataExchange@@HAAK@Z 1014c140 f   nafxcwd:dlgdata.obj
 0002:000c51a0       ?_AfxFailMinMaxWithFormat@@YGXPAVCDataExchange@@_J1PBDI@Z 1014c1a0 f   nafxcwd:dlgdata.obj
 0002:000c52e0       ?DDV_MinMaxByte@@YGXPAVCDataExchange@@EEE@Z 1014c2e0 f   nafxcwd:dlgdata.obj
 0002:000c5340       ?DDV_MinMaxShort@@YGXPAVCDataExchange@@FFF@Z 1014c340 f   nafxcwd:dlgdata.obj
 0002:000c53a0       ?DDV_MinMaxInt@@YGXPAVCDataExchange@@HHH@Z 1014c3a0 f   nafxcwd:dlgdata.obj
 0002:000c5400       ?DDV_MinMaxLong@@YGXPAVCDataExchange@@JJJ@Z 1014c400 f   nafxcwd:dlgdata.obj
 0002:000c5460       ?DDV_MinMaxUInt@@YGXPAVCDataExchange@@III@Z 1014c460 f   nafxcwd:dlgdata.obj
 0002:000c54c0       ?DDV_MinMaxDWord@@YGXPAVCDataExchange@@KKK@Z 1014c4c0 f   nafxcwd:dlgdata.obj
 0002:000c5520       ?DDV_MinMaxLongLong@@YGXPAVCDataExchange@@_J11@Z 1014c520 f   nafxcwd:dlgdata.obj
 0002:000c55a0       ?DDV_MinMaxULongLong@@YGXPAVCDataExchange@@_K11@Z 1014c5a0 f   nafxcwd:dlgdata.obj
 0002:000c5620       ?DDV_MinMaxSlider@@YGXPAVCDataExchange@@KKK@Z 1014c620 f   nafxcwd:dlgdata.obj
 0002:000c56e0       ?DDV_MaxChars@@YGXPAVCDataExchange@@ABV?$CStringT@DV?$StrTraitMFC@DV?$ChTraitsCRT@D@ATL@@@@@ATL@@H@Z 1014c6e0 f   nafxcwd:dlgdata.obj
 0002:000c5800       ?DDX_Control@@YGXPAVCDataExchange@@HAAVCWnd@@@Z 1014c800 f   nafxcwd:dlgdata.obj
 0002:000c58f0       ?AfxFailMaxChars@@YGXPAVCDataExchange@@H@Z 1014c8f0 f   nafxcwd:dlgdata.obj
 0002:000c59a0       ?AfxFailRadio@@YGXPAVCDataExchange@@@Z 1014c9a0 f   nafxcwd:dlgdata.obj
 0002:000c5fc0       ?EnableModeless@CWinApp@@QAEXH@Z 1014cfc0 f   nafxcwd:appui1.obj
 0002:000c6040       ?DoMessageBox@CWinApp@@UAEHPBDII@Z 1014d040 f   nafxcwd:appui1.obj
 0002:000c6290       ?AfxMessageBox@@YGHPBDII@Z 1014d290 f   nafxcwd:appui1.obj
 0002:000c62e0       ?AfxMessageBox@@YGHIII@Z   1014d2e0 f   nafxcwd:appui1.obj
 0002:000c63b0       ?GetSafeOwner_@CWnd@@SGPAUHWND__@@PAU2@PAPAU2@@Z 1014d3b0 f   nafxcwd:appui1.obj
 0002:000c64a0       ?GetRoutingView_@CCmdTarget@@KGPAVCView@@XZ 1014d4a0 f   nafxcwd:appui1.obj
 0002:000c64c0       ?GetRoutingFrame_@CCmdTarget@@KGPAVCFrameWnd@@XZ 1014d4c0 f   nafxcwd:appui1.obj
 0002:000c6620       ?HideApplication@CWinApp@@QAEXXZ 1014d620 f   nafxcwd:appui.obj
 0002:000c6680       ?DoWaitCursor@CWinApp@@UAEXH@Z 1014d680 f   nafxcwd:appui.obj
 0002:000c6740       ?SaveAllModified@CWinApp@@UAEHXZ 1014d740 f   nafxcwd:appui.obj
 0002:000c6770       ?AddToRecentFileList@CWinApp@@UAEXPBD@Z 1014d770 f   nafxcwd:appui.obj
 0002:000c67f0       ?OpenDocumentFile@CWinApp@@UAEPAVCDocument@@PBD@Z 1014d7f0 f   nafxcwd:appui.obj
 0002:000c6830       ?CloseAllDocuments@CWinApp@@QAEXH@Z 1014d830 f   nafxcwd:appui.obj
 0002:000c6860       ?OnUpdateRecentFileMenu@CWinApp@@IAEXPAVCCmdUI@@@Z 1014d860 f   nafxcwd:appui.obj
 0002:000c68c0       ?OnDDECommand@CWinApp@@UAEHPAD@Z 1014d8c0 f   nafxcwd:appui.obj
 0002:000c68f0       ?OnOpenRecentFile@CWinApp@@IAEHI@Z 1014d8f0 f   nafxcwd:appui.obj
 0002:000c6b60       ?AddDocTemplate@CWinApp@@QAEXPAVCDocTemplate@@@Z 1014db60 f   nafxcwd:appui2.obj
 0002:000c6bf0       ?GetFirstDocTemplatePosition@CWinApp@@QBEPAU__POSITION@@XZ 1014dbf0 f   nafxcwd:appui2.obj
 0002:000c6c20       ?GetNextDocTemplate@CWinApp@@QBEPAVCDocTemplate@@AAPAU__POSITION@@@Z 1014dc20 f   nafxcwd:appui2.obj
 0002:000c6cb0       ?GetMessageMap@CControlBar@@MBEPBUAFX_MSGMAP@@XZ 1014dcb0 f   nafxcwd:barcore.obj
 0002:000c6cc0       ??1CControlBar@@UAE@XZ     1014dcc0 f   nafxcwd:barcore.obj
 0002:000c6df0       ?PostNcDestroy@CControlBar@@UAEXXZ 1014ddf0 f   nafxcwd:barcore.obj
 0002:000c6e40       ?CalcFixedLayout@CControlBar@@UAE?AVCSize@@HH@Z 1014de40 f   nafxcwd:barcore.obj
 0002:000c6eb0       ?CalcDynamicLayout@CControlBar@@UAE?AVCSize@@HK@Z 1014deb0 f   nafxcwd:barcore.obj
 0002:000c6ee0       ?IsDockBar@CControlBar@@UBEHXZ 1014dee0 f   nafxcwd:barcore.obj
 0002:000c6ef0       ?ResetTimer@CControlBar@@QAEXII@Z 1014def0 f   nafxcwd:barcore.obj
 0002:000c6f50       ?OnTimer@CControlBar@@QAEXI@Z 1014df50 f   nafxcwd:barcore.obj
 0002:000c7100       ?SetStatusText@CControlBar@@UAEHH@Z 1014e100 f   nafxcwd:barcore.obj
 0002:000c71e0       ?PreTranslateMessage@CControlBar@@UAEHPAUtagMSG@@@Z 1014e1e0 f   nafxcwd:barcore.obj
 0002:000c7480       ?WindowProc@CControlBar@@UAEJIIJ@Z 1014e480 f   nafxcwd:barcore.obj
 0002:000c7720       ?OnHelpHitTest@CControlBar@@QAEJIJ@Z 1014e720 f   nafxcwd:barcore.obj
 0002:000c77a0       ?OnWindowPosChanging@CControlBar@@QAEXPAUtagWINDOWPOS@@@Z 1014e7a0 f   nafxcwd:barcore.obj
 0002:000c78e0       ?OnCreate@CControlBar@@QAEHPAUtagCREATESTRUCTA@@@Z 1014e8e0 f   nafxcwd:barcore.obj
 0002:000c7960       ?OnDestroy@CControlBar@@QAEXXZ 1014e960 f   nafxcwd:barcore.obj
 0002:000c79e0       ?DestroyWindow@CControlBar@@UAEHXZ 1014e9e0 f   nafxcwd:barcore.obj
 0002:000c7a30       ?OnMouseActivate@CControlBar@@QAEHPAVCWnd@@II@Z 1014ea30 f   nafxcwd:barcore.obj
 0002:000c7a70       ?OnPaint@CControlBar@@QAEXXZ 1014ea70 f   nafxcwd:barcore.obj
 0002:000c7b00       ?EraseNonClient@CControlBar@@QAEXXZ 1014eb00 f   nafxcwd:barcore.obj
 0002:000c7c20       ?OnCtlColor@CControlBar@@QAEPAUHBRUSH__@@PAVCDC@@PAVCWnd@@I@Z 1014ec20 f   nafxcwd:barcore.obj
 0002:000c7c80       ?OnLButtonDown@CControlBar@@QAEXIVCPoint@@@Z 1014ec80 f   nafxcwd:barcore.obj
 0002:000c7d20       ?OnLButtonDblClk@CControlBar@@QAEXIVCPoint@@@Z 1014ed20 f   nafxcwd:barcore.obj
 0002:000c7da0       ?OnIdleUpdateCmdUI@CControlBar@@QAEJIJ@Z 1014eda0 f   nafxcwd:barcore.obj
 0002:000c7eb0       ?OnInitialUpdate@CControlBar@@QAEXXZ 1014eeb0 f   nafxcwd:barcore.obj
 0002:000c7ed0       ?RecalcDelayShow@CControlBar@@UAEKPAUAFX_SIZEPARENTPARAMS@@@Z 1014eed0 f   nafxcwd:barcore.obj
 0002:000c8010       ?OnSizeParent@CControlBar@@QAEJIJ@Z 1014f010 f   nafxcwd:barcore.obj
 0002:000c8270       ?DelayShow@CControlBar@@UAEXH@Z 1014f270 f   nafxcwd:barcore.obj
 0002:000c82e0       ?IsVisible@CControlBar@@UBEHXZ 1014f2e0 f   nafxcwd:barcore.obj
 0002:000c8320       ?DoPaint@CControlBar@@UAEXPAVCDC@@@Z 1014f320 f   nafxcwd:barcore.obj
 0002:000c83a0       ?DrawBorders@CControlBar@@UAEXPAVCDC@@AAVCRect@@@Z 1014f3a0 f   nafxcwd:barcore.obj
 0002:000c86e0       ?DrawGripper@CControlBar@@UAEXPAVCDC@@ABVCRect@@@Z 1014f6e0 f   nafxcwd:barcore.obj
 0002:000c87a0       ?CalcInsideRect@CControlBar@@UBEXAAVCRect@@H@Z 1014f7a0 f   nafxcwd:barcore.obj
 0002:000c8910       ?AssertValid@CControlBar@@UBEXXZ 1014f910 f   nafxcwd:barcore.obj
 0002:000c8980       ?Dump@CControlBar@@UBEXAAVCDumpContext@@@Z 1014f980 f   nafxcwd:barcore.obj
 0002:000c91d0       ??_GCDockContext@@QAEPAXI@Z 101501d0 f i nafxcwd:barcore.obj
 0002:000c9210       ?AfxLoadSysColorBitmap@@YGPAUHBITMAP__@@PAUHINSTANCE__@@PAUHRSRC__@@H@Z 10150210 f   nafxcwd:bartool.obj
 0002:000c9460       ?_GetButton@CToolBar@@IBEXHPAU_TBBUTTON@@@Z 10150460 f   nafxcwd:bartool.obj
 0002:000c94c0       ?_SetButton@CToolBar@@IAEXHPAU_TBBUTTON@@@Z 101504c0 f   nafxcwd:bartool.obj
 0002:000c96d0       ?CommandToIndex@CToolBar@@QBEHI@Z 101506d0 f   nafxcwd:bartool.obj
 0002:000c9740       ?GetItemID@CToolBar@@QBEIH@Z 10150740 f   nafxcwd:bartool.obj
 0002:000c97b0       ?GetItemRect@CToolBar@@UBEXHPAUtagRECT@@@Z 101507b0 f   nafxcwd:bartool.obj
 0002:000c9840       ?Layout@CToolBar@@IAEXXZ   10150840 f   nafxcwd:bartool.obj
 0002:000c9900       ?GetButtonStyle@CToolBar@@QBEIH@Z 10150900 f   nafxcwd:bartool.obj
 0002:000c9990       ?SetButtonStyle@CToolBar@@QAEXHI@Z 10150990 f   nafxcwd:bartool.obj
 0002:000c9a50       ?CalcSize@CToolBar@@IAE?AVCSize@@PAU_TBBUTTON@@H@Z 10150a50 f   nafxcwd:bartool.obj
 0002:000c9d10       ?WrapToolBar@CToolBar@@IAEHPAU_TBBUTTON@@HH@Z 10150d10 f   nafxcwd:bartool.obj
 0002:000c9f70       ?SizeToolBar@CToolBar@@IAEXPAU_TBBUTTON@@HHH@Z 10150f70 f   nafxcwd:bartool.obj
 0002:000ca1f0       ?CalcLayout@CToolBar@@IAE?AVCSize@@KH@Z 101511f0 f   nafxcwd:bartool.obj
 0002:000ca960       ?CalcFixedLayout@CToolBar@@UAE?AVCSize@@HH@Z 10151960 f   nafxcwd:bartool.obj
 0002:000ca9a0       ?CalcDynamicLayout@CToolBar@@UAE?AVCSize@@HK@Z 101519a0 f   nafxcwd:bartool.obj
 0002:000caa10       ?GetButtonInfo@CToolBar@@QBEXHAAI0AAH@Z 10151a10 f   nafxcwd:bartool.obj
 0002:000caab0       ?SetButtonInfo@CToolBar@@QAEXHIIH@Z 10151ab0 f   nafxcwd:bartool.obj
 0002:000cab60       ?OnToolHitTest@CToolBar@@UBEHVCPoint@@PAUtagTOOLINFOA@@@Z 10151b60 f   nafxcwd:bartool.obj
 0002:000cad20       ?SetButtonText@CToolBar@@QAEHHPBD@Z 10151d20 f   nafxcwd:bartool.obj
 0002:000caee0       ?GetButtonText@CToolBar@@QBE?AV?$CStringT@DV?$StrTraitMFC@DV?$ChTraitsCRT@D@ATL@@@@@ATL@@H@Z 10151ee0 f   nafxcwd:bartool.obj
 0002:000caf60       ?GetButtonText@CToolBar@@QBEXHAAV?$CStringT@DV?$StrTraitMFC@DV?$ChTraitsCRT@D@ATL@@@@@ATL@@@Z 10151f60 f   nafxcwd:bartool.obj
 0002:000cb040       ?GetMessageMap@CToolBar@@MBEPBUAFX_MSGMAP@@XZ 10152040 f   nafxcwd:bartool.obj
 0002:000cb050       ?OnEraseBkgnd@CToolBar@@IAEHPAVCDC@@@Z 10152050 f   nafxcwd:bartool.obj
 0002:000cb070       ?OnNcHitTest@CToolBar@@IAEIVCPoint@@@Z 10152070 f   nafxcwd:bartool.obj
 0002:000cb090       ?OnNcCalcSize@CToolBar@@IAEXHPAUtagNCCALCSIZE_PARAMS@@@Z 10152090 f   nafxcwd:bartool.obj
 0002:000cb170       ?OnBarStyleChange@CToolBar@@UAEXKK@Z 10152170 f   nafxcwd:bartool.obj
 0002:000cb230       ?OnNcPaint@CToolBar@@IAEXXZ 10152230 f   nafxcwd:bartool.obj
 0002:000cb250       ?OnWindowPosChanging@CToolBar@@IAEXPAUtagWINDOWPOS@@@Z 10152250 f   nafxcwd:bartool.obj
 0002:000cb2b0       ?OnPaint@CToolBar@@IAEXXZ  101522b0 f   nafxcwd:bartool.obj
 0002:000cb2e0       ?OnSetButtonSize@CToolBar@@IAEJIJ@Z 101522e0 f   nafxcwd:bartool.obj
 0002:000cb310       ?OnSetBitmapSize@CToolBar@@IAEJIJ@Z 10152310 f   nafxcwd:bartool.obj
 0002:000cb340       ?OnSetSizeHelper@CToolBar@@IAEJAAVCSize@@J@Z 10152340 f   nafxcwd:bartool.obj
 0002:000cb3f0       ?OnPreserveZeroBorderHelper@CToolBar@@IAEJIJ@Z 101523f0 f   nafxcwd:bartool.obj
 0002:000cb480       ?OnSysColorChange@CToolBar@@IAEXXZ 10152480 f   nafxcwd:bartool.obj
 0002:000cb4e0       ?get_accName@CToolBar@@UAEJUtagVARIANT@@PAPA_W@Z 101524e0 f   nafxcwd:bartool.obj
 0002:000cb640       ?Enable@CToolCmdUI@@UAEXH@Z 10152640 f   nafxcwd:bartool.obj
 0002:000cb730       ?SetCheck@CToolCmdUI@@UAEXH@Z 10152730 f   nafxcwd:bartool.obj
 0002:000cb840       ?SetText@CToolCmdUI@@UAEXPBD@Z 10152840 f   nafxcwd:bartool.obj
 0002:000cb850       ?OnUpdateCmdUI@CToolBar@@UAEXPAVCFrameWnd@@H@Z 10152850 f   nafxcwd:bartool.obj
 0002:000cb930       ?AssertValid@CToolBar@@UBEXXZ 10152930 f   nafxcwd:bartool.obj
 0002:000cb9c0       ?Dump@CToolBar@@UBEXAAVCDumpContext@@@Z 101529c0 f   nafxcwd:bartool.obj
 0002:000cc640       ??0_AFX_CONTROLPOS@@QAE@XZ 10153640 f i nafxcwd:bartool.obj
 0002:000cc660       ??_H@YGXPAXIHP6EPAX0@Z@Z   10153660 f i nafxcwd:bartool.obj
 0002:000cc690       ??0CToolCmdUI@@QAE@XZ      10153690 f i nafxcwd:bartool.obj
 0002:000cc6c0       ?AfxFormatStrings@@YGXAAV?$CStringT@DV?$StrTraitMFC@DV?$ChTraitsCRT@D@ATL@@@@@ATL@@IPBQBDH@Z 101536c0 f   nafxcwd:apphelp.obj
 0002:000cc790       ?AfxFormatStrings@@YGXAAV?$CStringT@DV?$StrTraitMFC@DV?$ChTraitsCRT@D@ATL@@@@@ATL@@PBDPBQBDH@Z 10153790 f   nafxcwd:apphelp.obj
 0002:000cca20       ?AfxFormatString1@@YGXAAV?$CStringT@DV?$StrTraitMFC@DV?$ChTraitsCRT@D@ATL@@@@@ATL@@IPBD@Z 10153a20 f   nafxcwd:apphelp.obj
 0002:000cca40       ?AfxFormatString2@@YGXAAV?$CStringT@DV?$StrTraitMFC@DV?$ChTraitsCRT@D@ATL@@@@@ATL@@IPBD1@Z 10153a40 f   nafxcwd:apphelp.obj
 0002:000ccb60       ?WriteProfileInt@CWinApp@@QAEHPBD0H@Z 10153b60 f   nafxcwd:appui3.obj
 0002:000ccc60       ?WriteProfileStringA@CWinApp@@QAEHPBD00@Z 10153c60 f   nafxcwd:appui3.obj
 0002:000ccdd0       ?WriteProfileBinary@CWinApp@@QAEHPBD0PAEI@Z 10153dd0 f   nafxcwd:appui3.obj
 0002:000cd000       ??A?$CSimpleStringT@D$0A@@ATL@@QBEDH@Z 10154000 f i nafxcwd:appui3.obj
 0002:000cd090       ?OnFileNew@CWinApp@@IAEXXZ 10154090 f   nafxcwd:appdlg.obj
 0002:000cd0c0       ?OnFileOpen@CWinApp@@IAEXXZ 101540c0 f   nafxcwd:appdlg.obj
 0002:000cd100       ?DoPromptFileName@CWinApp@@QAEHAAV?$CStringT@DV?$StrTraitMFC@DV?$ChTraitsCRT@D@ATL@@@@@ATL@@IKHPAVCDocTemplate@@@Z 10154100 f   nafxcwd:appdlg.obj
 0002:000cd180       ?_AfxAppendFilterSuffix@@YGXAAV?$CStringT@DV?$StrTraitMFC@DV?$ChTraitsCRT@D@ATL@@@@@ATL@@AAUtagOFNA@@PAVCDocTemplate@@PAV12@@Z 10154180 f   nafxcwd:docmgr.obj
 0002:000cd3d0       ?GetMessageMap@CNewTypeDlg@@MBEPBUAFX_MSGMAP@@XZ 101543d0 f   nafxcwd:docmgr.obj
 0002:000cd3e0       ?OnInitDialog@CNewTypeDlg@@MAEHXZ 101543e0 f   nafxcwd:docmgr.obj
 0002:000cd5f0       ?OnOK@CNewTypeDlg@@MAEXXZ  101545f0 f   nafxcwd:docmgr.obj
 0002:000cd6a0       ?AddDocTemplate@CDocManager@@UAEXPAVCDocTemplate@@@Z 101546a0 f   nafxcwd:docmgr.obj
 0002:000cd7a0       ?GetFirstDocTemplatePosition@CDocManager@@UBEPAU__POSITION@@XZ 101547a0 f   nafxcwd:docmgr.obj
 0002:000cd7c0       ?GetNextDocTemplate@CDocManager@@UBEPAVCDocTemplate@@AAPAU__POSITION@@@Z 101547c0 f   nafxcwd:docmgr.obj
 0002:000cd7e0       ?SaveAllModified@CDocManager@@UAEHXZ 101547e0 f   nafxcwd:docmgr.obj
 0002:000cd860       ?CloseAllDocuments@CDocManager@@UAEXH@Z 10154860 f   nafxcwd:docmgr.obj
 0002:000cd8d0       ?DoPromptFileName@CDocManager@@UAEHAAV?$CStringT@DV?$StrTraitMFC@DV?$ChTraitsCRT@D@ATL@@@@@ATL@@IKHPAVCDocTemplate@@@Z 101548d0 f   nafxcwd:docmgr.obj
 0002:000cdbb0       ?GetDocumentCount@CDocManager@@IAEHXZ 10154bb0 f   nafxcwd:docmgr.obj
 0002:000cdc20       ?OnDDECommand@CDocManager@@UAEHPAD@Z 10154c20 f   nafxcwd:docmgr.obj
 0002:000ce520       ?OnFileNew@CDocManager@@UAEXXZ 10155520 f   nafxcwd:docmgr.obj
 0002:000ce680       ?OnFileOpen@CDocManager@@UAEXXZ 10155680 f   nafxcwd:docmgr.obj
 0002:000ce720       ?AssertValid@CDocManager@@UBEXXZ 10155720 f   nafxcwd:docmgr.obj
 0002:000ce780       ?Dump@CDocManager@@UBEXAAVCDumpContext@@@Z 10155780 f   nafxcwd:docmgr.obj
 0002:000cedc0       ??0CNewTypeDlg@@QAE@PAVCPtrList@@@Z 10155dc0 f i nafxcwd:docmgr.obj
 0002:000cee10       ??1CNewTypeDlg@@UAE@XZ     10155e10 f i nafxcwd:docmgr.obj
 0002:000cee40       ??_GCNewTypeDlg@@UAEPAXI@Z 10155e40 f i nafxcwd:docmgr.obj
 0002:000cee40       ??_ECNewTypeDlg@@UAEPAXI@Z 10155e40 f i nafxcwd:docmgr.obj
 0002:000cee80       ?_AfxAdjustRectangle@@YGXAAVCRect@@VCPoint@@@Z 10155e80 f   nafxcwd:dockcont.obj
 0002:000cef30       ??0CDockContext@@QAE@PAVCControlBar@@@Z 10155f30 f   nafxcwd:dockcont.obj
 0002:000cf0d0       ??1CDockContext@@QAE@XZ    101560d0 f   nafxcwd:dockcont.obj
 0002:000cf130       ?StartDrag@CDockContext@@UAEXVCPoint@@@Z 10156130 f   nafxcwd:dockcont.obj
 0002:000cf9d0       ?Move@CDockContext@@QAEXVCPoint@@@Z 101569d0 f   nafxcwd:dockcont.obj
 0002:000cfae0       ?OnKey@CDockContext@@QAEXHH@Z 10156ae0 f   nafxcwd:dockcont.obj
 0002:000cfb30       ?EndDrag@CDockContext@@QAEXXZ 10156b30 f   nafxcwd:dockcont.obj
 0002:000cfd60       ?StartResize@CDockContext@@UAEXHVCPoint@@@Z 10156d60 f   nafxcwd:dockcont.obj
 0002:000d0090       ?Stretch@CDockContext@@QAEXVCPoint@@@Z 10157090 f   nafxcwd:dockcont.obj
 0002:000d0330       ?EndResize@CDockContext@@QAEXXZ 10157330 f   nafxcwd:dockcont.obj
 0002:000d03b0       ?ToggleDocking@CDockContext@@UAEXXZ 101573b0 f   nafxcwd:dockcont.obj
 0002:000d0530       ?InitLoop@CDockContext@@QAEXXZ 10157530 f   nafxcwd:dockcont.obj
 0002:000d0680       ?CancelLoop@CDockContext@@QAEXXZ 10157680 f   nafxcwd:dockcont.obj
 0002:000d06e0       ?DrawFocusRect@CDockContext@@QAEXH@Z 101576e0 f   nafxcwd:dockcont.obj
 0002:000d0910       ?UpdateState@CDockContext@@QAEXPAHH@Z 10157910 f   nafxcwd:dockcont.obj
 0002:000d09b0       ?CanDock@CDockContext@@QAEKXZ 101579b0 f   nafxcwd:dockcont.obj
 0002:000d0c20       ?GetDockBar@CDockContext@@QAEPAVCDockBar@@K@Z 10157c20 f   nafxcwd:dockcont.obj
 0002:000d0d40       ?Track@CDockContext@@QAEHXZ 10157d40 f   nafxcwd:dockcont.obj
 0002:000d1710       ?GetMessageMap@CReBar@@MBEPBUAFX_MSGMAP@@XZ 10158710 f   nafxcwd:barcool.obj
 0002:000d1720       ??0CReBar@@QAE@XZ          10158720 f   nafxcwd:barcool.obj
 0002:000d1780       ?OnRecalcParent@CReBar@@IAEXXZ 10158780 f   nafxcwd:barcool.obj
 0002:000d17c0       ?OnHeightChange@CReBar@@IAEXPAUtagNMHDR@@PAJ@Z 101587c0 f   nafxcwd:barcool.obj
 0002:000d1820       ?OnShowBand@CReBar@@IAEJIJ@Z 10158820 f   nafxcwd:barcool.obj
 0002:000d1920       ?_AddBar@CReBar@@IAEHPAVCWnd@@PAUtagREBARBANDINFOA@@@Z 10158920 f   nafxcwd:barcool.obj
 0002:000d1b30       ?AddBar@CReBar@@QAEHPAVCWnd@@PBDPAVCBitmap@@K@Z 10158b30 f   nafxcwd:barcool.obj
 0002:000d1b90       ?AddBar@CReBar@@QAEHPAVCWnd@@KKPBDK@Z 10158b90 f   nafxcwd:barcool.obj
 0002:000d1be0       ?CalcFixedLayout@CReBar@@UAE?AVCSize@@HH@Z 10158be0 f   nafxcwd:barcool.obj
 0002:000d1ef0       ?CalcDynamicLayout@CReBar@@UAE?AVCSize@@HK@Z 10158ef0 f   nafxcwd:barcool.obj
 0002:000d1f50       ?Create@CReBar@@UAEHPAVCWnd@@KKI@Z 10158f50 f   nafxcwd:barcool.obj
 0002:000d2060       ?OnUpdateCmdUI@CReBar@@UAEXPAVCFrameWnd@@H@Z 10159060 f   nafxcwd:barcool.obj
 0002:000d2080       ?OnNcCreate@CReBar@@IAEHPAUtagCREATESTRUCTA@@@Z 10159080 f   nafxcwd:barcool.obj
 0002:000d20d0       ?OnEraseBkgnd@CReBar@@IAEHPAVCDC@@@Z 101590d0 f   nafxcwd:barcool.obj
 0002:000d20f0       ?OnNcCalcSize@CReBar@@IAEXHPAUtagNCCALCSIZE_PARAMS@@@Z 101590f0 f   nafxcwd:barcool.obj
 0002:000d2170       ?OnNcPaint@CReBar@@IAEXXZ  10159170 f   nafxcwd:barcool.obj
 0002:000d2190       ?OnPaint@CReBar@@IAEXXZ    10159190 f   nafxcwd:barcool.obj
 0002:000d21b0       ?OnToolHitTest@CReBar@@UBEHVCPoint@@PAUtagTOOLINFOA@@@Z 101591b0 f   nafxcwd:barcool.obj
 0002:000d2280       ?WindowProc@CReBar@@MAEJIIJ@Z 10159280 f   nafxcwd:barcool.obj
 0002:000d25d0       ??_GCReBar@@UAEPAXI@Z      101595d0 f i nafxcwd:barcool.obj
 0002:000d25d0       ??_ECReBar@@UAEPAXI@Z      101595d0 f i nafxcwd:barcool.obj
 0002:000d2610       ??1CReBar@@UAE@XZ          10159610 f i nafxcwd:barcool.obj
 0002:000d2630       ?GetMessageMap@CDockBar@@MBEPBUAFX_MSGMAP@@XZ 10159630 f   nafxcwd:bardock.obj
 0002:000d2640       ??0CDockBar@@QAE@H@Z       10159640 f   nafxcwd:bardock.obj
 0002:000d2720       ??1CDockBar@@UAE@XZ        10159720 f   nafxcwd:bardock.obj
 0002:000d27e0       ?Create@CDockBar@@UAEHPAVCWnd@@KI@Z 101597e0 f   nafxcwd:bardock.obj
 0002:000d2890       ?IsDockBar@CDockBar@@UBEHXZ 10159890 f   nafxcwd:bardock.obj
 0002:000d28a0       ?GetDockedCount@CDockBar@@QBEHXZ 101598a0 f   nafxcwd:bardock.obj
 0002:000d2900       ?GetDockedVisibleCount@CDockBar@@UBEHXZ 10159900 f   nafxcwd:bardock.obj
 0002:000d2980       ?DockControlBar@CDockBar@@QAEXPAVCControlBar@@PBUtagRECT@@@Z 10159980 f   nafxcwd:bardock.obj
 0002:000d2dc0       ?ReDockControlBar@CDockBar@@QAEXPAVCControlBar@@PBUtagRECT@@@Z 10159dc0 f   nafxcwd:bardock.obj
 0002:000d3180       ?RemovePlaceHolder@CDockBar@@QAEXPAVCControlBar@@@Z 1015a180 f   nafxcwd:bardock.obj
 0002:000d3220       ?RemoveControlBar@CDockBar@@QAEHPAVCControlBar@@HH@Z 1015a220 f   nafxcwd:bardock.obj
 0002:000d3440       ?CalcFixedLayout@CDockBar@@UAE?AVCSize@@HH@Z 1015a440 f   nafxcwd:bardock.obj
 0002:000d3d10       ?OnSizeParent@CDockBar@@IAEJIJ@Z 1015ad10 f   nafxcwd:bardock.obj
 0002:000d3dc0       ?OnNcCalcSize@CDockBar@@IAEXHPAUtagNCCALCSIZE_PARAMS@@@Z 1015adc0 f   nafxcwd:bardock.obj
 0002:000d3e40       ?OnNcPaint@CDockBar@@IAEXXZ 1015ae40 f   nafxcwd:bardock.obj
 0002:000d3e60       ?DoPaint@CDockBar@@UAEXPAVCDC@@@Z 1015ae60 f   nafxcwd:bardock.obj
 0002:000d3e70       ?OnPaint@CDockBar@@IAEXXZ  1015ae70 f   nafxcwd:bardock.obj
 0002:000d3f10       ?OnWindowPosChanging@CDockBar@@IAEXPAUtagWINDOWPOS@@@Z 1015af10 f   nafxcwd:bardock.obj
 0002:000d3f50       ?FindBar@CDockBar@@QAEHPAVCControlBar@@H@Z 1015af50 f   nafxcwd:bardock.obj
 0002:000d3fb0       ?ShowAll@CDockBar@@QAEXH@Z 1015afb0 f   nafxcwd:bardock.obj
 0002:000d4020       ?GetDockedControlBar@CDockBar@@IBEPAVCControlBar@@H@Z 1015b020 f   nafxcwd:bardock.obj
 0002:000d4060       ?Insert@CDockBar@@IAEHPAVCControlBar@@VCRect@@VCPoint@@@Z 1015b060 f   nafxcwd:bardock.obj
 0002:000d42b0       ?OnUpdateCmdUI@CDockBar@@MAEXPAVCFrameWnd@@H@Z 1015b2b0 f   nafxcwd:bardock.obj
 0002:000d42c0       ?AssertValid@CDockBar@@UBEXXZ 1015b2c0 f   nafxcwd:bardock.obj
 0002:000d4360       ?Dump@CDockBar@@UBEXAAVCDumpContext@@@Z 1015b360 f   nafxcwd:bardock.obj
 0002:000d43d0       ?EnableDocking@CControlBar@@QAEXK@Z 1015b3d0 f   nafxcwd:bardock.obj
 0002:000d44d0       ?GetMessageMap@CMiniDockFrameWnd@@MBEPBUAFX_MSGMAP@@XZ 1015b4d0 f   nafxcwd:bardock.obj
 0002:000d44e0       ?OnMouseActivate@CMiniDockFrameWnd@@QAEHPAVCWnd@@II@Z 1015b4e0 f   nafxcwd:bardock.obj
 0002:000d4520       ??0CMiniDockFrameWnd@@QAE@XZ 1015b520 f   nafxcwd:bardock.obj
 0002:000d4590       ?Create@CMiniDockFrameWnd@@UAEHPAVCWnd@@K@Z 1015b590 f   nafxcwd:bardock.obj
 0002:000d4770       ?RecalcLayout@CMiniDockFrameWnd@@UAEXH@Z 1015b770 f   nafxcwd:bardock.obj
 0002:000d47f0       ?OnClose@CMiniDockFrameWnd@@QAEXXZ 1015b7f0 f   nafxcwd:bardock.obj
 0002:000d4810       ?OnNcLButtonDown@CMiniDockFrameWnd@@QAEXIVCPoint@@@Z 1015b810 f   nafxcwd:bardock.obj
 0002:000d4a40       ?OnNcLButtonDblClk@CMiniDockFrameWnd@@QAEXIVCPoint@@@Z 1015ba40 f   nafxcwd:bardock.obj
 0002:000d54a0       ??_GCDockBar@@UAEPAXI@Z    1015c4a0 f i nafxcwd:bardock.obj
 0002:000d54a0       ??_ECDockBar@@UAEPAXI@Z    1015c4a0 f i nafxcwd:bardock.obj
 0002:000d54e0       ??_ECMiniDockFrameWnd@@UAEPAXI@Z 1015c4e0 f i nafxcwd:bardock.obj
 0002:000d54e0       ??_GCMiniDockFrameWnd@@UAEPAXI@Z 1015c4e0 f i nafxcwd:bardock.obj
 0002:000d5520       ??1CMiniDockFrameWnd@@UAE@XZ 1015c520 f i nafxcwd:bardock.obj
 0002:000d65d0       ?Create@CStatic@@UAEHPBDKABUtagRECT@@PAVCWnd@@I@Z 1015d5d0 f   nafxcwd:winctrl1.obj
 0002:000d6610       ??1CStatic@@UAE@XZ         1015d610 f   nafxcwd:winctrl1.obj
 0002:000d6670       ?DrawItem@CStatic@@UAEXPAUtagDRAWITEMSTRUCT@@@Z 1015d670 f   nafxcwd:winctrl1.obj
 0002:000d66a0       ?OnChildNotify@CStatic@@MAEHIIJPAJ@Z 1015d6a0 f   nafxcwd:winctrl1.obj
 0002:000d6700       ?Create@CButton@@UAEHPBDKABUtagRECT@@PAVCWnd@@I@Z 1015d700 f   nafxcwd:winctrl1.obj
 0002:000d6740       ??1CButton@@UAE@XZ         1015d740 f   nafxcwd:winctrl1.obj
 0002:000d67a0       ?GetCheckedRadioButton@CWnd@@QAEHHH@Z 1015d7a0 f   nafxcwd:winctrl1.obj
 0002:000d67f0       ?DrawItem@CButton@@UAEXPAUtagDRAWITEMSTRUCT@@@Z 1015d7f0 f   nafxcwd:winctrl1.obj
 0002:000d6820       ?OnChildNotify@CButton@@MAEHIIJPAJ@Z 1015d820 f   nafxcwd:winctrl1.obj
 0002:000d6880       ?Create@CListBox@@UAEHKABUtagRECT@@PAVCWnd@@I@Z 1015d880 f   nafxcwd:winctrl1.obj
 0002:000d68c0       ??1CListBox@@UAE@XZ        1015d8c0 f   nafxcwd:winctrl1.obj
 0002:000d6920       ?DrawItem@CListBox@@UAEXPAUtagDRAWITEMSTRUCT@@@Z 1015d920 f   nafxcwd:winctrl1.obj
 0002:000d6950       ?MeasureItem@CListBox@@UAEXPAUtagMEASUREITEMSTRUCT@@@Z 1015d950 f   nafxcwd:winctrl1.obj
 0002:000d6980       ?CompareItem@CListBox@@UAEHPAUtagCOMPAREITEMSTRUCT@@@Z 1015d980 f   nafxcwd:winctrl1.obj
 0002:000d69b0       ?DeleteItem@CListBox@@UAEXPAUtagDELETEITEMSTRUCT@@@Z 1015d9b0 f   nafxcwd:winctrl1.obj
 0002:000d69c0       ?VKeyToItem@CListBox@@UAEHII@Z 1015d9c0 f   nafxcwd:winctrl1.obj
 0002:000d69e0       ?CharToItem@CListBox@@UAEHII@Z 1015d9e0 f   nafxcwd:winctrl1.obj
 0002:000d6a00       ?OnChildNotify@CListBox@@MAEHIIJPAJ@Z 1015da00 f   nafxcwd:winctrl1.obj
 0002:000d6bb0       ?GetText@CListBox@@QBEXHAAV?$CStringT@DV?$StrTraitMFC@DV?$ChTraitsCRT@D@ATL@@@@@ATL@@@Z 1015dbb0 f   nafxcwd:winctrl1.obj
 0002:000d6c10       ?ItemFromPoint@CListBox@@QBEIVCPoint@@AAH@Z 1015dc10 f   nafxcwd:winctrl1.obj
 0002:000d6ca0       ?Create@CComboBox@@UAEHKABUtagRECT@@PAVCWnd@@I@Z 1015dca0 f   nafxcwd:winctrl1.obj
 0002:000d6ce0       ??1CComboBox@@UAE@XZ       1015dce0 f   nafxcwd:winctrl1.obj
 0002:000d6d40       ?DrawItem@CComboBox@@UAEXPAUtagDRAWITEMSTRUCT@@@Z 1015dd40 f   nafxcwd:winctrl1.obj
 0002:000d6d70       ?MeasureItem@CComboBox@@UAEXPAUtagMEASUREITEMSTRUCT@@@Z 1015dd70 f   nafxcwd:winctrl1.obj
 0002:000d6da0       ?CompareItem@CComboBox@@UAEHPAUtagCOMPAREITEMSTRUCT@@@Z 1015dda0 f   nafxcwd:winctrl1.obj
 0002:000d6dd0       ?DeleteItem@CComboBox@@UAEXPAUtagDELETEITEMSTRUCT@@@Z 1015ddd0 f   nafxcwd:winctrl1.obj
 0002:000d6de0       ?OnChildNotify@CComboBox@@MAEHIIJPAJ@Z 1015dde0 f   nafxcwd:winctrl1.obj
 0002:000d6f20       ?GetLBText@CComboBox@@QBEXHAAV?$CStringT@DV?$StrTraitMFC@DV?$ChTraitsCRT@D@ATL@@@@@ATL@@@Z 1015df20 f   nafxcwd:winctrl1.obj
 0002:000d6f80       ?Create@CEdit@@UAEHKABUtagRECT@@PAVCWnd@@I@Z 1015df80 f   nafxcwd:winctrl1.obj
 0002:000d6fc0       ??1CEdit@@UAE@XZ           1015dfc0 f   nafxcwd:winctrl1.obj
 0002:000d7020       ?Create@CScrollBar@@UAEHKABUtagRECT@@PAVCWnd@@I@Z 1015e020 f   nafxcwd:winctrl1.obj
 0002:000d7060       ??1CScrollBar@@UAE@XZ      1015e060 f   nafxcwd:winctrl1.obj
 0002:000d7370       ??_GCStatic@@UAEPAXI@Z     1015e370 f i nafxcwd:winctrl1.obj
 0002:000d7370       ??_ECStatic@@UAEPAXI@Z     1015e370 f i nafxcwd:winctrl1.obj
 0002:000d73b0       ??_ECButton@@UAEPAXI@Z     1015e3b0 f i nafxcwd:winctrl1.obj
 0002:000d73b0       ??_GCButton@@UAEPAXI@Z     1015e3b0 f i nafxcwd:winctrl1.obj
 0002:000d73f0       ??_ECListBox@@UAEPAXI@Z    1015e3f0 f i nafxcwd:winctrl1.obj
 0002:000d73f0       ??_GCListBox@@UAEPAXI@Z    1015e3f0 f i nafxcwd:winctrl1.obj
 0002:000d7430       ??_GCComboBox@@UAEPAXI@Z   1015e430 f i nafxcwd:winctrl1.obj
 0002:000d7430       ??_ECComboBox@@UAEPAXI@Z   1015e430 f i nafxcwd:winctrl1.obj
 0002:000d7470       ??_GCEdit@@UAEPAXI@Z       1015e470 f i nafxcwd:winctrl1.obj
 0002:000d7470       ??_ECEdit@@UAEPAXI@Z       1015e470 f i nafxcwd:winctrl1.obj
 0002:000d74b0       ??_GCScrollBar@@UAEPAXI@Z  1015e4b0 f i nafxcwd:winctrl1.obj
 0002:000d74b0       ??_ECScrollBar@@UAEPAXI@Z  1015e4b0 f i nafxcwd:winctrl1.obj
 0002:000d74f0       ?AfxOleOnReleaseAllObjects@@YGXXZ 1015e4f0 f   nafxcwd:olelock.obj
 0002:000d7560       ?AfxOleCanExitApp@@YGHXZ   1015e560 f   nafxcwd:olelock.obj
 0002:000d7580       ?AfxOleLockApp@@YGXXZ      1015e580 f   nafxcwd:olelock.obj
 0002:000d75a0       ?AfxOleUnlockApp@@YGXXZ    1015e5a0 f   nafxcwd:olelock.obj
 0002:000d75e0       ?AfxOleSetUserCtrl@@YGXH@Z 1015e5e0 f   nafxcwd:olelock.obj
 0002:000d7660       ?AfxOleGetUserCtrl@@YGHXZ  1015e660 f   nafxcwd:olelock.obj
 0002:000d76e0       ??0_AFX_CHECKLIST_STATE@@QAE@XZ 1015e6e0 f   nafxcwd:winctrl3.obj
 0002:000d77c0       ??1_AFX_CHECKLIST_STATE@@UAE@XZ 1015e7c0 f   nafxcwd:winctrl3.obj
 0002:000d7800       ?GetMessageMap@CCheckListBox@@MBEPBUAFX_MSGMAP@@XZ 1015e800 f   nafxcwd:winctrl3.obj
 0002:000d7810       ?Create@CCheckListBox@@UAEHKABUtagRECT@@PAVCWnd@@I@Z 1015e810 f   nafxcwd:winctrl3.obj
 0002:000d7850       ?SetCheckStyle@CCheckListBox@@QAEXI@Z 1015e850 f   nafxcwd:winctrl3.obj
 0002:000d78a0       ?SetCheck@CCheckListBox@@QAEXHH@Z 1015e8a0 f   nafxcwd:winctrl3.obj
 0002:000d7a10       ?GetCheck@CCheckListBox@@QAEHH@Z 1015ea10 f   nafxcwd:winctrl3.obj
 0002:000d7a80       ?Enable@CCheckListBox@@QAEXHH@Z 1015ea80 f   nafxcwd:winctrl3.obj
 0002:000d7ba0       ?IsEnabled@CCheckListBox@@QAEHH@Z 1015eba0 f   nafxcwd:winctrl3.obj
 0002:000d7c10       ?OnGetCheckPosition@CCheckListBox@@UAE?AVCRect@@V2@0@Z 1015ec10 f   nafxcwd:winctrl3.obj
 0002:000d7c40       ?DrawItem@CCheckListBox@@UAEXPAUtagDRAWITEMSTRUCT@@@Z 1015ec40 f   nafxcwd:winctrl3.obj
 0002:000d7ea0       ?MeasureItem@CCheckListBox@@UAEXPAUtagMEASUREITEMSTRUCT@@@Z 1015eea0 f   nafxcwd:winctrl3.obj
 0002:000d7ee0       ?PreDrawItemHelper@CCheckListBox@@IAEXPAUtagDRAWITEMSTRUCT@@@Z 1015eee0 f   nafxcwd:winctrl3.obj
 0002:000d7f30       ?PreDrawItemThemed@CCheckListBox@@IAE_NPAVCDC@@AAUtagDRAWITEMSTRUCT@@HH@Z 1015ef30 f   nafxcwd:winctrl3.obj
 0002:000d80e0       ?PreDrawItemNonThemed@CCheckListBox@@IAEXPAVCDC@@AAUtagDRAWITEMSTRUCT@@HH@Z 1015f0e0 f   nafxcwd:winctrl3.obj
 0002:000d8400       ?PreDrawItem@CCheckListBox@@IAEXPAUtagDRAWITEMSTRUCT@@@Z 1015f400 f   nafxcwd:winctrl3.obj
 0002:000d8570       ?PreMeasureItem@CCheckListBox@@IAEXPAUtagMEASUREITEMSTRUCT@@@Z 1015f570 f   nafxcwd:winctrl3.obj
 0002:000d8650       ?PreCompareItem@CCheckListBox@@IAEHPAUtagCOMPAREITEMSTRUCT@@@Z 1015f650 f   nafxcwd:winctrl3.obj
 0002:000d86c0       ?PreDeleteItem@CCheckListBox@@IAEXPAUtagDELETEITEMSTRUCT@@@Z 1015f6c0 f   nafxcwd:winctrl3.obj
 0002:000d8760       ?OnChildNotify@CCheckListBox@@MAEHIIJPAJ@Z 1015f760 f   nafxcwd:winctrl3.obj
 0002:000d8890       ?PreSubclassWindow@CCheckListBox@@MAEXXZ 1015f890 f   nafxcwd:winctrl3.obj
 0002:000d88d0       ?CalcMinimumItemHeight@CCheckListBox@@IAEHXZ 1015f8d0 f   nafxcwd:winctrl3.obj
 0002:000d89d0       ?InvalidateCheck@CCheckListBox@@IAEXH@Z 1015f9d0 f   nafxcwd:winctrl3.obj
 0002:000d8a30       ?InvalidateItem@CCheckListBox@@IAEXH@Z 1015fa30 f   nafxcwd:winctrl3.obj
 0002:000d8a70       ?CheckFromPoint@CCheckListBox@@IAEHVCPoint@@AAH@Z 1015fa70 f   nafxcwd:winctrl3.obj
 0002:000d8b90       ?SetSelectionCheck@CCheckListBox@@IAEXH@Z 1015fb90 f   nafxcwd:winctrl3.obj
 0002:000d8c40       ?OnLButtonDown@CCheckListBox@@IAEXIVCPoint@@@Z 1015fc40 f   nafxcwd:winctrl3.obj
 0002:000d8db0       ?OnLButtonDblClk@CCheckListBox@@IAEXIVCPoint@@@Z 1015fdb0 f   nafxcwd:winctrl3.obj
 0002:000d8e10       ?OnKeyDown@CCheckListBox@@IAEXIII@Z 1015fe10 f   nafxcwd:winctrl3.obj
 0002:000d9050       ?OnCreate@CCheckListBox@@IAEHPAUtagCREATESTRUCTA@@@Z 10160050 f   nafxcwd:winctrl3.obj
 0002:000d90a0       ?OnSetFont@CCheckListBox@@IAEJIJ@Z 101600a0 f   nafxcwd:winctrl3.obj
 0002:000d90e0       ?OnLBAddString@CCheckListBox@@IAEJIJ@Z 101600e0 f   nafxcwd:winctrl3.obj
 0002:000d91c0       ?OnLBFindString@CCheckListBox@@IAEJIJ@Z 101601c0 f   nafxcwd:winctrl3.obj
 0002:000d9240       ?OnLBFindStringExact@CCheckListBox@@IAEJIJ@Z 10160240 f   nafxcwd:winctrl3.obj
 0002:000d92c0       ?OnLBGetItemData@CCheckListBox@@IAEJIJ@Z 101602c0 f   nafxcwd:winctrl3.obj
 0002:000d9310       ?OnLBGetText@CCheckListBox@@IAEJIJ@Z 10160310 f   nafxcwd:winctrl3.obj
 0002:000d9370       ?OnLBInsertString@CCheckListBox@@IAEJIJ@Z 10160370 f   nafxcwd:winctrl3.obj
 0002:000d9450       ?OnLBSelectString@CCheckListBox@@IAEJIJ@Z 10160450 f   nafxcwd:winctrl3.obj
 0002:000d94e0       ?OnLBSetItemData@CCheckListBox@@IAEJIJ@Z 101604e0 f   nafxcwd:winctrl3.obj
 0002:000d95d0       ?OnLBSetItemHeight@CCheckListBox@@IAEJIJ@Z 101605d0 f   nafxcwd:winctrl3.obj
 0002:000d9640       ?get_accState@CCheckListBox@@MAEJUtagVARIANT@@PAU2@@Z 10160640 f   nafxcwd:winctrl3.obj
 0002:000d96e0       ?get_accRole@CCheckListBox@@MAEJUtagVARIANT@@PAU2@@Z 101606e0 f   nafxcwd:winctrl3.obj
 0002:000d9760       ?get_accDefaultAction@CCheckListBox@@MAEJUtagVARIANT@@PAPA_W@Z 10160760 f   nafxcwd:winctrl3.obj
 0002:000d9850       ?accDoDefaultAction@CCheckListBox@@MAEJUtagVARIANT@@@Z 10160850 f   nafxcwd:winctrl3.obj
 0002:000da230       ??_E_AFX_CHECKLIST_STATE@@UAEPAXI@Z 10161230 f i nafxcwd:winctrl3.obj
 0002:000da230       ??_G_AFX_CHECKLIST_STATE@@UAEPAXI@Z 10161230 f i nafxcwd:winctrl3.obj
 0002:000da270       ??0AFX_CHECK_DATA@@QAE@XZ  10161270 f i nafxcwd:winctrl3.obj
 0002:000da2b0       ?IsAppThemed@_ThemeHelper@@SAHXZ 101612b0 f i nafxcwd:winctrl3.obj
 0002:000da340       ?GetProc@_ThemeHelper@@SAPAXPBDPAX@Z 10161340 f i nafxcwd:winctrl3.obj
 0002:000da3b0       ?IsAppThemedFail@_ThemeHelper@@SAHXZ 101613b0 f i nafxcwd:winctrl3.obj
 0002:000da3c0       ?OpenThemeData@_ThemeHelper@@SAPAXPAUHWND__@@PB_W@Z 101613c0 f i nafxcwd:winctrl3.obj
 0002:000da450       ?CloseThemeData@_ThemeHelper@@SAJPAX@Z 10161450 f i nafxcwd:winctrl3.obj
 0002:000da4e0       ?CloseThemeDataFail@_ThemeHelper@@SAJPAX@Z 101614e0 f i nafxcwd:winctrl3.obj
 0002:000da4f0       ?DrawThemeBackground@_ThemeHelper@@SAJPAXPAUHDC__@@HHPBUtagRECT@@2@Z 101614f0 f i nafxcwd:winctrl3.obj
 0002:000da5a0       ?DrawThemeBackgroundFail@_ThemeHelper@@SAJPAXPAUHDC__@@HHPBUtagRECT@@2@Z 101615a0 f i nafxcwd:winctrl3.obj
 0002:000da5b0       ?GetThemePartSize@_ThemeHelper@@SAJPAXPAUHDC__@@HHPAUtagRECT@@W4THEMESIZE@@PAUtagSIZE@@@Z 101615b0 f i nafxcwd:winctrl3.obj
 0002:000da660       ?GetThemePartSizeFail@_ThemeHelper@@SAJPAXPAUHDC__@@HHPAUtagRECT@@W4THEMESIZE@@PAUtagSIZE@@@Z 10161660 f i nafxcwd:winctrl3.obj
 0002:000da670       ?AfxPropPageCallback@@YGIPAUHWND__@@IPAU_PROPSHEETPAGEA@@@Z 10161670 f   nafxcwd:dlgprop.obj
 0002:000da770       ?GetMessageMap@CPropertyPage@@MBEPBUAFX_MSGMAP@@XZ 10161770 f   nafxcwd:dlgprop.obj
 0002:000da780       ?GetPSP@CPropertyPage@@QBEABU_PROPSHEETPAGEA@@XZ 10161780 f   nafxcwd:dlgprop.obj
 0002:000da7a0       ?GetPSP@CPropertyPage@@QAEAAU_PROPSHEETPAGEA@@XZ 101617a0 f   nafxcwd:dlgprop.obj
 0002:000da7c0       ?AllocPSP@CPropertyPage@@IAEXK@Z 101617c0 f   nafxcwd:dlgprop.obj
 0002:000da850       ??0CPropertyPage@@QAE@IIK@Z 10161850 f   nafxcwd:dlgprop.obj
 0002:000da910       ??0CPropertyPage@@QAE@PBDIK@Z 10161910 f   nafxcwd:dlgprop.obj
 0002:000da9d0       ?Construct@CPropertyPage@@QAEXII@Z 101619d0 f   nafxcwd:dlgprop.obj
 0002:000daa10       ?Construct@CPropertyPage@@QAEXPBDI@Z 10161a10 f   nafxcwd:dlgprop.obj
 0002:000daa60       ??0CPropertyPage@@QAE@XZ   10161a60 f   nafxcwd:dlgprop.obj
 0002:000dab00       ?CommonConstruct@CPropertyPage@@IAEXPBDI@Z 10161b00 f   nafxcwd:dlgprop.obj
 0002:000dac30       ??0CPropertyPage@@QAE@IIIIK@Z 10161c30 f   nafxcwd:dlgprop.obj
 0002:000dacf0       ??0CPropertyPage@@QAE@PBDIIIK@Z 10161cf0 f   nafxcwd:dlgprop.obj
 0002:000dadc0       ?Construct@CPropertyPage@@QAEXIIII@Z 10161dc0 f   nafxcwd:dlgprop.obj
 0002:000dae00       ?Construct@CPropertyPage@@QAEXPBDIII@Z 10161e00 f   nafxcwd:dlgprop.obj
 0002:000dae60       ?CommonConstruct@CPropertyPage@@IAEXPBDIII@Z 10161e60 f   nafxcwd:dlgprop.obj
 0002:000daf00       ??1CPropertyPage@@UAE@XZ   10161f00 f   nafxcwd:dlgprop.obj
 0002:000dafb0       ?Cleanup@CPropertyPage@@IAEXXZ 10161fb0 f   nafxcwd:dlgprop.obj
 0002:000db010       ?_AfxChangePropPageFont@@YGPAUDLGTEMPLATE@@PBU1@H@Z 10162010 f   nafxcwd:dlgprop.obj
 0002:000db150       ?InitDialogInfo@CPropertyPage@@IAEPBUDLGTEMPLATE@@PBU2@@Z 10162150 f   nafxcwd:dlgprop.obj
 0002:000db1a0       ?PreProcessPageTemplate@CPropertyPage@@IAEXAAU_PROPSHEETPAGEA@@H@Z 101621a0 f   nafxcwd:dlgprop.obj
 0002:000db350       ?CancelToClose@CPropertyPage@@QAEXXZ 10162350 f   nafxcwd:dlgprop.obj
 0002:000db3c0       ?SetModified@CPropertyPage@@QAEXH@Z 101623c0 f   nafxcwd:dlgprop.obj
 0002:000db470       ?QuerySiblings@CPropertyPage@@QAEJIJ@Z 10162470 f   nafxcwd:dlgprop.obj
 0002:000db4e0       ?OnApply@CPropertyPage@@UAEHXZ 101624e0 f   nafxcwd:dlgprop.obj
 0002:000db520       ?OnReset@CPropertyPage@@UAEXXZ 10162520 f   nafxcwd:dlgprop.obj
 0002:000db550       ?OnOK@CPropertyPage@@UAEXXZ 10162550 f   nafxcwd:dlgprop.obj
 0002:000db570       ?OnCancel@CPropertyPage@@UAEXXZ 10162570 f   nafxcwd:dlgprop.obj
 0002:000db590       ?OnSetActive@CPropertyPage@@UAEHXZ 10162590 f   nafxcwd:dlgprop.obj
 0002:000db5e0       ?OnKillActive@CPropertyPage@@UAEHXZ 101625e0 f   nafxcwd:dlgprop.obj
 0002:000db650       ?OnQueryCancel@CPropertyPage@@UAEHXZ 10162650 f   nafxcwd:dlgprop.obj
 0002:000db660       ?OnWizardBack@CPropertyPage@@UAEJXZ 10162660 f   nafxcwd:dlgprop.obj
 0002:000db670       ?OnWizardNext@CPropertyPage@@UAEJXZ 10162670 f   nafxcwd:dlgprop.obj
 0002:000db680       ?OnWizardFinish@CPropertyPage@@UAEHXZ 10162680 f   nafxcwd:dlgprop.obj
 0002:000db6a0       ?MapWizardResult@CPropertyPage@@IAEJJ@Z 101626a0 f   nafxcwd:dlgprop.obj
 0002:000db750       ?IsButtonEnabled@CPropertyPage@@IAEHH@Z 10162750 f   nafxcwd:dlgprop.obj
 0002:000db790       ?OnNotify@CPropertyPage@@MAEHIJPAJ@Z 10162790 f   nafxcwd:dlgprop.obj
 0002:000db9c0       ?PreTranslateMessage@CPropertyPage@@MAEHPAUtagMSG@@@Z 101629c0 f   nafxcwd:dlgprop.obj
 0002:000dba00       ?OnCtlColor@CPropertyPage@@IAEPAUHBRUSH__@@PAVCDC@@PAVCWnd@@I@Z 10162a00 f   nafxcwd:dlgprop.obj
 0002:000dba40       ?AssertValid@CPropertyPage@@UBEXXZ 10162a40 f   nafxcwd:dlgprop.obj
 0002:000dbad0       ?Dump@CPropertyPage@@UBEXAAVCDumpContext@@@Z 10162ad0 f   nafxcwd:dlgprop.obj
 0002:000dbb40       ?EndDialog@CPropertyPage@@QAEXH@Z 10162b40 f   nafxcwd:dlgprop.obj
 0002:000dbb80       ?GetMessageMap@CPropertySheet@@MBEPBUAFX_MSGMAP@@XZ 10162b80 f   nafxcwd:dlgprop.obj
 0002:000dbb90       ?OnSetDefID@CPropertySheet@@IAEJIJ@Z 10162b90 f   nafxcwd:dlgprop.obj
 0002:000dbca0       ??0CPropertySheet@@QAE@XZ  10162ca0 f   nafxcwd:dlgprop.obj
 0002:000dbd20       ??0CPropertySheet@@QAE@IPAVCWnd@@I@Z 10162d20 f   nafxcwd:dlgprop.obj
 0002:000dbdf0       ??0CPropertySheet@@QAE@PBDPAVCWnd@@I@Z 10162df0 f   nafxcwd:dlgprop.obj
 0002:000dbea0       ?Construct@CPropertySheet@@QAEXIPAVCWnd@@I@Z 10162ea0 f   nafxcwd:dlgprop.obj
 0002:000dbf10       ?Construct@CPropertySheet@@QAEXPBDPAVCWnd@@I@Z 10162f10 f   nafxcwd:dlgprop.obj
 0002:000dbf60       ?CommonConstruct@CPropertySheet@@QAEXPAVCWnd@@I@Z 10162f60 f   nafxcwd:dlgprop.obj
 0002:000dc000       ??0CPropertySheet@@QAE@IPAVCWnd@@IPAUHBITMAP__@@PAUHPALETTE__@@1@Z 10163000 f   nafxcwd:dlgprop.obj
 0002:000dc0e0       ??0CPropertySheet@@QAE@PBDPAVCWnd@@IPAUHBITMAP__@@PAUHPALETTE__@@2@Z 101630e0 f   nafxcwd:dlgprop.obj
 0002:000dc1a0       ?Construct@CPropertySheet@@QAEXIPAVCWnd@@IPAUHBITMAP__@@PAUHPALETTE__@@1@Z 101631a0 f   nafxcwd:dlgprop.obj
 0002:000dc210       ?Construct@CPropertySheet@@QAEXPBDPAVCWnd@@IPAUHBITMAP__@@PAUHPALETTE__@@2@Z 10163210 f   nafxcwd:dlgprop.obj
 0002:000dc270       ?CommonConstruct@CPropertySheet@@QAEXPAVCWnd@@IPAUHBITMAP__@@PAUHPALETTE__@@1@Z 10163270 f   nafxcwd:dlgprop.obj
 0002:000dc320       ?EnableStackedTabs@CPropertySheet@@QAEXH@Z 10163320 f   nafxcwd:dlgprop.obj
 0002:000dc340       ?SetTitle@CPropertySheet@@QAEXPBDI@Z 10163340 f   nafxcwd:dlgprop.obj
 0002:000dc400       ??1CPropertySheet@@UAE@XZ  10163400 f   nafxcwd:dlgprop.obj
 0002:000dc480       ?PreTranslateMessage@CPropertySheet@@UAEHPAUtagMSG@@@Z 10163480 f   nafxcwd:dlgprop.obj
 0002:000dc520       ?OnCmdMsg@CPropertySheet@@UAEHIHPAXPAUAFX_CMDHANDLERINFO@@@Z 10163520 f   nafxcwd:dlgprop.obj
 0002:000dc6b0       ?GetActivePage@CPropertySheet@@QBEPAVCPropertyPage@@XZ 101636b0 f   nafxcwd:dlgprop.obj
 0002:000dc720       ?ContinueModal@CPropertySheet@@UAEHXZ 10163720 f   nafxcwd:dlgprop.obj
 0002:000dc780       ?DoModal@CPropertySheet@@UAEHXZ 10163780 f   nafxcwd:dlgprop.obj
 0002:000dca10       ?AfxPropSheetCallback@@YGHPAUHWND__@@IJ@Z 10163a10 f   nafxcwd:dlgprop.obj
 0002:000dcab0       ?Create@CPropertySheet@@UAEHPAVCWnd@@KK@Z 10163ab0 f   nafxcwd:dlgprop.obj
 0002:000dcc50       ?BuildPropPageArray@CPropertySheet@@UAEXXZ 10163c50 f   nafxcwd:dlgprop.obj
 0002:000dcdf0       ?GetPageCount@CPropertySheet@@QBEHXZ 10163df0 f   nafxcwd:dlgprop.obj
 0002:000dce50       ?GetActiveIndex@CPropertySheet@@QBEHXZ 10163e50 f   nafxcwd:dlgprop.obj
 0002:000dcea0       ?SetActivePage@CPropertySheet@@QAEHH@Z 10163ea0 f   nafxcwd:dlgprop.obj
 0002:000dcee0       ?GetPageIndex@CPropertySheet@@QAEHPAVCPropertyPage@@@Z 10163ee0 f   nafxcwd:dlgprop.obj
 0002:000dcf30       ?SetActivePage@CPropertySheet@@QAEHPAVCPropertyPage@@@Z 10163f30 f   nafxcwd:dlgprop.obj
 0002:000dcfd0       ?AddPage@CPropertySheet@@QAEXPAVCPropertyPage@@@Z 10163fd0 f   nafxcwd:dlgprop.obj
 0002:000dd1e0       ?RemovePage@CPropertySheet@@QAEXPAVCPropertyPage@@@Z 101641e0 f   nafxcwd:dlgprop.obj
 0002:000dd280       ?RemovePage@CPropertySheet@@QAEXH@Z 10164280 f   nafxcwd:dlgprop.obj
 0002:000dd2d0       ?EndDialog@CPropertySheet@@QAEXH@Z 101642d0 f   nafxcwd:dlgprop.obj
 0002:000dd330       ?OnClose@CPropertySheet@@IAEXXZ 10164330 f   nafxcwd:dlgprop.obj
 0002:000dd370       ?OnKickIdle@CPropertySheet@@IAEJIJ@Z 10164370 f   nafxcwd:dlgprop.obj
 0002:000dd3d0       ?OnSysCommand@CPropertySheet@@IAEXIJ@Z 101643d0 f   nafxcwd:dlgprop.obj
 0002:000dd430       ?OnInitDialog@CPropertySheet@@UAEHXZ 10164430 f   nafxcwd:dlgprop.obj
 0002:000dd700       ?OnNcCreate@CPropertySheet@@IAEHPAUtagCREATESTRUCTA@@@Z 10164700 f   nafxcwd:dlgprop.obj
 0002:000dd730       ?HandleInitDialog@CPropertySheet@@IAEJIJ@Z 10164730 f   nafxcwd:dlgprop.obj
 0002:000dd760       ?OnCommand@CPropertySheet@@UAEHIJ@Z 10164760 f   nafxcwd:dlgprop.obj
 0002:000dd810       ?OnCommandHelp@CPropertySheet@@IAEJIJ@Z 10164810 f   nafxcwd:dlgprop.obj
 0002:000dd870       ?OnCtlColor@CPropertySheet@@IAEPAUHBRUSH__@@PAVCDC@@PAVCWnd@@I@Z 10164870 f   nafxcwd:dlgprop.obj
 0002:000dd8b0       ?AssertValid@CPropertySheet@@UBEXXZ 101648b0 f   nafxcwd:dlgprop.obj
 0002:000dd920       ?Dump@CPropertySheet@@UBEXAAVCDumpContext@@@Z 10164920 f   nafxcwd:dlgprop.obj
 0002:000de6d0       ??_ECPropertyPage@@UAEPAXI@Z 101656d0 f i nafxcwd:dlgprop.obj
 0002:000de6d0       ??_GCPropertyPage@@UAEPAXI@Z 101656d0 f i nafxcwd:dlgprop.obj
 0002:000de710       ??_GCPropertySheet@@UAEPAXI@Z 10165710 f i nafxcwd:dlgprop.obj
 0002:000de710       ??_ECPropertySheet@@UAEPAXI@Z 10165710 f i nafxcwd:dlgprop.obj
 0002:000de750       ?AfxTrackerTerm@@YAXXZ     10165750 f   nafxcwd:trckrect.obj
 0002:000de770       ??0CRectTracker@@QAE@PBUtagRECT@@I@Z 10165770 f   nafxcwd:trckrect.obj
 0002:000de800       ?Construct@CRectTracker@@IAEXXZ 10165800 f   nafxcwd:trckrect.obj
 0002:000dea60       ??1CRectTracker@@UAE@XZ    10165a60 f   nafxcwd:trckrect.obj
 0002:000dea80       ?Draw@CRectTracker@@QBEXPAVCDC@@@Z 10165a80 f   nafxcwd:trckrect.obj
 0002:000dedf0       ?SetCursor@CRectTracker@@QBEHPAVCWnd@@I@Z 10165df0 f   nafxcwd:trckrect.obj
 0002:000deed0       ?HitTest@CRectTracker@@QBEHVCPoint@@@Z 10165ed0 f   nafxcwd:trckrect.obj
 0002:000def80       ?NormalizeHit@CRectTracker@@QBEHH@Z 10165f80 f   nafxcwd:trckrect.obj
 0002:000df020       ?Track@CRectTracker@@QAEHPAVCWnd@@VCPoint@@H0@Z 10166020 f   nafxcwd:trckrect.obj
 0002:000df080       ?TrackRubberBand@CRectTracker@@QAEHPAVCWnd@@VCPoint@@H@Z 10166080 f   nafxcwd:trckrect.obj
 0002:000df0d0       ?DrawTrackerRect@CRectTracker@@UAEXPBUtagRECT@@PAVCWnd@@PAVCDC@@1@Z 101660d0 f   nafxcwd:trckrect.obj
 0002:000df240       ?AdjustRect@CRectTracker@@UAEXHPAUtagRECT@@@Z 10166240 f   nafxcwd:trckrect.obj
 0002:000df420       ?GetTrueRect@CRectTracker@@QBEXPAUtagRECT@@@Z 10166420 f   nafxcwd:trckrect.obj
 0002:000df4e0       ?OnChangedRect@CRectTracker@@UAEXABVCRect@@@Z 101664e0 f   nafxcwd:trckrect.obj
 0002:000df4f0       ?GetHandleRect@CRectTracker@@IBEXHPAVCRect@@@Z 101664f0 f   nafxcwd:trckrect.obj
 0002:000df660       ?GetHandleSize@CRectTracker@@MBEHPBUtagRECT@@@Z 10166660 f   nafxcwd:trckrect.obj
 0002:000df720       ?HitTestHandles@CRectTracker@@IBEHVCPoint@@@Z 10166720 f   nafxcwd:trckrect.obj
 0002:000df850       ?TrackHandle@CRectTracker@@IAEHHPAVCWnd@@VCPoint@@0@Z 10166850 f   nafxcwd:trckrect.obj
 0002:000dfc60       ?GetModifyPointers@CRectTracker@@IAEXHPAPAH0PAH1@Z 10166c60 f   nafxcwd:trckrect.obj
 0002:000dfd90       ?GetHandleMask@CRectTracker@@UBEIXZ 10166d90 f   nafxcwd:trckrect.obj
 0002:000e03b0       ?AfxWingdixTerm@@YAXXZ     101673b0 f   nafxcwd:wingdix.obj
 0002:000e03c0       ?DPtoHIMETRIC@CDC@@QBEXPAUtagSIZE@@@Z 101673c0 f   nafxcwd:wingdix.obj
 0002:000e04f0       ?HIMETRICtoDP@CDC@@QBEXPAUtagSIZE@@@Z 101674f0 f   nafxcwd:wingdix.obj
 0002:000e0620       ?LPtoHIMETRIC@CDC@@QBEXPAUtagSIZE@@@Z 10167620 f   nafxcwd:wingdix.obj
 0002:000e0670       ?HIMETRICtoLP@CDC@@QBEXPAUtagSIZE@@@Z 10167670 f   nafxcwd:wingdix.obj
 0002:000e06c0       ?GetHalftoneBrush@CDC@@SGPAVCBrush@@XZ 101676c0 f   nafxcwd:wingdix.obj
 0002:000e0790       ?DrawDragRect@CDC@@QAEXPBUtagRECT@@UtagSIZE@@01PAVCBrush@@2@Z 10167790 f   nafxcwd:wingdix.obj
 0002:000e0ad0       ?FillSolidRect@CDC@@QAEXPBUtagRECT@@K@Z 10167ad0 f   nafxcwd:wingdix.obj
 0002:000e0b40       ?FillSolidRect@CDC@@QAEXHHHHK@Z 10167b40 f   nafxcwd:wingdix.obj
 0002:000e0bd0       ?Draw3dRect@CDC@@QAEXPBUtagRECT@@KK@Z 10167bd0 f   nafxcwd:wingdix.obj
 0002:000e0c20       ?Draw3dRect@CDC@@QAEXHHHHKK@Z 10167c20 f   nafxcwd:wingdix.obj
 0002:000e0cb0       ?CreatePointFont@CFont@@QAEHHPBDPAVCDC@@@Z 10167cb0 f   nafxcwd:wingdix.obj
 0002:000e0d30       ?CreatePointFontIndirect@CFont@@QAEHPBUtagLOGFONTA@@PAVCDC@@@Z 10167d30 f   nafxcwd:wingdix.obj
 0002:000e1110       ?GetMessageMap@CFrameWnd@@MBEPBUAFX_MSGMAP@@XZ 10168110 f   nafxcwd:winfrm.obj
 0002:000e1120       ??0CFrameWnd@@QAE@XZ       10168120 f   nafxcwd:winfrm.obj
 0002:000e12c0       ??1CFrameWnd@@UAE@XZ       101682c0 f   nafxcwd:winfrm.obj
 0002:000e1390       ?AddFrameWnd@CFrameWnd@@IAEXXZ 10168390 f   nafxcwd:winfrm.obj
 0002:000e13c0       ?RemoveFrameWnd@CFrameWnd@@IAEXXZ 101683c0 f   nafxcwd:winfrm.obj
 0002:000e13f0       ?LoadAccelTable@CFrameWnd@@QAEHPBD@Z 101683f0 f   nafxcwd:winfrm.obj
 0002:000e1460       ?GetDefaultAccelerator@CFrameWnd@@UAEPAUHACCEL__@@XZ 10168460 f   nafxcwd:winfrm.obj
 0002:000e14b0       ?PreTranslateMessage@CFrameWnd@@UAEHPAUtagMSG@@@Z 101684b0 f   nafxcwd:winfrm.obj
 0002:000e1590       ?PostNcDestroy@CFrameWnd@@MAEXXZ 10168590 f   nafxcwd:winfrm.obj
 0002:000e15d0       ?OnPaletteChanged@CFrameWnd@@IAEXPAVCWnd@@@Z 101685d0 f   nafxcwd:winfrm.obj
 0002:000e1610       ?OnQueryNewPalette@CFrameWnd@@IAEHXZ 10168610 f   nafxcwd:winfrm.obj
 0002:000e1650       ?ExitHelpMode@CFrameWnd@@UAEXXZ 10168650 f   nafxcwd:winfrm.obj
 0002:000e1720       ?OnSetCursor@CFrameWnd@@IAEHPAVCWnd@@II@Z 10168720 f   nafxcwd:winfrm.obj
 0002:000e1780       ?OnCommandHelp@CFrameWnd@@IAEJIJ@Z 10168780 f   nafxcwd:winfrm.obj
 0002:000e1800       ?OnHelpHitTest@CFrameWnd@@IAEJIJ@Z 10168800 f   nafxcwd:winfrm.obj
 0002:000e1830       ?OnCommand@CFrameWnd@@MAEHIJ@Z 10168830 f   nafxcwd:winfrm.obj
 0002:000e18f0       ?AfxIsDescendant@@YGHPAUHWND__@@0@Z 101688f0 f   nafxcwd:winfrm.obj
 0002:000e1960       ?BeginModalState@CFrameWnd@@UAEXXZ 10168960 f   nafxcwd:winfrm.obj
 0002:000e1b90       ?EndModalState@CFrameWnd@@UAEXXZ 10168b90 f   nafxcwd:winfrm.obj
 0002:000e1ca0       ?ShowOwnedWindows@CFrameWnd@@QAEXH@Z 10168ca0 f   nafxcwd:winfrm.obj
 0002:000e1db0       ?OnEnable@CFrameWnd@@IAEXH@Z 10168db0 f   nafxcwd:winfrm.obj
 0002:000e1ee0       ?NotifyFloatingWindows@CFrameWnd@@QAEXK@Z 10168ee0 f   nafxcwd:winfrm.obj
 0002:000e2030       ?PreCreateWindow@CFrameWnd@@MAEHAAUtagCREATESTRUCTA@@@Z 10169030 f   nafxcwd:winfrm.obj
 0002:000e20b0       ?Create@CFrameWnd@@UAEHPBD0KABUtagRECT@@PAVCWnd@@0KPAUCCreateContext@@@Z 101690b0 f   nafxcwd:winfrm.obj
 0002:000e21e0       ?CreateView@CFrameWnd@@QAEPAVCWnd@@PAUCCreateContext@@I@Z 101691e0 f   nafxcwd:winfrm.obj
 0002:000e2370       ?OnCreateClient@CFrameWnd@@MAEHPAUtagCREATESTRUCTA@@PAUCCreateContext@@@Z 10169370 f   nafxcwd:winfrm.obj
 0002:000e23b0       ?OnCreate@CFrameWnd@@IAEHPAUtagCREATESTRUCTA@@@Z 101693b0 f   nafxcwd:winfrm.obj
 0002:000e23e0       ?OnCreateHelper@CFrameWnd@@IAEHPAUtagCREATESTRUCTA@@PAUCCreateContext@@@Z 101693e0 f   nafxcwd:winfrm.obj
 0002:000e2480       ?GetIconWndClass@CFrameWnd@@IAEPBDKI@Z 10169480 f   nafxcwd:winfrm.obj
 0002:000e2540       ?LoadFrame@CFrameWnd@@UAEHIKPAVCWnd@@PAUCCreateContext@@@Z 10169540 f   nafxcwd:winfrm.obj
 0002:000e2730       ?OnUpdateFrameMenu@CFrameWnd@@UAEXPAUHMENU__@@@Z 10169730 f   nafxcwd:winfrm.obj
 0002:000e2790       ?InitialUpdateFrame@CFrameWnd@@QAEXPAVCDocument@@H@Z 10169790 f   nafxcwd:winfrm.obj
 0002:000e28b0       ?OnClose@CFrameWnd@@IAEXXZ 101698b0 f   nafxcwd:winfrm.obj
 0002:000e2a30       ?OnDestroy@CFrameWnd@@IAEXXZ 10169a30 f   nafxcwd:winfrm.obj
 0002:000e2ae0       ?RemoveControlBar@CFrameWnd@@QAEXPAVCControlBar@@@Z 10169ae0 f   nafxcwd:winfrm.obj
 0002:000e2b20       ?OnCmdMsg@CFrameWnd@@UAEHIHPAXPAUAFX_CMDHANDLERINFO@@@Z 10169b20 f   nafxcwd:winfrm.obj
 0002:000e2c50       ?OnHScroll@CFrameWnd@@IAEXIIPAVCScrollBar@@@Z 10169c50 f   nafxcwd:winfrm.obj
 0002:000e2ca0       ?OnVScroll@CFrameWnd@@IAEXIIPAVCScrollBar@@@Z 10169ca0 f   nafxcwd:winfrm.obj
 0002:000e2cf0       ?OnActivateTopLevel@CFrameWnd@@IAEJIJ@Z 10169cf0 f   nafxcwd:winfrm.obj
 0002:000e2df0       ?OnActivate@CFrameWnd@@IAEXIPAVCWnd@@H@Z 10169df0 f   nafxcwd:winfrm.obj
 0002:000e2f60       ?OnNcActivate@CFrameWnd@@IAEHH@Z 10169f60 f   nafxcwd:winfrm.obj
 0002:000e2fb0       ?OnSysCommand@CFrameWnd@@IAEXIJ@Z 10169fb0 f   nafxcwd:winfrm.obj
 0002:000e31d0       ?OnDropFiles@CFrameWnd@@IAEXPAUHDROP__@@@Z 1016a1d0 f   nafxcwd:winfrm.obj
 0002:000e3290       ?OnQueryEndSession@CFrameWnd@@IAEHXZ 1016a290 f   nafxcwd:winfrm.obj
 0002:000e32d0       ?OnEndSession@CFrameWnd@@IAEXH@Z 1016a2d0 f   nafxcwd:winfrm.obj
 0002:000e3320       ?OnDDEInitiate@CFrameWnd@@IAEJIJ@Z 1016a320 f   nafxcwd:winfrm.obj
 0002:000e34d0       ?OnDDEExecute@CFrameWnd@@IAEJIJ@Z 1016a4d0 f   nafxcwd:winfrm.obj
 0002:000e3680       ?OnDDETerminate@CFrameWnd@@IAEJIJ@Z 1016a680 f   nafxcwd:winfrm.obj
 0002:000e36b0       ?GetActiveView@CFrameWnd@@QBEPAVCView@@XZ 1016a6b0 f   nafxcwd:winfrm.obj
 0002:000e3700       ?SetActiveView@CFrameWnd@@QAEXPAVCView@@H@Z 1016a700 f   nafxcwd:winfrm.obj
 0002:000e37e0       ?OnSetFocus@CFrameWnd@@IAEXPAVCWnd@@@Z 1016a7e0 f   nafxcwd:winfrm.obj
 0002:000e3820       ?GetActiveDocument@CFrameWnd@@UAEPAVCDocument@@XZ 1016a820 f   nafxcwd:winfrm.obj
 0002:000e3860       ?ShowControlBar@CFrameWnd@@QAEXPAVCControlBar@@HH@Z 1016a860 f   nafxcwd:winfrm.obj
 0002:000e3a40       ?OnInitMenu@CFrameWnd@@IAEXPAVCMenu@@@Z 1016aa40 f   nafxcwd:winfrm.obj
 0002:000e3a80       ?OnInitMenuPopup@CFrameWnd@@IAEXPAVCMenu@@IH@Z 1016aa80 f   nafxcwd:winfrm.obj
 0002:000e3d20       ?OnMenuSelect@CFrameWnd@@IAEXIIPAUHMENU__@@@Z 1016ad20 f   nafxcwd:winfrm.obj
 0002:000e3f10       ?GetMessageString@CFrameWnd@@UBEXIAAV?$CStringT@DV?$StrTraitMFC@DV?$ChTraitsCRT@D@ATL@@@@@ATL@@@Z 1016af10 f   nafxcwd:winfrm.obj
 0002:000e3fa0       ?OnPopMessageString@CFrameWnd@@IAEJIJ@Z 1016afa0 f   nafxcwd:winfrm.obj
 0002:000e3fe0       ?OnSetMessageString@CFrameWnd@@IAEJIJ@Z 1016afe0 f   nafxcwd:winfrm.obj
 0002:000e4130       ?OnHelpPromptAddr@CFrameWnd@@IAEJIJ@Z 1016b130 f   nafxcwd:winfrm.obj
 0002:000e4150       ?GetMessageBar@CFrameWnd@@UAEPAVCWnd@@XZ 1016b150 f   nafxcwd:winfrm.obj
 0002:000e4170       ?OnEnterIdle@CFrameWnd@@IAEXIPAVCWnd@@@Z 1016b170 f   nafxcwd:winfrm.obj
 0002:000e41f0       ?SetMessageText@CFrameWnd@@QAEXPBD@Z 1016b1f0 f   nafxcwd:winfrm.obj
 0002:000e4210       ?SetMessageText@CFrameWnd@@QAEXI@Z 1016b210 f   nafxcwd:winfrm.obj
 0002:000e4230       ?DestroyDockBars@CFrameWnd@@QAEXXZ 1016b230 f   nafxcwd:winfrm.obj
 0002:000e43b0       ?GetControlBar@CFrameWnd@@QAEPAVCControlBar@@I@Z 1016b3b0 f   nafxcwd:winfrm.obj
 0002:000e4460       ?OnUpdateControlBarMenu@CFrameWnd@@QAEXPAVCCmdUI@@@Z 1016b460 f   nafxcwd:winfrm.obj
 0002:000e44b0       ?OnBarCheck@CFrameWnd@@QAEHI@Z 1016b4b0 f   nafxcwd:winfrm.obj
 0002:000e4500       ?OnToolTipText@CFrameWnd@@IAEHIPAUtagNMHDR@@PAJ@Z 1016b500 f   nafxcwd:winfrm.obj
 0002:000e46b0       ?OnUpdateKeyIndicator@CFrameWnd@@IAEXPAVCCmdUI@@@Z 1016b6b0 f   nafxcwd:winfrm.obj
 0002:000e47a0       ?OnUpdateContextHelp@CFrameWnd@@IAEXPAVCCmdUI@@@Z 1016b7a0 f   nafxcwd:winfrm.obj
 0002:000e47e0       ?OnUpdateFrameTitle@CFrameWnd@@UAEXH@Z 1016b7e0 f   nafxcwd:winfrm.obj
 0002:000e4870       ?UpdateFrameTitleForDocument@CFrameWnd@@QAEXPBD@Z 1016b870 f   nafxcwd:winfrm.obj
 0002:000e49b0       ?OnSetPreviewMode@CFrameWnd@@UAEXHPAUCPrintPreviewState@@@Z 1016b9b0 f   nafxcwd:winfrm.obj
 0002:000e4d60       ?DelayUpdateFrameMenu@CFrameWnd@@UAEXPAUHMENU__@@@Z 1016bd60 f   nafxcwd:winfrm.obj
 0002:000e4d90       ?OnIdleUpdateCmdUI@CFrameWnd@@IAEXXZ 1016bd90 f   nafxcwd:winfrm.obj
 0002:000e4e80       ?GetActiveFrame@CFrameWnd@@UAEPAV1@XZ 1016be80 f   nafxcwd:winfrm.obj
 0002:000e4e90       ?RecalcLayout@CFrameWnd@@UAEXH@Z 1016be90 f   nafxcwd:winfrm.obj
 0002:000e4fe0       ?NegotiateBorderSpace@CFrameWnd@@UAEHIPAUtagRECT@@@Z 1016bfe0 f   nafxcwd:winfrm.obj
 0002:000e50e0       ?OnSize@CFrameWnd@@IAEXIHH@Z 1016c0e0 f   nafxcwd:winfrm.obj
 0002:000e5120       ?OnEraseBkgnd@CFrameWnd@@IAEHPAVCDC@@@Z 1016c120 f   nafxcwd:winfrm.obj
 0002:000e5150       ?OnRegisteredMouseWheel@CFrameWnd@@IAEJIJ@Z 1016c150 f   nafxcwd:winfrm.obj
 0002:000e5230       ?OnChevronPushed@CFrameWnd@@IAEHIPAUtagNMHDR@@PAJ@Z 1016c230 f   nafxcwd:winfrm.obj
 0002:000e5a50       ?ActivateFrame@CFrameWnd@@UAEXH@Z 1016ca50 f   nafxcwd:winfrm.obj
 0002:000e5ac0       ?BringToTop@CFrameWnd@@IAEXH@Z 1016cac0 f   nafxcwd:winfrm.obj
 0002:000e5b10       ?AssertValid@CFrameWnd@@UBEXXZ 1016cb10 f   nafxcwd:winfrm.obj
 0002:000e5b50       ?Dump@CFrameWnd@@UBEXAAVCDumpContext@@@Z 1016cb50 f   nafxcwd:winfrm.obj
 0002:000e5c40       ?GetDockingFrame@CControlBar@@QBEPAVCFrameWnd@@XZ 1016cc40 f   nafxcwd:winfrm.obj
 0002:000e5cb0       ?IsFloating@CControlBar@@QBEHXZ 1016ccb0 f   nafxcwd:winfrm.obj
 0002:000e7010       ??_ECFrameWnd@@UAEPAXI@Z   1016e010 f i nafxcwd:winfrm.obj
 0002:000e7010       ??_GCFrameWnd@@UAEPAXI@Z   1016e010 f i nafxcwd:winfrm.obj
 0002:000e7130       ?GetMessageMap@CMiniFrameWnd@@MBEPBUAFX_MSGMAP@@XZ 1016e130 f   nafxcwd:winmini.obj
 0002:000e7140       ??0CMiniFrameWnd@@QAE@XZ   1016e140 f   nafxcwd:winmini.obj
 0002:000e7180       ??1CMiniFrameWnd@@UAE@XZ   1016e180 f   nafxcwd:winmini.obj
 0002:000e71f0       ?Create@CMiniFrameWnd@@UAEHPBD0KABUtagRECT@@PAVCWnd@@I@Z 1016e1f0 f   nafxcwd:winmini.obj
 0002:000e7220       ?CreateEx@CMiniFrameWnd@@UAEHKPBD0KABUtagRECT@@PAVCWnd@@I@Z 1016e220 f   nafxcwd:winmini.obj
 0002:000e72c0       ?OnNcCreate@CMiniFrameWnd@@QAEHPAUtagCREATESTRUCTA@@@Z 1016e2c0 f   nafxcwd:winmini.obj
 0002:000e7390       ?PreCreateWindow@CMiniFrameWnd@@MAEHAAUtagCREATESTRUCTA@@@Z 1016e390 f   nafxcwd:winmini.obj
 0002:000e7420       ?OnGetMinMaxInfo@CMiniFrameWnd@@QAEXPAUtagMINMAXINFO@@@Z 1016e420 f   nafxcwd:winmini.obj
 0002:000e7490       ?OnNcActivate@CMiniFrameWnd@@QAEHH@Z 1016e490 f   nafxcwd:winmini.obj
 0002:000e74e0       ?OnNcHitTest@CMiniFrameWnd@@QAEIVCPoint@@@Z 1016e4e0 f   nafxcwd:winmini.obj
 0002:000e7650       ?OnSysCommand@CMiniFrameWnd@@QAEXIJ@Z 1016e650 f   nafxcwd:winmini.obj
 0002:000e76e0       ?CalcBorders@CMiniFrameWnd@@SGXPAUtagRECT@@KK@Z 1016e6e0 f   nafxcwd:winmini.obj
 0002:000e7700       ?OnFloatStatus@CMiniFrameWnd@@QAEJIJ@Z 1016e700 f   nafxcwd:winmini.obj
 0002:000e7850       ?OnQueryCenterWnd@CMiniFrameWnd@@QAEJIJ@Z 1016e850 f   nafxcwd:winmini.obj
 0002:000e7a70       ??_GCMiniFrameWnd@@UAEPAXI@Z 1016ea70 f i nafxcwd:winmini.obj
 0002:000e7a70       ??_ECMiniFrameWnd@@UAEPAXI@Z 1016ea70 f i nafxcwd:winmini.obj
 0002:000e7ab0       ?CreateFloatingFrame@CFrameWnd@@QAEPAVCMiniDockFrameWnd@@K@Z 1016eab0 f   nafxcwd:winfrm2.obj
 0002:000e7b50       ?EnableDocking@CFrameWnd@@QAEXK@Z 1016eb50 f   nafxcwd:winfrm2.obj
 0002:000e7c90       ?DockControlBar@CFrameWnd@@QAEXPAVCControlBar@@IPBUtagRECT@@@Z 1016ec90 f   nafxcwd:winfrm2.obj
 0002:000e7ce0       ?DockControlBar@CFrameWnd@@QAEXPAVCControlBar@@PAVCDockBar@@PBUtagRECT@@@Z 1016ece0 f   nafxcwd:winfrm2.obj
 0002:000e7e10       ?ReDockControlBar@CFrameWnd@@QAEXPAVCControlBar@@PAVCDockBar@@PBUtagRECT@@@Z 1016ee10 f   nafxcwd:winfrm2.obj
 0002:000e7fa0       ?FloatControlBar@CFrameWnd@@QAEXPAVCControlBar@@VCPoint@@K@Z 1016efa0 f   nafxcwd:winfrm2.obj
 0002:000e8210       ?CanDock@CFrameWnd@@QAEKVCRect@@KPAPAVCDockBar@@@Z 1016f210 f   nafxcwd:winfrm2.obj
 0002:000e8560       ?GetMessageMap@CEditView@@MBEPBUAFX_MSGMAP@@XZ 1016f560 f   nafxcwd:viewedit.obj
 0002:000e8570       ??0_AFX_EDIT_STATE@@QAE@XZ 1016f570 f   nafxcwd:viewedit.obj
 0002:000e85b0       ??1_AFX_EDIT_STATE@@UAE@XZ 1016f5b0 f   nafxcwd:viewedit.obj
 0002:000e85f0       ??0CEditView@@QAE@XZ       1016f5f0 f   nafxcwd:viewedit.obj
 0002:000e8690       ??1CEditView@@UAE@XZ       1016f690 f   nafxcwd:viewedit.obj
 0002:000e8740       ?PreCreateWindow@CEditView@@MAEHAAUtagCREATESTRUCTA@@@Z 1016f740 f   nafxcwd:viewedit.obj
 0002:000e8770       ?OnCreate@CEditView@@IAEHPAUtagCREATESTRUCTA@@@Z 1016f770 f   nafxcwd:viewedit.obj
 0002:000e87c0       ?OnDestroy@CEditView@@IAEXXZ 1016f7c0 f   nafxcwd:viewedit.obj
 0002:000e87f0       ?CalcWindowRect@CEditView@@MAEXPAUtagRECT@@I@Z 1016f7f0 f   nafxcwd:viewedit.obj
 0002:000e8880       ?DeleteContents@CEditView@@UAEXXZ 1016f880 f   nafxcwd:viewedit.obj
 0002:000e88e0       ?Serialize@CEditView@@UAEXAAVCArchive@@@Z 1016f8e0 f   nafxcwd:viewedit.obj
 0002:000e89b0       ?ReadFromArchive@CEditView@@QAEXAAVCArchive@@I@Z 1016f9b0 f   nafxcwd:viewedit.obj
 0002:000e8b60       ?WriteToArchive@CEditView@@QAEXAAVCArchive@@@Z 1016fb60 f   nafxcwd:viewedit.obj
 0002:000e8c50       ?SerializeRaw@CEditView@@QAEXAAVCArchive@@@Z 1016fc50 f   nafxcwd:viewedit.obj
 0002:000e8d40       ?_AfxEndOfLine@@YGIPBDII@Z 1016fd40 f   nafxcwd:viewedit.obj
 0002:000e8db0       ?_AfxNextLine@@YGIPBDII@Z  1016fdb0 f   nafxcwd:viewedit.obj
 0002:000e8e40       ?_AfxClipLine@@YGIPAVCDC@@QAHHHPBDII@Z 1016fe40 f   nafxcwd:viewedit.obj
 0002:000e9090       ?OnPreparePrinting@CEditView@@MAEHPAUCPrintInfo@@@Z 10170090 f   nafxcwd:viewedit.obj
 0002:000e90b0       ?OnBeginPrinting@CEditView@@MAEXPAVCDC@@PAUCPrintInfo@@@Z 101700b0 f   nafxcwd:viewedit.obj
 0002:000e92a0       ?PaginateTo@CEditView@@IAEHPAVCDC@@PAUCPrintInfo@@@Z 101702a0 f   nafxcwd:viewedit.obj
 0002:000e94c0       ?OnPrepareDC@CEditView@@UAEXPAVCDC@@PAUCPrintInfo@@@Z 101704c0 f   nafxcwd:viewedit.obj
 0002:000e9560       ?PrintInsideRect@CEditView@@QAEIPAVCDC@@AAUtagRECT@@II@Z 10170560 f   nafxcwd:viewedit.obj
 0002:000e9aa0       ?OnPrint@CEditView@@MAEXPAVCDC@@PAUCPrintInfo@@@Z 10170aa0 f   nafxcwd:viewedit.obj
 0002:000e9c40       ?OnEndPrinting@CEditView@@MAEXPAVCDC@@PAUCPrintInfo@@@Z 10170c40 f   nafxcwd:viewedit.obj
 0002:000e9cb0       ?OnUpdateNeedSel@CEditView@@IAEXPAVCCmdUI@@@Z 10170cb0 f   nafxcwd:viewedit.obj
 0002:000e9d20       ?OnUpdateNeedClip@CEditView@@IAEXPAVCCmdUI@@@Z 10170d20 f   nafxcwd:viewedit.obj
 0002:000e9d70       ?OnUpdateNeedText@CEditView@@IAEXPAVCCmdUI@@@Z 10170d70 f   nafxcwd:viewedit.obj
 0002:000e9dc0       ?OnUpdateNeedFind@CEditView@@IAEXPAVCCmdUI@@@Z 10170dc0 f   nafxcwd:viewedit.obj
 0002:000e9e40       ?OnUpdateEditUndo@CEditView@@IAEXPAVCCmdUI@@@Z 10170e40 f   nafxcwd:viewedit.obj
 0002:000e9e90       ?OnEditChange@CEditView@@IAEHXZ 10170e90 f   nafxcwd:viewedit.obj
 0002:000e9ee0       ?OnEditCut@CEditView@@IAEXXZ 10170ee0 f   nafxcwd:viewedit.obj
 0002:000e9f20       ?OnEditCopy@CEditView@@IAEXXZ 10170f20 f   nafxcwd:viewedit.obj
 0002:000e9f60       ?OnEditPaste@CEditView@@IAEXXZ 10170f60 f   nafxcwd:viewedit.obj
 0002:000e9fa0       ?OnEditClear@CEditView@@IAEXXZ 10170fa0 f   nafxcwd:viewedit.obj
 0002:000e9fe0       ?OnEditUndo@CEditView@@IAEXXZ 10170fe0 f   nafxcwd:viewedit.obj
 0002:000ea020       ?OnEditSelectAll@CEditView@@IAEXXZ 10171020 f   nafxcwd:viewedit.obj
 0002:000ea070       ?OnSetFont@CEditView@@IAEJIJ@Z 10171070 f   nafxcwd:viewedit.obj
 0002:000ea0d0       ?SetPrinterFont@CEditView@@QAEXPAVCFont@@@Z 101710d0 f   nafxcwd:viewedit.obj
 0002:000ea120       ?GetPrinterFont@CEditView@@QBEPAVCFont@@XZ 10171120 f   nafxcwd:viewedit.obj
 0002:000ea150       ?LockBuffer@CEditView@@QBEPBDXZ 10171150 f   nafxcwd:viewedit.obj
 0002:000ea330       ?UnlockBuffer@CEditView@@QBEXXZ 10171330 f   nafxcwd:viewedit.obj
 0002:000ea3b0       ?GetBufferLength@CEditView@@QBEIXZ 101713b0 f   nafxcwd:viewedit.obj
 0002:000ea410       ?GetSelectedText@CEditView@@QBEXAAV?$CStringT@DV?$StrTraitMFC@DV?$ChTraitsCRT@D@ATL@@@@@ATL@@@Z 10171410 f   nafxcwd:viewedit.obj
 0002:000ea4e0       ?OnEditFind@CEditView@@IAEXXZ 101714e0 f   nafxcwd:viewedit.obj
 0002:000ea520       ?OnEditReplace@CEditView@@IAEXXZ 10171520 f   nafxcwd:viewedit.obj
 0002:000ea560       ?OnEditRepeat@CEditView@@IAEXXZ 10171560 f   nafxcwd:viewedit.obj
 0002:000ea5e0       ?OnEditFindReplace@CEditView@@IAEXH@Z 101715e0 f   nafxcwd:viewedit.obj
 0002:000ea880       ?OnFindNext@CEditView@@MAEXPBDHH@Z 10171880 f   nafxcwd:viewedit.obj
 0002:000ea920       ?OnReplaceSel@CEditView@@MAEXPBDHH0@Z 10171920 f   nafxcwd:viewedit.obj
 0002:000ea9e0       ?OnReplaceAll@CEditView@@MAEXPBD0H@Z 101719e0 f   nafxcwd:viewedit.obj
 0002:000eaac0       ?InitializeReplace@CEditView@@IAEHXZ 10171ac0 f   nafxcwd:viewedit.obj
 0002:000eabd0       ?OnFindReplaceCmd@CEditView@@IAEJIJ@Z 10171bd0 f   nafxcwd:viewedit.obj
 0002:000eae60       ?SameAsSelected@CEditView@@IAEHPBDH@Z 10171e60 f   nafxcwd:viewedit.obj
 0002:000eaf40       ?FindTextA@CEditView@@QAEHPBDHH@Z 10171f40 f   nafxcwd:viewedit.obj
 0002:000eb410       ?OnTextNotFound@CEditView@@MAEXPBD@Z 10172410 f   nafxcwd:viewedit.obj
 0002:000eb440       ?SetTabStops@CEditView@@QAEXH@Z 10172440 f   nafxcwd:viewedit.obj
 0002:000eb4a0       ?AssertValid@CEditView@@UBEXXZ 101724a0 f   nafxcwd:viewedit.obj
 0002:000eb550       ?Dump@CEditView@@UBEXAAVCDumpContext@@@Z 10172550 f   nafxcwd:viewedit.obj
 0002:000ec320       ??_G_AFX_EDIT_STATE@@UAEPAXI@Z 10173320 f i nafxcwd:viewedit.obj
 0002:000ec320       ??_E_AFX_EDIT_STATE@@UAEPAXI@Z 10173320 f i nafxcwd:viewedit.obj
 0002:000ec360       ??_ECEditView@@UAEPAXI@Z   10173360 f i nafxcwd:viewedit.obj
 0002:000ec360       ??_GCEditView@@UAEPAXI@Z   10173360 f i nafxcwd:viewedit.obj
 0002:000ed420       ??0CObject@@IAE@XZ         10174420 f   nafxcwd:afxinl1.obj
 0002:000ed440       ??1CObject@@UAE@XZ         10174440 f   nafxcwd:afxinl1.obj
 0002:000ed460       ?Serialize@CObject@@UAEXAAVCArchive@@@Z 10174460 f   nafxcwd:afxinl1.obj
 0002:000ed470       ??2CObject@@SGPAXIPAX@Z    10174470 f   nafxcwd:afxinl1.obj
 0002:000ed480       ?AfxDynamicDownCast@@YAPBVCObject@@PAUCRuntimeClass@@PBV1@@Z 10174480 f   nafxcwd:afxinl1.obj
 0002:000ed4a0       ?AfxStaticDownCast@@YAPBVCObject@@PAUCRuntimeClass@@PBV1@@Z 101744a0 f   nafxcwd:afxinl1.obj
 0002:000ed4c0       ??1CException@@UAE@XZ      101744c0 f   nafxcwd:afxinl1.obj
 0002:000ed4e0       ??0CSimpleException@@QAE@XZ 101744e0 f   nafxcwd:afxinl1.obj
 0002:000ed520       ??0CSimpleException@@QAE@H@Z 10174520 f   nafxcwd:afxinl1.obj
 0002:000ed560       ??1CSimpleException@@UAE@XZ 10174560 f   nafxcwd:afxinl1.obj
 0002:000ed580       ??0CMemoryException@@QAE@XZ 10174580 f   nafxcwd:afxinl1.obj
 0002:000ed5a0       ??0CMemoryException@@QAE@HI@Z 101745a0 f   nafxcwd:afxinl1.obj
 0002:000ed5e0       ??1CMemoryException@@UAE@XZ 101745e0 f   nafxcwd:afxinl1.obj
 0002:000ed600       ??0CNotSupportedException@@QAE@XZ 10174600 f   nafxcwd:afxinl1.obj
 0002:000ed620       ??0CNotSupportedException@@QAE@HI@Z 10174620 f   nafxcwd:afxinl1.obj
 0002:000ed660       ??1CNotSupportedException@@UAE@XZ 10174660 f   nafxcwd:afxinl1.obj
 0002:000ed680       ??0CInvalidArgException@@QAE@XZ 10174680 f   nafxcwd:afxinl1.obj
 0002:000ed6a0       ??0CInvalidArgException@@QAE@HI@Z 101746a0 f   nafxcwd:afxinl1.obj
 0002:000ed6e0       ??1CInvalidArgException@@UAE@XZ 101746e0 f   nafxcwd:afxinl1.obj
 0002:000ed700       ??0CArchiveException@@QAE@HPBD@Z 10174700 f   nafxcwd:afxinl1.obj
 0002:000ed780       ??1CArchiveException@@UAE@XZ 10174780 f   nafxcwd:afxinl1.obj
 0002:000ed7b0       ??0CFileException@@QAE@HJPBD@Z 101747b0 f   nafxcwd:afxinl1.obj
 0002:000ed830       ??1CFileException@@UAE@XZ  10174830 f   nafxcwd:afxinl1.obj
 0002:000ed860       ??BCFile@@QBEPAXXZ         10174860 f   nafxcwd:afxinl1.obj
 0002:000ed880       ?SeekToEnd@CFile@@QAE_KXZ  10174880 f   nafxcwd:afxinl1.obj
 0002:000ed8a0       ?SeekToBegin@CFile@@QAEXXZ 101748a0 f   nafxcwd:afxinl1.obj
 0002:000ed8c0       ?SetFilePath@CFile@@UAEXPBD@Z 101748c0 f   nafxcwd:afxinl1.obj
 0002:000ed920       ?IsReadOnly@CFileFind@@QBEHXZ 10174920 f   nafxcwd:afxinl1.obj
 0002:000ed940       ?IsDirectory@CFileFind@@QBEHXZ 10174940 f   nafxcwd:afxinl1.obj
 0002:000ed960       ?IsCompressed@CFileFind@@QBEHXZ 10174960 f   nafxcwd:afxinl1.obj
 0002:000ed980       ?IsSystem@CFileFind@@QBEHXZ 10174980 f   nafxcwd:afxinl1.obj
 0002:000ed9a0       ?IsHidden@CFileFind@@QBEHXZ 101749a0 f   nafxcwd:afxinl1.obj
 0002:000ed9c0       ?IsTemporary@CFileFind@@QBEHXZ 101749c0 f   nafxcwd:afxinl1.obj
 0002:000ed9e0       ?IsNormal@CFileFind@@QBEHXZ 101749e0 f   nafxcwd:afxinl1.obj
 0002:000eda00       ?IsArchived@CFileFind@@QBEHXZ 10174a00 f   nafxcwd:afxinl1.obj
 0002:000eda20       ?IsLoading@CArchive@@QBEHXZ 10174a20 f   nafxcwd:afxinl1.obj
 0002:000eda40       ?IsStoring@CArchive@@QBEHXZ 10174a40 f   nafxcwd:afxinl1.obj
 0002:000eda60       ?IsByteSwapping@CArchive@@QBEHXZ 10174a60 f   nafxcwd:afxinl1.obj
 0002:000eda80       ?IsBufferEmpty@CArchive@@QBEHXZ 10174a80 f   nafxcwd:afxinl1.obj
 0002:000edaa0       ?GetFile@CArchive@@QBEPAVCFile@@XZ 10174aa0 f   nafxcwd:afxinl1.obj
 0002:000edac0       ?SetObjectSchema@CArchive@@QAEXI@Z 10174ac0 f   nafxcwd:afxinl1.obj
 0002:000edae0       ?SetStoreParams@CArchive@@QAEXII@Z 10174ae0 f   nafxcwd:afxinl1.obj
 0002:000edb40       ?SetLoadParams@CArchive@@QAEXI@Z 10174b40 f   nafxcwd:afxinl1.obj
 0002:000edba0       ??6CArchive@@QAEAAV0@H@Z   10174ba0 f   nafxcwd:afxinl1.obj
 0002:000edbc0       ??6CArchive@@QAEAAV0@I@Z   10174bc0 f   nafxcwd:afxinl1.obj
 0002:000edbe0       ??6CArchive@@QAEAAV0@F@Z   10174be0 f   nafxcwd:afxinl1.obj
 0002:000edc00       ??6CArchive@@QAEAAV0@D@Z   10174c00 f   nafxcwd:afxinl1.obj
 0002:000edc20       ??6CArchive@@QAEAAV0@_W@Z  10174c20 f   nafxcwd:afxinl1.obj
 0002:000edc40       ??6CArchive@@QAEAAV0@_N@Z  10174c40 f   nafxcwd:afxinl1.obj
 0002:000edc60       ??6CArchive@@QAEAAV0@E@Z   10174c60 f   nafxcwd:afxinl1.obj
 0002:000edcd0       ??6CArchive@@QAEAAV0@_J@Z  10174cd0 f   nafxcwd:afxinl1.obj
 0002:000edd40       ??6CArchive@@QAEAAV0@_K@Z  10174d40 f   nafxcwd:afxinl1.obj
 0002:000eddb0       ??6CArchive@@QAEAAV0@G@Z   10174db0 f   nafxcwd:afxinl1.obj
 0002:000ede20       ??6CArchive@@QAEAAV0@J@Z   10174e20 f   nafxcwd:afxinl1.obj
 0002:000ede90       ??6CArchive@@QAEAAV0@K@Z   10174e90 f   nafxcwd:afxinl1.obj
 0002:000edf00       ??6CArchive@@QAEAAV0@M@Z   10174f00 f   nafxcwd:afxinl1.obj
 0002:000edf70       ??6CArchive@@QAEAAV0@N@Z   10174f70 f   nafxcwd:afxinl1.obj
 0002:000edfe0       ??5CArchive@@QAEAAV0@AAH@Z 10174fe0 f   nafxcwd:afxinl1.obj
 0002:000ee000       ??5CArchive@@QAEAAV0@AAI@Z 10175000 f   nafxcwd:afxinl1.obj
 0002:000ee020       ??5CArchive@@QAEAAV0@AAF@Z 10175020 f   nafxcwd:afxinl1.obj
 0002:000ee040       ??5CArchive@@QAEAAV0@AAD@Z 10175040 f   nafxcwd:afxinl1.obj
 0002:000ee060       ??5CArchive@@QAEAAV0@AA_W@Z 10175060 f   nafxcwd:afxinl1.obj
 0002:000ee080       ??5CArchive@@QAEAAV0@AA_N@Z 10175080 f   nafxcwd:afxinl1.obj
 0002:000ee0b0       ??5CArchive@@QAEAAV0@AAE@Z 101750b0 f   nafxcwd:afxinl1.obj
 0002:000ee130       ??5CArchive@@QAEAAV0@AA_J@Z 10175130 f   nafxcwd:afxinl1.obj
 0002:000ee1b0       ??5CArchive@@QAEAAV0@AA_K@Z 101751b0 f   nafxcwd:afxinl1.obj
 0002:000ee230       ??5CArchive@@QAEAAV0@AAG@Z 10175230 f   nafxcwd:afxinl1.obj
 0002:000ee2b0       ??5CArchive@@QAEAAV0@AAK@Z 101752b0 f   nafxcwd:afxinl1.obj
 0002:000ee330       ??5CArchive@@QAEAAV0@AAM@Z 10175330 f   nafxcwd:afxinl1.obj
 0002:000ee3b0       ??5CArchive@@QAEAAV0@AAN@Z 101753b0 f   nafxcwd:afxinl1.obj
 0002:000ee430       ??5CArchive@@QAEAAV0@AAJ@Z 10175430 f   nafxcwd:afxinl1.obj
 0002:000ee4b0       ??0CArchive@@IAE@ABV0@@Z   101754b0 f   nafxcwd:afxinl1.obj
 0002:000ee4d0       ??4CArchive@@IAEXABV0@@Z   101754d0 f   nafxcwd:afxinl1.obj
 0002:000ee4e0       ??6@YGAAVCArchive@@AAV0@PBVCObject@@@Z 101754e0 f   nafxcwd:afxinl1.obj
 0002:000ee500       ??5@YGAAVCArchive@@AAV0@AAPAVCObject@@@Z 10175500 f   nafxcwd:afxinl1.obj
 0002:000ee520       ??5@YGAAVCArchive@@AAV0@AAPBVCObject@@@Z 10175520 f   nafxcwd:afxinl1.obj
 0002:000ee540       ?GetDepth@CDumpContext@@QBEHXZ 10175540 f   nafxcwd:afxinl1.obj
 0002:000ee550       ?SetDepth@CDumpContext@@QAEXH@Z 10175550 f   nafxcwd:afxinl1.obj
 0002:000ee570       ??0CDumpContext@@IAE@ABV0@@Z 10175570 f   nafxcwd:afxinl1.obj
 0002:000ee580       ??4CDumpContext@@IAEXABV0@@Z 10175580 f   nafxcwd:afxinl1.obj
 0002:000ee590       ?GetSize@CByteArray@@QBEHXZ 10175590 f   nafxcwd:afxinl1.obj
 0002:000ee5b0       ?GetCount@CByteArray@@QBEHXZ 101755b0 f   nafxcwd:afxinl1.obj
 0002:000ee5d0       ?IsEmpty@CByteArray@@QBEHXZ 101755d0 f   nafxcwd:afxinl1.obj
 0002:000ee5f0       ?GetUpperBound@CByteArray@@QBEHXZ 101755f0 f   nafxcwd:afxinl1.obj
 0002:000ee610       ?RemoveAll@CByteArray@@QAEXXZ 10175610 f   nafxcwd:afxinl1.obj
 0002:000ee630       ?GetAt@CByteArray@@QBEEH@Z 10175630 f   nafxcwd:afxinl1.obj
 0002:000ee690       ?SetAt@CByteArray@@QAEXHE@Z 10175690 f   nafxcwd:afxinl1.obj
 0002:000ee6f0       ?ElementAt@CByteArray@@QAEAAEH@Z 101756f0 f   nafxcwd:afxinl1.obj
 0002:000ee740       ?GetData@CByteArray@@QBEPBEXZ 10175740 f   nafxcwd:afxinl1.obj
 0002:000ee760       ?GetData@CByteArray@@QAEPAEXZ 10175760 f   nafxcwd:afxinl1.obj
 0002:000ee780       ?Add@CByteArray@@QAEHE@Z   10175780 f   nafxcwd:afxinl1.obj
 0002:000ee7b0       ??ACByteArray@@QBEEH@Z     101757b0 f   nafxcwd:afxinl1.obj
 0002:000ee7d0       ??ACByteArray@@QAEAAEH@Z   101757d0 f   nafxcwd:afxinl1.obj
 0002:000ee7f0       ?GetSize@CWordArray@@QBEHXZ 101757f0 f   nafxcwd:afxinl1.obj
 0002:000ee810       ?GetCount@CWordArray@@QBEHXZ 10175810 f   nafxcwd:afxinl1.obj
 0002:000ee830       ?IsEmpty@CWordArray@@QBEHXZ 10175830 f   nafxcwd:afxinl1.obj
 0002:000ee850       ?GetUpperBound@CWordArray@@QBEHXZ 10175850 f   nafxcwd:afxinl1.obj
 0002:000ee870       ?RemoveAll@CWordArray@@QAEXXZ 10175870 f   nafxcwd:afxinl1.obj
 0002:000ee890       ?GetAt@CWordArray@@QBEGH@Z 10175890 f   nafxcwd:afxinl1.obj
 0002:000ee8f0       ?SetAt@CWordArray@@QAEXHG@Z 101758f0 f   nafxcwd:afxinl1.obj
 0002:000ee950       ?ElementAt@CWordArray@@QAEAAGH@Z 10175950 f   nafxcwd:afxinl1.obj
 0002:000ee9b0       ?GetData@CWordArray@@QBEPBGXZ 101759b0 f   nafxcwd:afxinl1.obj
 0002:000ee9d0       ?GetData@CWordArray@@QAEPAGXZ 101759d0 f   nafxcwd:afxinl1.obj
 0002:000ee9f0       ?Add@CWordArray@@QAEHG@Z   101759f0 f   nafxcwd:afxinl1.obj
 0002:000eea20       ??ACWordArray@@QBEGH@Z     10175a20 f   nafxcwd:afxinl1.obj
 0002:000eea40       ??ACWordArray@@QAEAAGH@Z   10175a40 f   nafxcwd:afxinl1.obj
 0002:000eea60       ?GetSize@CDWordArray@@QBEHXZ 10175a60 f   nafxcwd:afxinl1.obj
 0002:000eea80       ?GetCount@CDWordArray@@QBEHXZ 10175a80 f   nafxcwd:afxinl1.obj
 0002:000eeaa0       ?IsEmpty@CDWordArray@@QBEHXZ 10175aa0 f   nafxcwd:afxinl1.obj
 0002:000eeac0       ?GetUpperBound@CDWordArray@@QBEHXZ 10175ac0 f   nafxcwd:afxinl1.obj
 0002:000eeae0       ?RemoveAll@CDWordArray@@QAEXXZ 10175ae0 f   nafxcwd:afxinl1.obj
 0002:000eeb00       ?GetAt@CDWordArray@@QBEKH@Z 10175b00 f   nafxcwd:afxinl1.obj
 0002:000eeb60       ?SetAt@CDWordArray@@QAEXHK@Z 10175b60 f   nafxcwd:afxinl1.obj
 0002:000eebc0       ?ElementAt@CDWordArray@@QAEAAKH@Z 10175bc0 f   nafxcwd:afxinl1.obj
 0002:000eec20       ?GetData@CDWordArray@@QBEPBKXZ 10175c20 f   nafxcwd:afxinl1.obj
 0002:000eec40       ?GetData@CDWordArray@@QAEPAKXZ 10175c40 f   nafxcwd:afxinl1.obj
 0002:000eec60       ?Add@CDWordArray@@QAEHK@Z  10175c60 f   nafxcwd:afxinl1.obj
 0002:000eec90       ??ACDWordArray@@QBEKH@Z    10175c90 f   nafxcwd:afxinl1.obj
 0002:000eecb0       ??ACDWordArray@@QAEAAKH@Z  10175cb0 f   nafxcwd:afxinl1.obj
 0002:000eecd0       ?GetSize@CUIntArray@@QBEHXZ 10175cd0 f   nafxcwd:afxinl1.obj
 0002:000eecf0       ?GetCount@CUIntArray@@QBEHXZ 10175cf0 f   nafxcwd:afxinl1.obj
 0002:000eed10       ?IsEmpty@CUIntArray@@QBEHXZ 10175d10 f   nafxcwd:afxinl1.obj
 0002:000eed30       ?GetUpperBound@CUIntArray@@QBEHXZ 10175d30 f   nafxcwd:afxinl1.obj
 0002:000eed50       ?RemoveAll@CUIntArray@@QAEXXZ 10175d50 f   nafxcwd:afxinl1.obj
 0002:000eed70       ?GetAt@CUIntArray@@QBEIH@Z 10175d70 f   nafxcwd:afxinl1.obj
 0002:000eedd0       ?SetAt@CUIntArray@@QAEXHI@Z 10175dd0 f   nafxcwd:afxinl1.obj
 0002:000eee30       ?ElementAt@CUIntArray@@QAEAAIH@Z 10175e30 f   nafxcwd:afxinl1.obj
 0002:000eee90       ?GetData@CUIntArray@@QBEPBIXZ 10175e90 f   nafxcwd:afxinl1.obj
 0002:000eeeb0       ?GetData@CUIntArray@@QAEPAIXZ 10175eb0 f   nafxcwd:afxinl1.obj
 0002:000eeed0       ?Add@CUIntArray@@QAEHI@Z   10175ed0 f   nafxcwd:afxinl1.obj
 0002:000eef00       ??ACUIntArray@@QBEIH@Z     10175f00 f   nafxcwd:afxinl1.obj
 0002:000eef20       ??ACUIntArray@@QAEAAIH@Z   10175f20 f   nafxcwd:afxinl1.obj
 0002:000eef40       ?GetSize@CPtrArray@@QBEHXZ 10175f40 f   nafxcwd:afxinl1.obj
 0002:000eef60       ?GetCount@CPtrArray@@QBEHXZ 10175f60 f   nafxcwd:afxinl1.obj
 0002:000eef80       ?IsEmpty@CPtrArray@@QBEHXZ 10175f80 f   nafxcwd:afxinl1.obj
 0002:000eefa0       ?GetUpperBound@CPtrArray@@QBEHXZ 10175fa0 f   nafxcwd:afxinl1.obj
 0002:000eefc0       ?RemoveAll@CPtrArray@@QAEXXZ 10175fc0 f   nafxcwd:afxinl1.obj
 0002:000eefe0       ?GetAt@CPtrArray@@QBEPAXH@Z 10175fe0 f   nafxcwd:afxinl1.obj
 0002:000ef040       ?SetAt@CPtrArray@@QAEXHPAX@Z 10176040 f   nafxcwd:afxinl1.obj
 0002:000ef0a0       ?ElementAt@CPtrArray@@QAEAAPAXH@Z 101760a0 f   nafxcwd:afxinl1.obj
 0002:000ef100       ?GetData@CPtrArray@@QBEPAPBXXZ 10176100 f   nafxcwd:afxinl1.obj
 0002:000ef120       ?GetData@CPtrArray@@QAEPAPAXXZ 10176120 f   nafxcwd:afxinl1.obj
 0002:000ef140       ?Add@CPtrArray@@QAEHPAX@Z  10176140 f   nafxcwd:afxinl1.obj
 0002:000ef170       ??ACPtrArray@@QBEPAXH@Z    10176170 f   nafxcwd:afxinl1.obj
 0002:000ef190       ??ACPtrArray@@QAEAAPAXH@Z  10176190 f   nafxcwd:afxinl1.obj
 0002:000ef1b0       ?GetSize@CObArray@@QBEHXZ  101761b0 f   nafxcwd:afxinl1.obj
 0002:000ef1d0       ?GetCount@CObArray@@QBEHXZ 101761d0 f   nafxcwd:afxinl1.obj
 0002:000ef1f0       ?IsEmpty@CObArray@@QBEHXZ  101761f0 f   nafxcwd:afxinl1.obj
 0002:000ef210       ?GetUpperBound@CObArray@@QBEHXZ 10176210 f   nafxcwd:afxinl1.obj
 0002:000ef230       ?RemoveAll@CObArray@@QAEXXZ 10176230 f   nafxcwd:afxinl1.obj
 0002:000ef250       ?GetAt@CObArray@@QBEPAVCObject@@H@Z 10176250 f   nafxcwd:afxinl1.obj
 0002:000ef2b0       ?SetAt@CObArray@@QAEXHPAVCObject@@@Z 101762b0 f   nafxcwd:afxinl1.obj
 0002:000ef310       ?ElementAt@CObArray@@QAEAAPAVCObject@@H@Z 10176310 f   nafxcwd:afxinl1.obj
 0002:000ef370       ?GetData@CObArray@@QBEPAPBVCObject@@XZ 10176370 f   nafxcwd:afxinl1.obj
 0002:000ef390       ?GetData@CObArray@@QAEPAPAVCObject@@XZ 10176390 f   nafxcwd:afxinl1.obj
 0002:000ef3b0       ?Add@CObArray@@QAEHPAVCObject@@@Z 101763b0 f   nafxcwd:afxinl1.obj
 0002:000ef3e0       ??ACObArray@@QBEPAVCObject@@H@Z 101763e0 f   nafxcwd:afxinl1.obj
 0002:000ef400       ??ACObArray@@QAEAAPAVCObject@@H@Z 10176400 f   nafxcwd:afxinl1.obj
 0002:000ef420       ?GetSize@CStringArray@@QBEHXZ 10176420 f   nafxcwd:afxinl1.obj
 0002:000ef440       ?GetCount@CStringArray@@QBEHXZ 10176440 f   nafxcwd:afxinl1.obj
 0002:000ef460       ?IsEmpty@CStringArray@@QBEHXZ 10176460 f   nafxcwd:afxinl1.obj
 0002:000ef480       ?GetUpperBound@CStringArray@@QBEHXZ 10176480 f   nafxcwd:afxinl1.obj
 0002:000ef4a0       ?RemoveAll@CStringArray@@QAEXXZ 101764a0 f   nafxcwd:afxinl1.obj
 0002:000ef4c0       ?GetAt@CStringArray@@QBEABV?$CStringT@DV?$StrTraitMFC@DV?$ChTraitsCRT@D@ATL@@@@@ATL@@H@Z 101764c0 f   nafxcwd:afxinl1.obj
 0002:000ef520       ?SetAt@CStringArray@@QAEXHPBD@Z 10176520 f   nafxcwd:afxinl1.obj
 0002:000ef580       ?SetAt@CStringArray@@QAEXHABV?$CStringT@DV?$StrTraitMFC@DV?$ChTraitsCRT@D@ATL@@@@@ATL@@@Z 10176580 f   nafxcwd:afxinl1.obj
 0002:000ef5e0       ?ElementAt@CStringArray@@QAEAAV?$CStringT@DV?$StrTraitMFC@DV?$ChTraitsCRT@D@ATL@@@@@ATL@@H@Z 101765e0 f   nafxcwd:afxinl1.obj
 0002:000ef640       ?GetData@CStringArray@@QBEPBV?$CStringT@DV?$StrTraitMFC@DV?$ChTraitsCRT@D@ATL@@@@@ATL@@XZ 10176640 f   nafxcwd:afxinl1.obj
 0002:000ef660       ?GetData@CStringArray@@QAEPAV?$CStringT@DV?$StrTraitMFC@DV?$ChTraitsCRT@D@ATL@@@@@ATL@@XZ 10176660 f   nafxcwd:afxinl1.obj
 0002:000ef680       ?Add@CStringArray@@QAEHPBD@Z 10176680 f   nafxcwd:afxinl1.obj
 0002:000ef6b0       ?Add@CStringArray@@QAEHABV?$CStringT@DV?$StrTraitMFC@DV?$ChTraitsCRT@D@ATL@@@@@ATL@@@Z 101766b0 f   nafxcwd:afxinl1.obj
 0002:000ef6e0       ??ACStringArray@@QBEABV?$CStringT@DV?$StrTraitMFC@DV?$ChTraitsCRT@D@ATL@@@@@ATL@@H@Z 101766e0 f   nafxcwd:afxinl1.obj
 0002:000ef700       ??ACStringArray@@QAEAAV?$CStringT@DV?$StrTraitMFC@DV?$ChTraitsCRT@D@ATL@@@@@ATL@@H@Z 10176700 f   nafxcwd:afxinl1.obj
 0002:000ef720       ?GetCount@CPtrList@@QBEHXZ 10176720 f   nafxcwd:afxinl1.obj
 0002:000ef740       ?GetSize@CPtrList@@QBEHXZ  10176740 f   nafxcwd:afxinl1.obj
 0002:000ef760       ?IsEmpty@CPtrList@@QBEHXZ  10176760 f   nafxcwd:afxinl1.obj
 0002:000ef780       ?GetHead@CPtrList@@QAEAAPAXXZ 10176780 f   nafxcwd:afxinl1.obj
 0002:000ef7c0       ?GetHead@CPtrList@@QBEAAPBXXZ 101767c0 f   nafxcwd:afxinl1.obj
 0002:000ef800       ?GetTail@CPtrList@@QAEAAPAXXZ 10176800 f   nafxcwd:afxinl1.obj
 0002:000ef840       ?GetTail@CPtrList@@QBEAAPBXXZ 10176840 f   nafxcwd:afxinl1.obj
 0002:000ef880       ?GetHeadPosition@CPtrList@@QBEPAU__POSITION@@XZ 10176880 f   nafxcwd:afxinl1.obj
 0002:000ef8a0       ?GetTailPosition@CPtrList@@QBEPAU__POSITION@@XZ 101768a0 f   nafxcwd:afxinl1.obj
 0002:000ef8c0       ?GetNext@CPtrList@@QAEAAPAXAAPAU__POSITION@@@Z 101768c0 f   nafxcwd:afxinl1.obj
 0002:000ef920       ?GetNext@CPtrList@@QBEAAPBXAAPAU__POSITION@@@Z 10176920 f   nafxcwd:afxinl1.obj
 0002:000ef980       ?GetPrev@CPtrList@@QAEAAPAXAAPAU__POSITION@@@Z 10176980 f   nafxcwd:afxinl1.obj
 0002:000ef9e0       ?GetPrev@CPtrList@@QBEAAPBXAAPAU__POSITION@@@Z 101769e0 f   nafxcwd:afxinl1.obj
 0002:000efa40       ?GetAt@CPtrList@@QAEAAPAXPAU__POSITION@@@Z 10176a40 f   nafxcwd:afxinl1.obj
 0002:000efa90       ?GetAt@CPtrList@@QBEAAPBXPAU__POSITION@@@Z 10176a90 f   nafxcwd:afxinl1.obj
 0002:000efae0       ?SetAt@CPtrList@@QAEXPAU__POSITION@@PAX@Z 10176ae0 f   nafxcwd:afxinl1.obj
 0002:000efb30       ?GetCount@CObList@@QBEHXZ  10176b30 f   nafxcwd:afxinl1.obj
 0002:000efb50       ?GetSize@CObList@@QBEHXZ   10176b50 f   nafxcwd:afxinl1.obj
 0002:000efb70       ?IsEmpty@CObList@@QBEHXZ   10176b70 f   nafxcwd:afxinl1.obj
 0002:000efb90       ?GetHead@CObList@@QAEAAPAVCObject@@XZ 10176b90 f   nafxcwd:afxinl1.obj
 0002:000efbd0       ?GetHead@CObList@@QBEAAPBVCObject@@XZ 10176bd0 f   nafxcwd:afxinl1.obj
 0002:000efc10       ?GetTail@CObList@@QAEAAPAVCObject@@XZ 10176c10 f   nafxcwd:afxinl1.obj
 0002:000efc50       ?GetTail@CObList@@QBEAAPBVCObject@@XZ 10176c50 f   nafxcwd:afxinl1.obj
 0002:000efc90       ?GetHeadPosition@CObList@@QBEPAU__POSITION@@XZ 10176c90 f   nafxcwd:afxinl1.obj
 0002:000efcb0       ?GetTailPosition@CObList@@QBEPAU__POSITION@@XZ 10176cb0 f   nafxcwd:afxinl1.obj
 0002:000efcd0       ?GetNext@CObList@@QAEAAPAVCObject@@AAPAU__POSITION@@@Z 10176cd0 f   nafxcwd:afxinl1.obj
 0002:000efd30       ?GetNext@CObList@@QBEAAPBVCObject@@AAPAU__POSITION@@@Z 10176d30 f   nafxcwd:afxinl1.obj
 0002:000efd90       ?GetPrev@CObList@@QAEAAPAVCObject@@AAPAU__POSITION@@@Z 10176d90 f   nafxcwd:afxinl1.obj
 0002:000efdf0       ?GetPrev@CObList@@QBEAAPBVCObject@@AAPAU__POSITION@@@Z 10176df0 f   nafxcwd:afxinl1.obj
 0002:000efe50       ?GetAt@CObList@@QAEAAPAVCObject@@PAU__POSITION@@@Z 10176e50 f   nafxcwd:afxinl1.obj
 0002:000efea0       ?GetAt@CObList@@QBEAAPBVCObject@@PAU__POSITION@@@Z 10176ea0 f   nafxcwd:afxinl1.obj
 0002:000efef0       ?SetAt@CObList@@QAEXPAU__POSITION@@PAVCObject@@@Z 10176ef0 f   nafxcwd:afxinl1.obj
 0002:000eff40       ?GetCount@CStringList@@QBEHXZ 10176f40 f   nafxcwd:afxinl1.obj
 0002:000eff60       ?GetSize@CStringList@@QBEHXZ 10176f60 f   nafxcwd:afxinl1.obj
 0002:000eff80       ?IsEmpty@CStringList@@QBEHXZ 10176f80 f   nafxcwd:afxinl1.obj
 0002:000effa0       ?GetHead@CStringList@@QAEAAV?$CStringT@DV?$StrTraitMFC@DV?$ChTraitsCRT@D@ATL@@@@@ATL@@XZ 10176fa0 f   nafxcwd:afxinl1.obj
 0002:000effe0       ?GetHead@CStringList@@QBEABV?$CStringT@DV?$StrTraitMFC@DV?$ChTraitsCRT@D@ATL@@@@@ATL@@XZ 10176fe0 f   nafxcwd:afxinl1.obj
 0002:000f0020       ?GetTail@CStringList@@QAEAAV?$CStringT@DV?$StrTraitMFC@DV?$ChTraitsCRT@D@ATL@@@@@ATL@@XZ 10177020 f   nafxcwd:afxinl1.obj
 0002:000f0060       ?GetTail@CStringList@@QBEABV?$CStringT@DV?$StrTraitMFC@DV?$ChTraitsCRT@D@ATL@@@@@ATL@@XZ 10177060 f   nafxcwd:afxinl1.obj
 0002:000f00a0       ?GetHeadPosition@CStringList@@QBEPAU__POSITION@@XZ 101770a0 f   nafxcwd:afxinl1.obj
 0002:000f00c0       ?GetTailPosition@CStringList@@QBEPAU__POSITION@@XZ 101770c0 f   nafxcwd:afxinl1.obj
 0002:000f00e0       ?GetNext@CStringList@@QAEAAV?$CStringT@DV?$StrTraitMFC@DV?$ChTraitsCRT@D@ATL@@@@@ATL@@AAPAU__POSITION@@@Z 101770e0 f   nafxcwd:afxinl1.obj
 0002:000f0140       ?GetNext@CStringList@@QBEABV?$CStringT@DV?$StrTraitMFC@DV?$ChTraitsCRT@D@ATL@@@@@ATL@@AAPAU__POSITION@@@Z 10177140 f   nafxcwd:afxinl1.obj
 0002:000f01a0       ?GetPrev@CStringList@@QAEAAV?$CStringT@DV?$StrTraitMFC@DV?$ChTraitsCRT@D@ATL@@@@@ATL@@AAPAU__POSITION@@@Z 101771a0 f   nafxcwd:afxinl1.obj
 0002:000f0200       ?GetPrev@CStringList@@QBEABV?$CStringT@DV?$StrTraitMFC@DV?$ChTraitsCRT@D@ATL@@@@@ATL@@AAPAU__POSITION@@@Z 10177200 f   nafxcwd:afxinl1.obj
 0002:000f0260       ?GetAt@CStringList@@QAEAAV?$CStringT@DV?$StrTraitMFC@DV?$ChTraitsCRT@D@ATL@@@@@ATL@@PAU__POSITION@@@Z 10177260 f   nafxcwd:afxinl1.obj
 0002:000f02b0       ?GetAt@CStringList@@QBEABV?$CStringT@DV?$StrTraitMFC@DV?$ChTraitsCRT@D@ATL@@@@@ATL@@PAU__POSITION@@@Z 101772b0 f   nafxcwd:afxinl1.obj
 0002:000f0300       ?SetAt@CStringList@@QAEXPAU__POSITION@@PBD@Z 10177300 f   nafxcwd:afxinl1.obj
 0002:000f0360       ?SetAt@CStringList@@QAEXPAU__POSITION@@ABV?$CStringT@DV?$StrTraitMFC@DV?$ChTraitsCRT@D@ATL@@@@@ATL@@@Z 10177360 f   nafxcwd:afxinl1.obj
 0002:000f03c0       ?GetCount@CMapWordToPtr@@QBEHXZ 101773c0 f   nafxcwd:afxinl1.obj
 0002:000f03e0       ?GetSize@CMapWordToPtr@@QBEHXZ 101773e0 f   nafxcwd:afxinl1.obj
 0002:000f0400       ?IsEmpty@CMapWordToPtr@@QBEHXZ 10177400 f   nafxcwd:afxinl1.obj
 0002:000f0420       ?SetAt@CMapWordToPtr@@QAEXGPAX@Z 10177420 f   nafxcwd:afxinl1.obj
 0002:000f0440       ?GetStartPosition@CMapWordToPtr@@QBEPAU__POSITION@@XZ 10177440 f   nafxcwd:afxinl1.obj
 0002:000f0460       ?GetHashTableSize@CMapWordToPtr@@QBEIXZ 10177460 f   nafxcwd:afxinl1.obj
 0002:000f0480       ?GetCount@CMapPtrToWord@@QBEHXZ 10177480 f   nafxcwd:afxinl1.obj
 0002:000f04a0       ?GetSize@CMapPtrToWord@@QBEHXZ 101774a0 f   nafxcwd:afxinl1.obj
 0002:000f04c0       ?IsEmpty@CMapPtrToWord@@QBEHXZ 101774c0 f   nafxcwd:afxinl1.obj
 0002:000f04e0       ?SetAt@CMapPtrToWord@@QAEXPAXG@Z 101774e0 f   nafxcwd:afxinl1.obj
 0002:000f0500       ?GetStartPosition@CMapPtrToWord@@QBEPAU__POSITION@@XZ 10177500 f   nafxcwd:afxinl1.obj
 0002:000f0520       ?GetHashTableSize@CMapPtrToWord@@QBEIXZ 10177520 f   nafxcwd:afxinl1.obj
 0002:000f0540       ?GetCount@CMapPtrToPtr@@QBEHXZ 10177540 f   nafxcwd:afxinl1.obj
 0002:000f0560       ?GetSize@CMapPtrToPtr@@QBEHXZ 10177560 f   nafxcwd:afxinl1.obj
 0002:000f0580       ?IsEmpty@CMapPtrToPtr@@QBEHXZ 10177580 f   nafxcwd:afxinl1.obj
 0002:000f05a0       ?SetAt@CMapPtrToPtr@@QAEXPAX0@Z 101775a0 f   nafxcwd:afxinl1.obj
 0002:000f05c0       ?GetStartPosition@CMapPtrToPtr@@QBEPAU__POSITION@@XZ 101775c0 f   nafxcwd:afxinl1.obj
 0002:000f05e0       ?GetHashTableSize@CMapPtrToPtr@@QBEIXZ 101775e0 f   nafxcwd:afxinl1.obj
 0002:000f0600       ?GetCount@CMapWordToOb@@QBEHXZ 10177600 f   nafxcwd:afxinl1.obj
 0002:000f0620       ?GetSize@CMapWordToOb@@QBEHXZ 10177620 f   nafxcwd:afxinl1.obj
 0002:000f0640       ?IsEmpty@CMapWordToOb@@QBEHXZ 10177640 f   nafxcwd:afxinl1.obj
 0002:000f0660       ?SetAt@CMapWordToOb@@QAEXGPAVCObject@@@Z 10177660 f   nafxcwd:afxinl1.obj
 0002:000f0680       ?GetStartPosition@CMapWordToOb@@QBEPAU__POSITION@@XZ 10177680 f   nafxcwd:afxinl1.obj
 0002:000f06a0       ?GetHashTableSize@CMapWordToOb@@QBEIXZ 101776a0 f   nafxcwd:afxinl1.obj
 0002:000f06c0       ?GetCount@CMapStringToPtr@@QBEHXZ 101776c0 f   nafxcwd:afxinl1.obj
 0002:000f06e0       ?GetSize@CMapStringToPtr@@QBEHXZ 101776e0 f   nafxcwd:afxinl1.obj
 0002:000f0700       ?IsEmpty@CMapStringToPtr@@QBEHXZ 10177700 f   nafxcwd:afxinl1.obj
 0002:000f0720       ?SetAt@CMapStringToPtr@@QAEXPBDPAX@Z 10177720 f   nafxcwd:afxinl1.obj
 0002:000f0740       ?GetStartPosition@CMapStringToPtr@@QBEPAU__POSITION@@XZ 10177740 f   nafxcwd:afxinl1.obj
 0002:000f0760       ?GetHashTableSize@CMapStringToPtr@@QBEIXZ 10177760 f   nafxcwd:afxinl1.obj
 0002:000f0780       ?GetCount@CMapStringToOb@@QBEHXZ 10177780 f   nafxcwd:afxinl1.obj
 0002:000f07a0       ?GetSize@CMapStringToOb@@QBEHXZ 101777a0 f   nafxcwd:afxinl1.obj
 0002:000f07c0       ?IsEmpty@CMapStringToOb@@QBEHXZ 101777c0 f   nafxcwd:afxinl1.obj
 0002:000f07e0       ?SetAt@CMapStringToOb@@QAEXPBDPAVCObject@@@Z 101777e0 f   nafxcwd:afxinl1.obj
 0002:000f0800       ?GetStartPosition@CMapStringToOb@@QBEPAU__POSITION@@XZ 10177800 f   nafxcwd:afxinl1.obj
 0002:000f0820       ?GetHashTableSize@CMapStringToOb@@QBEIXZ 10177820 f   nafxcwd:afxinl1.obj
 0002:000f0840       ?GetCount@CMapStringToString@@QBEHXZ 10177840 f   nafxcwd:afxinl1.obj
 0002:000f0860       ?GetSize@CMapStringToString@@QBEHXZ 10177860 f   nafxcwd:afxinl1.obj
 0002:000f0880       ?IsEmpty@CMapStringToString@@QBEHXZ 10177880 f   nafxcwd:afxinl1.obj
 0002:000f08a0       ?SetAt@CMapStringToString@@QAEXPBD0@Z 101778a0 f   nafxcwd:afxinl1.obj
 0002:000f08d0       ?GetStartPosition@CMapStringToString@@QBEPAU__POSITION@@XZ 101778d0 f   nafxcwd:afxinl1.obj
 0002:000f08f0       ?GetHashTableSize@CMapStringToString@@QBEIXZ 101778f0 f   nafxcwd:afxinl1.obj
 0002:000f0910       ??0CCommonDialog@@QAE@PAVCWnd@@@Z 10177910 f   nafxcwd:afxinl1.obj
 0002:000f0940       ?GetReadOnlyPref@CFileDialog@@QBEHXZ 10177940 f   nafxcwd:afxinl1.obj
 0002:000f0960       ?SetTemplate@CFileDialog@@QAEXII@Z 10177960 f   nafxcwd:afxinl1.obj
 0002:000f0980       ?GetStartPosition@CFileDialog@@QBEPAU__POSITION@@XZ 10177980 f   nafxcwd:afxinl1.obj
 0002:000f09a0       ?GetFaceName@CFontDialog@@QBE?AV?$CStringT@DV?$StrTraitMFC@DV?$ChTraitsCRT@D@ATL@@@@@ATL@@XZ 101779a0 f   nafxcwd:afxinl1.obj
 0002:000f09e0       ?GetStyleName@CFontDialog@@QBE?AV?$CStringT@DV?$StrTraitMFC@DV?$ChTraitsCRT@D@ATL@@@@@ATL@@XZ 101779e0 f   nafxcwd:afxinl1.obj
 0002:000f0a20       ?GetSize@CFontDialog@@QBEHXZ 10177a20 f   nafxcwd:afxinl1.obj
 0002:000f0a40       ?GetWeight@CFontDialog@@QBEHXZ 10177a40 f   nafxcwd:afxinl1.obj
 0002:000f0a60       ?IsItalic@CFontDialog@@QBEHXZ 10177a60 f   nafxcwd:afxinl1.obj
 0002:000f0a80       ?IsStrikeOut@CFontDialog@@QBEHXZ 10177a80 f   nafxcwd:afxinl1.obj
 0002:000f0aa0       ?IsBold@CFontDialog@@QBEHXZ 10177aa0 f   nafxcwd:afxinl1.obj
 0002:000f0ac0       ?IsUnderline@CFontDialog@@QBEHXZ 10177ac0 f   nafxcwd:afxinl1.obj
 0002:000f0ae0       ?GetColor@CFontDialog@@QBEKXZ 10177ae0 f   nafxcwd:afxinl1.obj
 0002:000f0b00       ?GetColor@CColorDialog@@QBEKXZ 10177b00 f   nafxcwd:afxinl1.obj
 0002:000f0b20       ?PrintSelection@CPrintDialog@@QBEHXZ 10177b20 f   nafxcwd:afxinl1.obj
 0002:000f0b40       ?PrintRange@CPrintDialog@@QBEHXZ 10177b40 f   nafxcwd:afxinl1.obj
 0002:000f0b60       ?PrintAll@CPrintDialog@@QBEHXZ 10177b60 f   nafxcwd:afxinl1.obj
 0002:000f0ba0       ?PrintCollate@CPrintDialog@@QBEHXZ 10177ba0 f   nafxcwd:afxinl1.obj
 0002:000f0bc0       ?GetFromPage@CPrintDialog@@QBEHXZ 10177bc0 f   nafxcwd:afxinl1.obj
 0002:000f0c00       ?GetToPage@CPrintDialog@@QBEHXZ 10177c00 f   nafxcwd:afxinl1.obj
 0002:000f0c40       ?GetPrinterDC@CPrintDialog@@QBEPAUHDC__@@XZ 10177c40 f   nafxcwd:afxinl1.obj
 0002:000f0c90       ?PrintSelection@CPrintDialogEx@@QBEHXZ 10177c90 f   nafxcwd:afxinl1.obj
 0002:000f0cb0       ?PrintRange@CPrintDialogEx@@QBEHXZ 10177cb0 f   nafxcwd:afxinl1.obj
 0002:000f0cd0       ?PrintCurrentPage@CPrintDialogEx@@QBEHXZ 10177cd0 f   nafxcwd:afxinl1.obj
 0002:000f0cf0       ?PrintAll@CPrintDialogEx@@QBEHXZ 10177cf0 f   nafxcwd:afxinl1.obj
 0002:000f0d40       ?PrintCollate@CPrintDialogEx@@QBEHXZ 10177d40 f   nafxcwd:afxinl1.obj
 0002:000f0d60       ?GetPrinterDC@CPrintDialogEx@@QBEPAUHDC__@@XZ 10177d60 f   nafxcwd:afxinl1.obj
 0002:000f0db0       ?IsTerminating@CFindReplaceDialog@@QBEHXZ 10177db0 f   nafxcwd:afxinl1.obj
 0002:000f0dd0       ?GetReplaceString@CFindReplaceDialog@@QBE?AV?$CStringT@DV?$StrTraitMFC@DV?$ChTraitsCRT@D@ATL@@@@@ATL@@XZ 10177dd0 f   nafxcwd:afxinl1.obj
 0002:000f0e10       ?GetFindString@CFindReplaceDialog@@QBE?AV?$CStringT@DV?$StrTraitMFC@DV?$ChTraitsCRT@D@ATL@@@@@ATL@@XZ 10177e10 f   nafxcwd:afxinl1.obj
 0002:000f0e50       ?SearchDown@CFindReplaceDialog@@QBEHXZ 10177e50 f   nafxcwd:afxinl1.obj
 0002:000f0e70       ?FindNext@CFindReplaceDialog@@QBEHXZ 10177e70 f   nafxcwd:afxinl1.obj
 0002:000f0e90       ?MatchCase@CFindReplaceDialog@@QBEHXZ 10177e90 f   nafxcwd:afxinl1.obj
 0002:000f0eb0       ?MatchWholeWord@CFindReplaceDialog@@QBEHXZ 10177eb0 f   nafxcwd:afxinl1.obj
 0002:000f0ed0       ?ReplaceCurrent@CFindReplaceDialog@@QBEHXZ 10177ed0 f   nafxcwd:afxinl1.obj
 0002:000f0ef0       ?ReplaceAll@CFindReplaceDialog@@QBEHXZ 10177ef0 f   nafxcwd:afxinl1.obj
 0002:000f0f10       ?MapDialogRect@CPropertySheet@@QBEXPAUtagRECT@@@Z 10177f10 f   nafxcwd:afxinl1.obj
 0002:000f0f50       ?GetPage@CPropertySheet@@QBEPAVCPropertyPage@@H@Z 10177f50 f   nafxcwd:afxinl1.obj
 0002:000f0f80       ?SetWizardMode@CPropertySheet@@QAEXXZ 10177f80 f   nafxcwd:afxinl1.obj
 0002:000f0fa0       ?SetFinishText@CPropertySheet@@QAEXPBD@Z 10177fa0 f   nafxcwd:afxinl1.obj
 0002:000f0ff0       ?SetWizardButtons@CPropertySheet@@QAEXK@Z 10177ff0 f   nafxcwd:afxinl1.obj
 0002:000f1040       ?GetTabControl@CPropertySheet@@QBEPAVCTabCtrl@@XZ 10178040 f   nafxcwd:afxinl1.obj
 0002:000f1090       ?PressButton@CPropertySheet@@QAEXH@Z 10178090 f   nafxcwd:afxinl1.obj
 0002:000f10e0       ?IsWizard@CPropertySheet@@QBEHXZ 101780e0 f   nafxcwd:afxinl1.obj
 0002:000f1100       ?GetPaperSize@CPageSetupDialog@@QBE?AVCSize@@XZ 10178100 f   nafxcwd:afxinl1.obj
 0002:000f1130       ??0CCreateContext@@QAE@XZ  10178130 f   nafxcwd:afxinl1.obj
 0002:000f1150       ?Create@CMetaFileDC@@QAEHPBD@Z 10178150 f   nafxcwd:afxinl1.obj
 0002:000f1170       ?Close@CMetaFileDC@@QAEPAUHMETAFILE__@@XZ 10178170 f   nafxcwd:afxinl1.obj
 0002:000f1190       ?CreateEnhanced@CMetaFileDC@@QAEHPAVCDC@@PBDPBUtagRECT@@1@Z 10178190 f   nafxcwd:afxinl1.obj
 0002:000f11d0       ?CloseEnhanced@CMetaFileDC@@QAEPAUHENHMETAFILE__@@XZ 101781d0 f   nafxcwd:afxinl1.obj
 0002:000f11f0       ?SetViewportOrg@CMetaFileDC@@QAE?AVCPoint@@UtagPOINT@@@Z 101781f0 f   nafxcwd:afxinl1.obj
 0002:000f1240       ?SetViewportExt@CMetaFileDC@@QAE?AVCSize@@UtagSIZE@@@Z 10178240 f   nafxcwd:afxinl1.obj
 0002:000f1290       ?TextOutA@CMetaFileDC@@QAEHHHABV?$CStringT@DV?$StrTraitMFC@DV?$ChTraitsCRT@D@ATL@@@@@ATL@@@Z 10178290 f   nafxcwd:afxinl1.obj
 0002:000f12e0       ?ExtTextOutA@CMetaFileDC@@QAEHHHIPBUtagRECT@@ABV?$CStringT@DV?$StrTraitMFC@DV?$ChTraitsCRT@D@ATL@@@@@ATL@@PAH@Z 101782e0 f   nafxcwd:afxinl1.obj
 0002:000f1340       ?TabbedTextOutA@CMetaFileDC@@QAE?AVCSize@@HHABV?$CStringT@DV?$StrTraitMFC@DV?$ChTraitsCRT@D@ATL@@@@@ATL@@HPAHH@Z 10178340 f   nafxcwd:afxinl1.obj
 0002:000f13b0       ?DrawTextA@CMetaFileDC@@QAEHABV?$CStringT@DV?$StrTraitMFC@DV?$ChTraitsCRT@D@ATL@@@@@ATL@@PAUtagRECT@@I@Z 101783b0 f   nafxcwd:afxinl1.obj
 0002:000f1400       ?DrawTextExA@CMetaFileDC@@QAEHABV?$CStringT@DV?$StrTraitMFC@DV?$ChTraitsCRT@D@ATL@@@@@ATL@@PAUtagRECT@@IPAUtagDRAWTEXTPARAMS@@@Z 10178400 f   nafxcwd:afxinl1.obj
 0002:000f1450       ?PtVisible@CMetaFileDC@@QBEHUtagPOINT@@@Z 10178450 f   nafxcwd:afxinl1.obj
 0002:000f1490       ?GetRowCount@CSplitterWnd@@QBEHXZ 10178490 f   nafxcwd:afxinl1.obj
 0002:000f14b0       ?GetColumnCount@CSplitterWnd@@QBEHXZ 101784b0 f   nafxcwd:afxinl1.obj
 0002:000f14d0       ?IsChildPane@CSplitterWnd@@QAEHPAVCWnd@@AAH1@Z 101784d0 f   nafxcwd:afxinl1.obj
 0002:000f1500       ?GetActivePane@CSplitterWnd@@IAEPAVCWnd@@AAH0@Z 10178500 f   nafxcwd:afxinl1.obj
 0002:000f1530       ?IsTracking@CSplitterWnd@@QAEHXZ 10178530 f   nafxcwd:afxinl1.obj
 0002:000f1550       ?GetCount@CControlBar@@QBEHXZ 10178550 f   nafxcwd:afxinl1.obj
 0002:000f1570       ?GetBarStyle@CControlBar@@QAEKXZ 10178570 f   nafxcwd:afxinl1.obj
 0002:000f1590       ?SetBorders@CControlBar@@QAEXPBUtagRECT@@@Z 10178590 f   nafxcwd:afxinl1.obj
 0002:000f15c0       ?GetBorders@CControlBar@@QBE?AVCRect@@XZ 101785c0 f   nafxcwd:afxinl1.obj
 0002:000f1600       ?LoadToolBar@CToolBar@@QAEHI@Z 10178600 f   nafxcwd:afxinl1.obj
 0002:000f1620       ?LoadBitmapA@CToolBar@@QAEHI@Z 10178620 f   nafxcwd:afxinl1.obj
 0002:000f1640       ?GetToolBarCtrl@CToolBar@@QBEAAVCToolBarCtrl@@XZ 10178640 f   nafxcwd:afxinl1.obj
 0002:000f1650       ?Create@CDialogBar@@UAEHPAVCWnd@@III@Z 10178650 f   nafxcwd:afxinl1.obj
 0002:000f1680       ?GetStatusBarCtrl@CStatusBar@@QBEAAVCStatusBarCtrl@@XZ 10178680 f   nafxcwd:afxinl1.obj
 0002:000f1690       ?SetBorders@CStatusBar@@QAEXPBUtagRECT@@@Z 10178690 f   nafxcwd:afxinl1.obj
 0002:000f16c0       ?SetBorders@CStatusBar@@QAEXHHHH@Z 101786c0 f   nafxcwd:afxinl1.obj
 0002:000f1700       ?EnableDocking@CStatusBar@@QAEXK@Z 10178700 f   nafxcwd:afxinl1.obj
 0002:000f1730       ?GetReBarCtrl@CReBar@@QBEAAVCReBarCtrl@@XZ 10178730 f   nafxcwd:afxinl1.obj
 0002:000f1740       ?EnableDocking@CReBar@@QAEXK@Z 10178740 f   nafxcwd:afxinl1.obj
 0002:000f1770       ??0CRectTracker@@QAE@XZ    10178770 f   nafxcwd:afxinl1.obj
 0002:000f17c0       ??0CBitmapButton@@QAE@XZ   101787c0 f   nafxcwd:afxinl1.obj
 0002:000f1850       ?LoadBitmaps@CBitmapButton@@QAEHIIII@Z 10178850 f   nafxcwd:afxinl1.obj
 0002:000f1880       ?SetMinPage@CPrintInfo@@QAEXI@Z 10178880 f   nafxcwd:afxinl1.obj
 0002:000f18a0       ?SetMaxPage@CPrintInfo@@QAEXI@Z 101788a0 f   nafxcwd:afxinl1.obj
 0002:000f18c0       ?GetMinPage@CPrintInfo@@QBEIXZ 101788c0 f   nafxcwd:afxinl1.obj
 0002:000f18e0       ?GetMaxPage@CPrintInfo@@QBEIXZ 101788e0 f   nafxcwd:afxinl1.obj
 0002:000f1900       ?GetFromPage@CPrintInfo@@QBEIXZ 10178900 f   nafxcwd:afxinl1.obj
 0002:000f1920       ?GetToPage@CPrintInfo@@QBEIXZ 10178920 f   nafxcwd:afxinl1.obj
 0002:000f1940       ?GetEditCtrl@CEditView@@QBEAAVCEdit@@XZ 10178940 f   nafxcwd:afxinl1.obj
 0002:000f2aa0       ??_ECMemoryException@@UAEPAXI@Z 10179aa0 f i nafxcwd:afxinl1.obj
 0002:000f2aa0       ??_GCMemoryException@@UAEPAXI@Z 10179aa0 f i nafxcwd:afxinl1.obj
 0002:000f2ae0       ??_GCNotSupportedException@@UAEPAXI@Z 10179ae0 f i nafxcwd:afxinl1.obj
 0002:000f2ae0       ??_ECNotSupportedException@@UAEPAXI@Z 10179ae0 f i nafxcwd:afxinl1.obj
 0002:000f2b20       ??_ECInvalidArgException@@UAEPAXI@Z 10179b20 f i nafxcwd:afxinl1.obj
 0002:000f2b20       ??_GCInvalidArgException@@UAEPAXI@Z 10179b20 f i nafxcwd:afxinl1.obj
 0002:000f2b60       ??_GCArchiveException@@UAEPAXI@Z 10179b60 f i nafxcwd:afxinl1.obj
 0002:000f2b60       ??_ECArchiveException@@UAEPAXI@Z 10179b60 f i nafxcwd:afxinl1.obj
 0002:000f2ba0       ??_ECFileException@@UAEPAXI@Z 10179ba0 f i nafxcwd:afxinl1.obj
 0002:000f2ba0       ??_GCFileException@@UAEPAXI@Z 10179ba0 f i nafxcwd:afxinl1.obj
 0002:000f2be0       ??_GCRectTracker@@UAEPAXI@Z 10179be0 f i nafxcwd:afxinl1.obj
 0002:000f2be0       ??_ECRectTracker@@UAEPAXI@Z 10179be0 f i nafxcwd:afxinl1.obj
 0002:000f2c20       ??_GCBitmapButton@@UAEPAXI@Z 10179c20 f i nafxcwd:afxinl1.obj
 0002:000f2c20       ??_ECBitmapButton@@UAEPAXI@Z 10179c20 f i nafxcwd:afxinl1.obj
 0002:000f2c60       ??1CBitmapButton@@UAE@XZ   10179c60 f i nafxcwd:afxinl1.obj
 0002:000f2d00       ?AfxAssertFailedLine@@YGHPBDH@Z 10179d00 f   nafxcwd:afxasert.obj
 0002:000f2d60       ?_AfxTraceMsg@@YGXPBDPBUtagMSG@@@Z 10179d60 f   nafxcwd:afxtrace.obj
 0002:000f33a0       ?OutputString@CDumpContext@@IAEXPBD@Z 1017a3a0 f   nafxcwd:dumpcont.obj
 0002:000f3430       ??0CDumpContext@@QAE@PAVCFile@@@Z 1017a430 f   nafxcwd:dumpcont.obj
 0002:000f3470       ?Flush@CDumpContext@@QAEXXZ 1017a470 f   nafxcwd:dumpcont.obj
 0002:000f34a0       ??6CDumpContext@@QAEAAV0@PBD@Z 1017a4a0 f   nafxcwd:dumpcont.obj
 0002:000f35e0       ??6CDumpContext@@QAEAAV0@E@Z 1017a5e0 f   nafxcwd:dumpcont.obj
 0002:000f3630       ?DumpAsHex@CDumpContext@@QAEAAV1@E@Z 1017a630 f   nafxcwd:dumpcont.obj
 0002:000f3680       ??6CDumpContext@@QAEAAV0@G@Z 1017a680 f   nafxcwd:dumpcont.obj
 0002:000f36d0       ?DumpAsHex@CDumpContext@@QAEAAV1@G@Z 1017a6d0 f   nafxcwd:dumpcont.obj
 0002:000f3720       ??6CDumpContext@@QAEAAV0@I@Z 1017a720 f   nafxcwd:dumpcont.obj
 0002:000f3770       ??6CDumpContext@@QAEAAV0@J@Z 1017a770 f   nafxcwd:dumpcont.obj
 0002:000f37c0       ??6CDumpContext@@QAEAAV0@K@Z 1017a7c0 f   nafxcwd:dumpcont.obj
 0002:000f3810       ??6CDumpContext@@QAEAAV0@H@Z 1017a810 f   nafxcwd:dumpcont.obj
 0002:000f3860       ?DumpAsHex@CDumpContext@@QAEAAV1@I@Z 1017a860 f   nafxcwd:dumpcont.obj
 0002:000f38b0       ?DumpAsHex@CDumpContext@@QAEAAV1@J@Z 1017a8b0 f   nafxcwd:dumpcont.obj
 0002:000f3900       ?DumpAsHex@CDumpContext@@QAEAAV1@K@Z 1017a900 f   nafxcwd:dumpcont.obj
 0002:000f3950       ?DumpAsHex@CDumpContext@@QAEAAV1@H@Z 1017a950 f   nafxcwd:dumpcont.obj
 0002:000f39a0       ??6CDumpContext@@QAEAAV0@_J@Z 1017a9a0 f   nafxcwd:dumpcont.obj
 0002:000f39f0       ??6CDumpContext@@QAEAAV0@_K@Z 1017a9f0 f   nafxcwd:dumpcont.obj
 0002:000f3a40       ?DumpAsHex@CDumpContext@@QAEAAV1@_J@Z 1017aa40 f   nafxcwd:dumpcont.obj
 0002:000f3a90       ?DumpAsHex@CDumpContext@@QAEAAV1@_K@Z 1017aa90 f   nafxcwd:dumpcont.obj
 0002:000f3ae0       ??6CDumpContext@@QAEAAV0@PBVCObject@@@Z 1017aae0 f   nafxcwd:dumpcont.obj
 0002:000f3b20       ??6CDumpContext@@QAEAAV0@ABVCObject@@@Z 1017ab20 f   nafxcwd:dumpcont.obj
 0002:000f3b40       ??6CDumpContext@@QAEAAV0@PBX@Z 1017ab40 f   nafxcwd:dumpcont.obj
 0002:000f3b90       ??6CDumpContext@@QAEAAV0@PAUHWND__@@@Z 1017ab90 f   nafxcwd:dumpcont.obj
 0002:000f3bb0       ??6CDumpContext@@QAEAAV0@PAUHDC__@@@Z 1017abb0 f   nafxcwd:dumpcont.obj
 0002:000f3bd0       ??6CDumpContext@@QAEAAV0@PAUHMENU__@@@Z 1017abd0 f   nafxcwd:dumpcont.obj
 0002:000f3bf0       ??6CDumpContext@@QAEAAV0@PAUHACCEL__@@@Z 1017abf0 f   nafxcwd:dumpcont.obj
 0002:000f3c10       ??6CDumpContext@@QAEAAV0@PAUHFONT__@@@Z 1017ac10 f   nafxcwd:dumpcont.obj
 0002:000f3c30       ?HexDump@CDumpContext@@QAEXPBDPAEHH@Z 1017ac30 f   nafxcwd:dumpcont.obj
 0002:000f3db0       ??6CDumpContext@@QAEAAV0@PB_W@Z 1017adb0 f   nafxcwd:dumpcont.obj
 0002:000f40d0       ??6CDumpContext@@QAEAAV0@M@Z 1017b0d0 f   nafxcwd:dumpflt.obj
 0002:000f4120       ??6CDumpContext@@QAEAAV0@N@Z 1017b120 f   nafxcwd:dumpflt.obj
 0002:000f51b0       ??BCWnd@@QBEPAUHWND__@@XZ  1017c1b0 f   nafxcwd:afxinl3.obj
 0002:000f51e0       ??8CWnd@@QBEHABV0@@Z       1017c1e0 f   nafxcwd:afxinl3.obj
 0002:000f5200       ??9CWnd@@QBEHABV0@@Z       1017c200 f   nafxcwd:afxinl3.obj
 0002:000f5230       ?GetSafeHwnd@CWnd@@QBEPAUHWND__@@XZ 1017c230 f   nafxcwd:afxinl3.obj
 0002:000f5260       ?GetOwner@CWnd@@QBEPAV1@XZ 1017c260 f   nafxcwd:afxinl3.obj
 0002:000f52a0       ?SetOwner@CWnd@@QAEXPAV1@@Z 1017c2a0 f   nafxcwd:afxinl3.obj
 0002:000f52d0       ?SendMessageA@CWnd@@QAEJIIJ@Z 1017c2d0 f   nafxcwd:afxinl3.obj
 0002:000f5320       ?PostMessageA@CWnd@@QAEHIIJ@Z 1017c320 f   nafxcwd:afxinl3.obj
 0002:000f5370       ?DragDetect@CWnd@@QBEHUtagPOINT@@@Z 1017c370 f   nafxcwd:afxinl3.obj
 0002:000f53c0       ?SetFont@CWnd@@QAEXPAVCFont@@H@Z 1017c3c0 f   nafxcwd:afxinl3.obj
 0002:000f5410       ?GetFont@CWnd@@QBEPAVCFont@@XZ 1017c410 f   nafxcwd:afxinl3.obj
 0002:000f5460       ?GetMenu@CWnd@@QBEPAVCMenu@@XZ 1017c460 f   nafxcwd:afxinl3.obj
 0002:000f54a0       ?SetMenu@CWnd@@QAEHPAVCMenu@@@Z 1017c4a0 f   nafxcwd:afxinl3.obj
 0002:000f54f0       ?DragAcceptFiles@CWnd@@QAEXH@Z 1017c4f0 f   nafxcwd:afxinl3.obj
 0002:000f5530       ?DrawMenuBar@CWnd@@QAEXXZ  1017c530 f   nafxcwd:afxinl3.obj
 0002:000f5570       ?GetSystemMenu@CWnd@@QBEPAVCMenu@@H@Z 1017c570 f   nafxcwd:afxinl3.obj
 0002:000f55c0       ?HiliteMenuItem@CWnd@@QAEHPAVCMenu@@II@Z 1017c5c0 f   nafxcwd:afxinl3.obj
 0002:000f5610       ?IsIconic@CWnd@@QBEHXZ     1017c610 f   nafxcwd:afxinl3.obj
 0002:000f5650       ?IsZoomed@CWnd@@QBEHXZ     1017c650 f   nafxcwd:afxinl3.obj
 0002:000f5690       ?MoveWindow@CWnd@@QAEXPBUtagRECT@@H@Z 1017c690 f   nafxcwd:afxinl3.obj
 0002:000f56d0       ?ArrangeIconicWindows@CWnd@@QAEIXZ 1017c6d0 f   nafxcwd:afxinl3.obj
 0002:000f5710       ?SetWindowRgn@CWnd@@QAEHPAUHRGN__@@H@Z 1017c710 f   nafxcwd:afxinl3.obj
 0002:000f5760       ?GetWindowRgn@CWnd@@QBEHPAUHRGN__@@@Z 1017c760 f   nafxcwd:afxinl3.obj
 0002:000f57b0       ?BringWindowToTop@CWnd@@QAEXXZ 1017c7b0 f   nafxcwd:afxinl3.obj
 0002:000f57f0       ?GetWindowRect@CWnd@@QBEXPAUtagRECT@@@Z 1017c7f0 f   nafxcwd:afxinl3.obj
 0002:000f5830       ?GetClientRect@CWnd@@QBEXPAUtagRECT@@@Z 1017c830 f   nafxcwd:afxinl3.obj
 0002:000f5870       ?MapWindowPoints@CWnd@@QBEXPAV1@PAUtagPOINT@@I@Z 1017c870 f   nafxcwd:afxinl3.obj
 0002:000f58c0       ?MapWindowPoints@CWnd@@QBEXPAV1@PAUtagRECT@@@Z 1017c8c0 f   nafxcwd:afxinl3.obj
 0002:000f5910       ?ClientToScreen@CWnd@@QBEXPAUtagPOINT@@@Z 1017c910 f   nafxcwd:afxinl3.obj
 0002:000f5950       ?ScreenToClient@CWnd@@QBEXPAUtagPOINT@@@Z 1017c950 f   nafxcwd:afxinl3.obj
 0002:000f5990       ?BeginPaint@CWnd@@QAEPAVCDC@@PAUtagPAINTSTRUCT@@@Z 1017c990 f   nafxcwd:afxinl3.obj
 0002:000f59e0       ?EndPaint@CWnd@@QAEXPAUtagPAINTSTRUCT@@@Z 1017c9e0 f   nafxcwd:afxinl3.obj
 0002:000f5a20       ?GetDC@CWnd@@QAEPAVCDC@@XZ 1017ca20 f   nafxcwd:afxinl3.obj
 0002:000f5a60       ?GetWindowDC@CWnd@@QAEPAVCDC@@XZ 1017ca60 f   nafxcwd:afxinl3.obj
 0002:000f5aa0       ?ReleaseDC@CWnd@@QAEHPAVCDC@@@Z 1017caa0 f   nafxcwd:afxinl3.obj
 0002:000f5af0       ?UpdateWindow@CWnd@@QAEXXZ 1017caf0 f   nafxcwd:afxinl3.obj
 0002:000f5b30       ?SetRedraw@CWnd@@QAEXH@Z   1017cb30 f   nafxcwd:afxinl3.obj
 0002:000f5b80       ?GetUpdateRect@CWnd@@QAEHPAUtagRECT@@H@Z 1017cb80 f   nafxcwd:afxinl3.obj
 0002:000f5bd0       ?GetUpdateRgn@CWnd@@QAEHPAVCRgn@@H@Z 1017cbd0 f   nafxcwd:afxinl3.obj
 0002:000f5c20       ?Invalidate@CWnd@@QAEXH@Z  1017cc20 f   nafxcwd:afxinl3.obj
 0002:000f5c70       ?InvalidateRect@CWnd@@QAEXPBUtagRECT@@H@Z 1017cc70 f   nafxcwd:afxinl3.obj
 0002:000f5cc0       ?InvalidateRgn@CWnd@@QAEXPAVCRgn@@H@Z 1017ccc0 f   nafxcwd:afxinl3.obj
 0002:000f5d10       ?ValidateRect@CWnd@@QAEXPBUtagRECT@@@Z 1017cd10 f   nafxcwd:afxinl3.obj
 0002:000f5d60       ?ValidateRgn@CWnd@@QAEXPAVCRgn@@@Z 1017cd60 f   nafxcwd:afxinl3.obj
 0002:000f5db0       ?IsWindowVisible@CWnd@@QBEHXZ 1017cdb0 f   nafxcwd:afxinl3.obj
 0002:000f5df0       ?ShowOwnedPopups@CWnd@@QAEXH@Z 1017cdf0 f   nafxcwd:afxinl3.obj
 0002:000f5e40       ?SendMessageToDescendants@CWnd@@QAEXIIJHH@Z 1017ce40 f   nafxcwd:afxinl3.obj
 0002:000f5ea0       ?GetDescendantWindow@CWnd@@QBEPAV1@HH@Z 1017cea0 f   nafxcwd:afxinl3.obj
 0002:000f5ef0       ?GetDCEx@CWnd@@QAEPAVCDC@@PAVCRgn@@K@Z 1017cef0 f   nafxcwd:afxinl3.obj
 0002:000f5f50       ?LockWindowUpdate@CWnd@@QAEHXZ 1017cf50 f   nafxcwd:afxinl3.obj
 0002:000f5f90       ?UnlockWindowUpdate@CWnd@@QAEXXZ 1017cf90 f   nafxcwd:afxinl3.obj
 0002:000f5fd0       ?RedrawWindow@CWnd@@QAEHPBUtagRECT@@PAVCRgn@@I@Z 1017cfd0 f   nafxcwd:afxinl3.obj
 0002:000f6020       ?EnableScrollBar@CWnd@@QAEHHI@Z 1017d020 f   nafxcwd:afxinl3.obj
 0002:000f6070       ?DrawAnimatedRects@CWnd@@QAEHHPBUtagRECT@@0@Z 1017d070 f   nafxcwd:afxinl3.obj
 0002:000f60c0       ?DrawCaption@CWnd@@QAEHPAVCDC@@PBUtagRECT@@I@Z 1017d0c0 f   nafxcwd:afxinl3.obj
 0002:000f6110       ?SetTimer@CWnd@@QAEIIIP6GXPAUHWND__@@IIK@Z@Z 1017d110 f   nafxcwd:afxinl3.obj
 0002:000f6160       ?KillTimer@CWnd@@QAEHI@Z   1017d160 f   nafxcwd:afxinl3.obj
 0002:000f61b0       ?GetActiveWindow@CWnd@@SGPAV1@XZ 1017d1b0 f   nafxcwd:afxinl3.obj
 0002:000f61d0       ?SetActiveWindow@CWnd@@QAEPAV1@XZ 1017d1d0 f   nafxcwd:afxinl3.obj
 0002:000f6220       ?GetCapture@CWnd@@SGPAV1@XZ 1017d220 f   nafxcwd:afxinl3.obj
 0002:000f6240       ?SetCapture@CWnd@@QAEPAV1@XZ 1017d240 f   nafxcwd:afxinl3.obj
 0002:000f6290       ?GetFocus@CWnd@@SGPAV1@XZ  1017d290 f   nafxcwd:afxinl3.obj
 0002:000f62b0       ?GetDesktopWindow@CWnd@@SGPAV1@XZ 1017d2b0 f   nafxcwd:afxinl3.obj
 0002:000f62d0       ?DlgDirListA@CWnd@@QAEHPADHHI@Z 1017d2d0 f   nafxcwd:afxinl3.obj
 0002:000f6320       ?DlgDirListComboBoxA@CWnd@@QAEHPADHHI@Z 1017d320 f   nafxcwd:afxinl3.obj
 0002:000f6370       ?DlgDirSelect@CWnd@@QAEHPADH@Z 1017d370 f   nafxcwd:afxinl3.obj
 0002:000f63c0       ?DlgDirSelectComboBox@CWnd@@QAEHPADH@Z 1017d3c0 f   nafxcwd:afxinl3.obj
 0002:000f6410       ?GetNextDlgGroupItem@CWnd@@QBEPAV1@PAV1@H@Z 1017d410 f   nafxcwd:afxinl3.obj
 0002:000f6470       ?GetNextDlgTabItem@CWnd@@QBEPAV1@PAV1@H@Z 1017d470 f   nafxcwd:afxinl3.obj
 0002:000f64d0       ?ShowScrollBar@CWnd@@QAEXIH@Z 1017d4d0 f   nafxcwd:afxinl3.obj
 0002:000f6520       ?ChildWindowFromPoint@CWnd@@QBEPAV1@UtagPOINT@@@Z 1017d520 f   nafxcwd:afxinl3.obj
 0002:000f6570       ?ChildWindowFromPoint@CWnd@@QBEPAV1@UtagPOINT@@I@Z 1017d570 f   nafxcwd:afxinl3.obj
 0002:000f65d0       ?FindWindowA@CWnd@@SGPAV1@PBD0@Z 1017d5d0 f   nafxcwd:afxinl3.obj
 0002:000f65f0       ?FindWindowExA@CWnd@@SAPAV1@PAUHWND__@@0PBD1@Z 1017d5f0 f   nafxcwd:afxinl3.obj
 0002:000f6620       ?GetNextWindow@CWnd@@QBEPAV1@I@Z 1017d620 f   nafxcwd:afxinl3.obj
 0002:000f6670       ?GetTopWindow@CWnd@@QBEPAV1@XZ 1017d670 f   nafxcwd:afxinl3.obj
 0002:000f66c0       ?GetWindow@CWnd@@QBEPAV1@I@Z 1017d6c0 f   nafxcwd:afxinl3.obj
 0002:000f6710       ?GetLastActivePopup@CWnd@@QBEPAV1@XZ 1017d710 f   nafxcwd:afxinl3.obj
 0002:000f6760       ?IsChild@CWnd@@QBEHPBV1@@Z 1017d760 f   nafxcwd:afxinl3.obj
 0002:000f67b0       ?GetParent@CWnd@@QBEPAV1@XZ 1017d7b0 f   nafxcwd:afxinl3.obj
 0002:000f6800       ?SetParent@CWnd@@QAEPAV1@PAV1@@Z 1017d800 f   nafxcwd:afxinl3.obj
 0002:000f6850       ?WindowFromPoint@CWnd@@SGPAV1@UtagPOINT@@@Z 1017d850 f   nafxcwd:afxinl3.obj
 0002:000f6870       ?FlashWindow@CWnd@@QAEHH@Z 1017d870 f   nafxcwd:afxinl3.obj
 0002:000f68c0       ?ChangeClipboardChain@CWnd@@QAEHPAUHWND__@@@Z 1017d8c0 f   nafxcwd:afxinl3.obj
 0002:000f6910       ?SetClipboardViewer@CWnd@@QAEPAUHWND__@@XZ 1017d910 f   nafxcwd:afxinl3.obj
 0002:000f6950       ?OpenClipboard@CWnd@@QAEHXZ 1017d950 f   nafxcwd:afxinl3.obj
 0002:000f6990       ?GetOpenClipboardWindow@CWnd@@SGPAV1@XZ 1017d990 f   nafxcwd:afxinl3.obj
 0002:000f69b0       ?GetClipboardOwner@CWnd@@SGPAV1@XZ 1017d9b0 f   nafxcwd:afxinl3.obj
 0002:000f69d0       ?GetClipboardViewer@CWnd@@SGPAV1@XZ 1017d9d0 f   nafxcwd:afxinl3.obj
 0002:000f69f0       ?CreateCaret@CWnd@@QAEXPAVCBitmap@@@Z 1017d9f0 f   nafxcwd:afxinl3.obj
 0002:000f6a40       ?CreateSolidCaret@CWnd@@QAEXHH@Z 1017da40 f   nafxcwd:afxinl3.obj
 0002:000f6a90       ?CreateGrayCaret@CWnd@@QAEXHH@Z 1017da90 f   nafxcwd:afxinl3.obj
 0002:000f6ae0       ?GetCaretPos@CWnd@@SG?AVCPoint@@XZ 1017dae0 f   nafxcwd:afxinl3.obj
 0002:000f6b10       ?SetCaretPos@CWnd@@SGXUtagPOINT@@@Z 1017db10 f   nafxcwd:afxinl3.obj
 0002:000f6b30       ?HideCaret@CWnd@@QAEXXZ    1017db30 f   nafxcwd:afxinl3.obj
 0002:000f6b70       ?ShowCaret@CWnd@@QAEXXZ    1017db70 f   nafxcwd:afxinl3.obj
 0002:000f6bb0       ?SetForegroundWindow@CWnd@@QAEHXZ 1017dbb0 f   nafxcwd:afxinl3.obj
 0002:000f6bf0       ?GetForegroundWindow@CWnd@@SGPAV1@XZ 1017dbf0 f   nafxcwd:afxinl3.obj
 0002:000f6c10       ?SendNotifyMessageA@CWnd@@QAEHIIJ@Z 1017dc10 f   nafxcwd:afxinl3.obj
 0002:000f6c60       ?SetIcon@CWnd@@QAEPAUHICON__@@PAU2@H@Z 1017dc60 f   nafxcwd:afxinl3.obj
 0002:000f6cb0       ?GetIcon@CWnd@@QBEPAUHICON__@@H@Z 1017dcb0 f   nafxcwd:afxinl3.obj
 0002:000f6d00       ?Print@CWnd@@QBEXPAVCDC@@K@Z 1017dd00 f   nafxcwd:afxinl3.obj
 0002:000f6d60       ?PrintClient@CWnd@@QBEXPAVCDC@@K@Z 1017dd60 f   nafxcwd:afxinl3.obj
 0002:000f6dc0       ?SetWindowContextHelpId@CWnd@@QAEHK@Z 1017ddc0 f   nafxcwd:afxinl3.obj
 0002:000f6e10       ?GetWindowContextHelpId@CWnd@@QBEKXZ 1017de10 f   nafxcwd:afxinl3.obj
 0002:000f6e50       ?EnableActiveAccessibility@CWnd@@QAEXXZ 1017de50 f   nafxcwd:afxinl3.obj
 0002:000f6e70       ?NotifyWinEvent@CWnd@@QAEXKJJ@Z 1017de70 f   nafxcwd:afxinl3.obj
 0002:000f6ed0       ?OnActivateApp@CWnd@@IAEXHK@Z 1017ded0 f   nafxcwd:afxinl3.obj
 0002:000f6ef0       ?OnActivate@CWnd@@IAEXIPAV1@H@Z 1017def0 f   nafxcwd:afxinl3.obj
 0002:000f6f10       ?OnCancelMode@CWnd@@IAEXXZ 1017df10 f   nafxcwd:afxinl3.obj
 0002:000f6f30       ?OnChildActivate@CWnd@@IAEXXZ 1017df30 f   nafxcwd:afxinl3.obj
 0002:000f6f50       ?OnClose@CWnd@@IAEXXZ      1017df50 f   nafxcwd:afxinl3.obj
 0002:000f6f70       ?OnContextMenu@CWnd@@IAEXPAV1@VCPoint@@@Z 1017df70 f   nafxcwd:afxinl3.obj
 0002:000f6f90       ?OnCopyData@CWnd@@IAEHPAV1@PAUtagCOPYDATASTRUCT@@@Z 1017df90 f   nafxcwd:afxinl3.obj
 0002:000f6fb0       ?OnCreate@CWnd@@IAEHPAUtagCREATESTRUCTA@@@Z 1017dfb0 f   nafxcwd:afxinl3.obj
 0002:000f6fd0       ?OnEnable@CWnd@@IAEXH@Z    1017dfd0 f   nafxcwd:afxinl3.obj
 0002:000f6ff0       ?OnEndSession@CWnd@@IAEXH@Z 1017dff0 f   nafxcwd:afxinl3.obj
 0002:000f7010       ?OnEraseBkgnd@CWnd@@IAEHPAVCDC@@@Z 1017e010 f   nafxcwd:afxinl3.obj
 0002:000f7030       ?OnGetMinMaxInfo@CWnd@@IAEXPAUtagMINMAXINFO@@@Z 1017e030 f   nafxcwd:afxinl3.obj
 0002:000f7050       ?OnIconEraseBkgnd@CWnd@@IAEXPAVCDC@@@Z 1017e050 f   nafxcwd:afxinl3.obj
 0002:000f7070       ?OnKillFocus@CWnd@@IAEXPAV1@@Z 1017e070 f   nafxcwd:afxinl3.obj
 0002:000f7090       ?OnMenuChar@CWnd@@IAEJIIPAVCMenu@@@Z 1017e090 f   nafxcwd:afxinl3.obj
 0002:000f70b0       ?OnMenuSelect@CWnd@@IAEXIIPAUHMENU__@@@Z 1017e0b0 f   nafxcwd:afxinl3.obj
 0002:000f70d0       ?OnMove@CWnd@@IAEXHH@Z     1017e0d0 f   nafxcwd:afxinl3.obj
 0002:000f70f0       ?OnQueryDragIcon@CWnd@@IAEPAUHICON__@@XZ 1017e0f0 f   nafxcwd:afxinl3.obj
 0002:000f7110       ?OnQueryEndSession@CWnd@@IAEHXZ 1017e110 f   nafxcwd:afxinl3.obj
 0002:000f7130       ?OnQueryNewPalette@CWnd@@IAEHXZ 1017e130 f   nafxcwd:afxinl3.obj
 0002:000f7150       ?OnQueryOpen@CWnd@@IAEHXZ  1017e150 f   nafxcwd:afxinl3.obj
 0002:000f7170       ?OnSetCursor@CWnd@@IAEHPAV1@II@Z 1017e170 f   nafxcwd:afxinl3.obj
 0002:000f7190       ?OnShowWindow@CWnd@@IAEXHI@Z 1017e190 f   nafxcwd:afxinl3.obj
 0002:000f71b0       ?OnSize@CWnd@@IAEXIHH@Z    1017e1b0 f   nafxcwd:afxinl3.obj
 0002:000f71d0       ?OnTCard@CWnd@@IAEXIK@Z    1017e1d0 f   nafxcwd:afxinl3.obj
 0002:000f71f0       ?OnWindowPosChanging@CWnd@@IAEXPAUtagWINDOWPOS@@@Z 1017e1f0 f   nafxcwd:afxinl3.obj
 0002:000f7210       ?OnWindowPosChanged@CWnd@@IAEXPAUtagWINDOWPOS@@@Z 1017e210 f   nafxcwd:afxinl3.obj
 0002:000f7230       ?OnDropFiles@CWnd@@IAEXPAUHDROP__@@@Z 1017e230 f   nafxcwd:afxinl3.obj
 0002:000f7250       ?OnPaletteIsChanging@CWnd@@IAEXPAV1@@Z 1017e250 f   nafxcwd:afxinl3.obj
 0002:000f7270       ?OnNcActivate@CWnd@@IAEHH@Z 1017e270 f   nafxcwd:afxinl3.obj
 0002:000f7290       ?OnNcCalcSize@CWnd@@IAEXHPAUtagNCCALCSIZE_PARAMS@@@Z 1017e290 f   nafxcwd:afxinl3.obj
 0002:000f72b0       ?OnNcCreate@CWnd@@IAEHPAUtagCREATESTRUCTA@@@Z 1017e2b0 f   nafxcwd:afxinl3.obj
 0002:000f72d0       ?OnNcHitTest@CWnd@@IAEIVCPoint@@@Z 1017e2d0 f   nafxcwd:afxinl3.obj
 0002:000f72f0       ?OnNcLButtonDblClk@CWnd@@IAEXIVCPoint@@@Z 1017e2f0 f   nafxcwd:afxinl3.obj
 0002:000f7310       ?OnNcLButtonDown@CWnd@@IAEXIVCPoint@@@Z 1017e310 f   nafxcwd:afxinl3.obj
 0002:000f7330       ?OnNcLButtonUp@CWnd@@IAEXIVCPoint@@@Z 1017e330 f   nafxcwd:afxinl3.obj
 0002:000f7350       ?OnNcMButtonDblClk@CWnd@@IAEXIVCPoint@@@Z 1017e350 f   nafxcwd:afxinl3.obj
 0002:000f7370       ?OnNcMButtonDown@CWnd@@IAEXIVCPoint@@@Z 1017e370 f   nafxcwd:afxinl3.obj
 0002:000f7390       ?OnNcMButtonUp@CWnd@@IAEXIVCPoint@@@Z 1017e390 f   nafxcwd:afxinl3.obj
 0002:000f73b0       ?OnNcMouseMove@CWnd@@IAEXIVCPoint@@@Z 1017e3b0 f   nafxcwd:afxinl3.obj
 0002:000f73d0       ?OnNcPaint@CWnd@@IAEXXZ    1017e3d0 f   nafxcwd:afxinl3.obj
 0002:000f73f0       ?OnNcRButtonDblClk@CWnd@@IAEXIVCPoint@@@Z 1017e3f0 f   nafxcwd:afxinl3.obj
 0002:000f7410       ?OnNcRButtonDown@CWnd@@IAEXIVCPoint@@@Z 1017e410 f   nafxcwd:afxinl3.obj
 0002:000f7430       ?OnNcRButtonUp@CWnd@@IAEXIVCPoint@@@Z 1017e430 f   nafxcwd:afxinl3.obj
 0002:000f7450       ?OnSysChar@CWnd@@IAEXIII@Z 1017e450 f   nafxcwd:afxinl3.obj
 0002:000f7470       ?OnSysCommand@CWnd@@IAEXIJ@Z 1017e470 f   nafxcwd:afxinl3.obj
 0002:000f7490       ?OnSysDeadChar@CWnd@@IAEXIII@Z 1017e490 f   nafxcwd:afxinl3.obj
 0002:000f74b0       ?OnSysKeyDown@CWnd@@IAEXIII@Z 1017e4b0 f   nafxcwd:afxinl3.obj
 0002:000f74d0       ?OnSysKeyUp@CWnd@@IAEXIII@Z 1017e4d0 f   nafxcwd:afxinl3.obj
 0002:000f74f0       ?OnCompacting@CWnd@@IAEXI@Z 1017e4f0 f   nafxcwd:afxinl3.obj
 0002:000f7510       ?OnFontChange@CWnd@@IAEXXZ 1017e510 f   nafxcwd:afxinl3.obj
 0002:000f7530       ?OnPaletteChanged@CWnd@@IAEXPAV1@@Z 1017e530 f   nafxcwd:afxinl3.obj
 0002:000f7550       ?OnSpoolerStatus@CWnd@@IAEXII@Z 1017e550 f   nafxcwd:afxinl3.obj
 0002:000f7570       ?OnTimeChange@CWnd@@IAEXXZ 1017e570 f   nafxcwd:afxinl3.obj
 0002:000f7590       ?OnChar@CWnd@@IAEXIII@Z    1017e590 f   nafxcwd:afxinl3.obj
 0002:000f75b0       ?OnDeadChar@CWnd@@IAEXIII@Z 1017e5b0 f   nafxcwd:afxinl3.obj
 0002:000f75d0       ?OnKeyDown@CWnd@@IAEXIII@Z 1017e5d0 f   nafxcwd:afxinl3.obj
 0002:000f75f0       ?OnKeyUp@CWnd@@IAEXIII@Z   1017e5f0 f   nafxcwd:afxinl3.obj
 0002:000f7610       ?OnLButtonDblClk@CWnd@@IAEXIVCPoint@@@Z 1017e610 f   nafxcwd:afxinl3.obj
 0002:000f7630       ?OnLButtonDown@CWnd@@IAEXIVCPoint@@@Z 1017e630 f   nafxcwd:afxinl3.obj
 0002:000f7650       ?OnLButtonUp@CWnd@@IAEXIVCPoint@@@Z 1017e650 f   nafxcwd:afxinl3.obj
 0002:000f7670       ?OnMButtonDblClk@CWnd@@IAEXIVCPoint@@@Z 1017e670 f   nafxcwd:afxinl3.obj
 0002:000f7690       ?OnMButtonDown@CWnd@@IAEXIVCPoint@@@Z 1017e690 f   nafxcwd:afxinl3.obj
 0002:000f76b0       ?OnMButtonUp@CWnd@@IAEXIVCPoint@@@Z 1017e6b0 f   nafxcwd:afxinl3.obj
 0002:000f76d0       ?OnMouseActivate@CWnd@@IAEHPAV1@II@Z 1017e6d0 f   nafxcwd:afxinl3.obj
 0002:000f76f0       ?OnMouseMove@CWnd@@IAEXIVCPoint@@@Z 1017e6f0 f   nafxcwd:afxinl3.obj
 0002:000f7710       ?OnMouseWheel@CWnd@@IAEHIFVCPoint@@@Z 1017e710 f   nafxcwd:afxinl3.obj
 0002:000f7730       ?OnRegisteredMouseWheel@CWnd@@IAEJIJ@Z 1017e730 f   nafxcwd:afxinl3.obj
 0002:000f7750       ?OnRButtonDblClk@CWnd@@IAEXIVCPoint@@@Z 1017e750 f   nafxcwd:afxinl3.obj
 0002:000f7770       ?OnRButtonDown@CWnd@@IAEXIVCPoint@@@Z 1017e770 f   nafxcwd:afxinl3.obj
 0002:000f7790       ?OnRButtonUp@CWnd@@IAEXIVCPoint@@@Z 1017e790 f   nafxcwd:afxinl3.obj
 0002:000f77b0       ?OnTimer@CWnd@@IAEXI@Z     1017e7b0 f   nafxcwd:afxinl3.obj
 0002:000f77d0       ?OnInitMenu@CWnd@@IAEXPAVCMenu@@@Z 1017e7d0 f   nafxcwd:afxinl3.obj
 0002:000f77f0       ?OnInitMenuPopup@CWnd@@IAEXPAVCMenu@@IH@Z 1017e7f0 f   nafxcwd:afxinl3.obj
 0002:000f7810       ?OnAskCbFormatName@CWnd@@IAEXIPAD@Z 1017e810 f   nafxcwd:afxinl3.obj
 0002:000f7830       ?OnChangeCbChain@CWnd@@IAEXPAUHWND__@@0@Z 1017e830 f   nafxcwd:afxinl3.obj
 0002:000f7850       ?OnDestroyClipboard@CWnd@@IAEXXZ 1017e850 f   nafxcwd:afxinl3.obj
 0002:000f7870       ?OnDrawClipboard@CWnd@@IAEXXZ 1017e870 f   nafxcwd:afxinl3.obj
 0002:000f7890       ?OnHScrollClipboard@CWnd@@IAEXPAV1@II@Z 1017e890 f   nafxcwd:afxinl3.obj
 0002:000f78b0       ?OnPaintClipboard@CWnd@@IAEXPAV1@PAX@Z 1017e8b0 f   nafxcwd:afxinl3.obj
 0002:000f78d0       ?OnRenderAllFormats@CWnd@@IAEXXZ 1017e8d0 f   nafxcwd:afxinl3.obj
 0002:000f78f0       ?OnRenderFormat@CWnd@@IAEXI@Z 1017e8f0 f   nafxcwd:afxinl3.obj
 0002:000f7910       ?OnSizeClipboard@CWnd@@IAEXPAV1@PAX@Z 1017e910 f   nafxcwd:afxinl3.obj
 0002:000f7930       ?OnVScrollClipboard@CWnd@@IAEXPAV1@II@Z 1017e930 f   nafxcwd:afxinl3.obj
 0002:000f7950       ?OnGetDlgCode@CWnd@@IAEIXZ 1017e950 f   nafxcwd:afxinl3.obj
 0002:000f7970       ?OnMDIActivate@CWnd@@IAEXHPAV1@0@Z 1017e970 f   nafxcwd:afxinl3.obj
 0002:000f7990       ?OnEnterMenuLoop@CWnd@@IAEXH@Z 1017e990 f   nafxcwd:afxinl3.obj
 0002:000f79b0       ?OnExitMenuLoop@CWnd@@IAEXH@Z 1017e9b0 f   nafxcwd:afxinl3.obj
 0002:000f79d0       ?OnStyleChanged@CWnd@@IAEXHPAUtagSTYLESTRUCT@@@Z 1017e9d0 f   nafxcwd:afxinl3.obj
 0002:000f79f0       ?OnStyleChanging@CWnd@@IAEXHPAUtagSTYLESTRUCT@@@Z 1017e9f0 f   nafxcwd:afxinl3.obj
 0002:000f7a10       ?OnSizing@CWnd@@IAEXIPAUtagRECT@@@Z 1017ea10 f   nafxcwd:afxinl3.obj
 0002:000f7a30       ?OnMoving@CWnd@@IAEXIPAUtagRECT@@@Z 1017ea30 f   nafxcwd:afxinl3.obj
 0002:000f7a50       ?OnCaptureChanged@CWnd@@IAEXPAV1@@Z 1017ea50 f   nafxcwd:afxinl3.obj
 0002:000f7a70       ?OnDeviceChange@CWnd@@IAEHIK@Z 1017ea70 f   nafxcwd:afxinl3.obj
 0002:000f7a90       ?OnWinIniChange@CWnd@@IAEXPBD@Z 1017ea90 f   nafxcwd:afxinl3.obj
 0002:000f7ab0       ?OnChangeUIState@CWnd@@IAEXII@Z 1017eab0 f   nafxcwd:afxinl3.obj
 0002:000f7ad0       ?OnUpdateUIState@CWnd@@IAEXII@Z 1017ead0 f   nafxcwd:afxinl3.obj
 0002:000f7af0       ?OnQueryUIState@CWnd@@IAEIXZ 1017eaf0 f   nafxcwd:afxinl3.obj
 0002:000f7b10       ?DoDataExchange@CWnd@@MAEXPAVCDataExchange@@@Z 1017eb10 f   nafxcwd:afxinl3.obj
 0002:000f7b20       ?BeginModalState@CWnd@@UAEXXZ 1017eb20 f   nafxcwd:afxinl3.obj
 0002:000f7b40       ?EndModalState@CWnd@@UAEXXZ 1017eb40 f   nafxcwd:afxinl3.obj
 0002:000f7b60       ?DelayUpdateFrameTitle@CFrameWnd@@QAEXXZ 1017eb60 f   nafxcwd:afxinl3.obj
 0002:000f7b80       ?DelayRecalcLayout@CFrameWnd@@QAEXH@Z 1017eb80 f   nafxcwd:afxinl3.obj
 0002:000f7bb0       ?InModalState@CFrameWnd@@QBEHXZ 1017ebb0 f   nafxcwd:afxinl3.obj
 0002:000f7bd0       ?AddControlBar@CFrameWnd@@QAEXPAVCControlBar@@@Z 1017ebd0 f   nafxcwd:afxinl3.obj
 0002:000f7bf0       ?SetTitle@CFrameWnd@@QAEXPBD@Z 1017ebf0 f   nafxcwd:afxinl3.obj
 0002:000f7c10       ?GetTitle@CFrameWnd@@QBE?AV?$CStringT@DV?$StrTraitMFC@DV?$ChTraitsCRT@D@ATL@@@@@ATL@@XZ 1017ec10 f   nafxcwd:afxinl3.obj
 0002:000f7c50       ?Create@CDialog@@UAEHIPAVCWnd@@@Z 1017ec50 f   nafxcwd:afxinl3.obj
 0002:000f7c80       ?MapDialogRect@CDialog@@QBEXPAUtagRECT@@@Z 1017ec80 f   nafxcwd:afxinl3.obj
 0002:000f7cd0       ?SetHelpID@CDialog@@QAEXI@Z 1017ecd0 f   nafxcwd:afxinl3.obj
 0002:000f7cf0       ?NextDlgCtrl@CDialog@@QBEXXZ 1017ecf0 f   nafxcwd:afxinl3.obj
 0002:000f7d40       ?PrevDlgCtrl@CDialog@@QBEXXZ 1017ed40 f   nafxcwd:afxinl3.obj
 0002:000f7d90       ?GotoDlgCtrl@CDialog@@QAEXPAVCWnd@@@Z 1017ed90 f   nafxcwd:afxinl3.obj
 0002:000f7de0       ?SetDefID@CDialog@@QAEXI@Z 1017ede0 f   nafxcwd:afxinl3.obj
 0002:000f7e30       ?GetDefID@CDialog@@QBEKXZ  1017ee30 f   nafxcwd:afxinl3.obj
 0002:000f7e80       ??0CStatic@@QAE@XZ         1017ee80 f   nafxcwd:afxinl3.obj
 0002:000f7ea0       ?SetIcon@CStatic@@QAEPAUHICON__@@PAU2@@Z 1017eea0 f   nafxcwd:afxinl3.obj
 0002:000f7ef0       ?GetIcon@CStatic@@QBEPAUHICON__@@XZ 1017eef0 f   nafxcwd:afxinl3.obj
 0002:000f7f40       ?SetEnhMetaFile@CStatic@@QAEPAUHENHMETAFILE__@@PAU2@@Z 1017ef40 f   nafxcwd:afxinl3.obj
 0002:000f7f90       ?GetEnhMetaFileA@CStatic@@QBEPAUHENHMETAFILE__@@XZ 1017ef90 f   nafxcwd:afxinl3.obj
 0002:000f7fe0       ?SetBitmap@CStatic@@QAEPAUHBITMAP__@@PAU2@@Z 1017efe0 f   nafxcwd:afxinl3.obj
 0002:000f8030       ?GetBitmap@CStatic@@QBEPAUHBITMAP__@@XZ 1017f030 f   nafxcwd:afxinl3.obj
 0002:000f8080       ?SetCursor@CStatic@@QAEPAUHICON__@@PAU2@@Z 1017f080 f   nafxcwd:afxinl3.obj
 0002:000f80d0       ?GetCursor@CStatic@@QAEPAUHICON__@@XZ 1017f0d0 f   nafxcwd:afxinl3.obj
 0002:000f8120       ??0CButton@@QAE@XZ         1017f120 f   nafxcwd:afxinl3.obj
 0002:000f8140       ?GetState@CButton@@QBEIXZ  1017f140 f   nafxcwd:afxinl3.obj
 0002:000f8190       ?SetState@CButton@@QAEXH@Z 1017f190 f   nafxcwd:afxinl3.obj
 0002:000f81c0       ?GetCheck@CButton@@QBEHXZ  1017f1c0 f   nafxcwd:afxinl3.obj
 0002:000f8210       ?SetCheck@CButton@@QAEXH@Z 1017f210 f   nafxcwd:afxinl3.obj
 0002:000f8260       ?GetButtonStyle@CButton@@QBEIXZ 1017f260 f   nafxcwd:afxinl3.obj
 0002:000f82b0       ?SetButtonStyle@CButton@@QAEXIH@Z 1017f2b0 f   nafxcwd:afxinl3.obj
 0002:000f8300       ?SetIcon@CButton@@QAEPAUHICON__@@PAU2@@Z 1017f300 f   nafxcwd:afxinl3.obj
 0002:000f8350       ?GetIcon@CButton@@QBEPAUHICON__@@XZ 1017f350 f   nafxcwd:afxinl3.obj
 0002:000f83a0       ?SetBitmap@CButton@@QAEPAUHBITMAP__@@PAU2@@Z 1017f3a0 f   nafxcwd:afxinl3.obj
 0002:000f83f0       ?GetBitmap@CButton@@QBEPAUHBITMAP__@@XZ 1017f3f0 f   nafxcwd:afxinl3.obj
 0002:000f8440       ?SetCursor@CButton@@QAEPAUHICON__@@PAU2@@Z 1017f440 f   nafxcwd:afxinl3.obj
 0002:000f8490       ?GetCursor@CButton@@QAEPAUHICON__@@XZ 1017f490 f   nafxcwd:afxinl3.obj
 0002:000f84e0       ??0CListBox@@QAE@XZ        1017f4e0 f   nafxcwd:afxinl3.obj
 0002:000f8500       ?GetCount@CListBox@@QBEHXZ 1017f500 f   nafxcwd:afxinl3.obj
 0002:000f8550       ?GetCurSel@CListBox@@QBEHXZ 1017f550 f   nafxcwd:afxinl3.obj
 0002:000f85a0       ?SetCurSel@CListBox@@QAEHH@Z 1017f5a0 f   nafxcwd:afxinl3.obj
 0002:000f85f0       ?GetHorizontalExtent@CListBox@@QBEHXZ 1017f5f0 f   nafxcwd:afxinl3.obj
 0002:000f8640       ?SetHorizontalExtent@CListBox@@QAEXH@Z 1017f640 f   nafxcwd:afxinl3.obj
 0002:000f8690       ?GetSelCount@CListBox@@QBEHXZ 1017f690 f   nafxcwd:afxinl3.obj
 0002:000f86e0       ?GetSelItems@CListBox@@QBEHHPAH@Z 1017f6e0 f   nafxcwd:afxinl3.obj
 0002:000f8730       ?GetTopIndex@CListBox@@QBEHXZ 1017f730 f   nafxcwd:afxinl3.obj
 0002:000f8780       ?SetTopIndex@CListBox@@QAEHH@Z 1017f780 f   nafxcwd:afxinl3.obj
 0002:000f87d0       ?GetItemData@CListBox@@QBEKH@Z 1017f7d0 f   nafxcwd:afxinl3.obj
 0002:000f8820       ?SetItemData@CListBox@@QAEHHK@Z 1017f820 f   nafxcwd:afxinl3.obj
 0002:000f8870       ?GetItemDataPtr@CListBox@@QBEPAXH@Z 1017f870 f   nafxcwd:afxinl3.obj
 0002:000f88c0       ?SetItemDataPtr@CListBox@@QAEHHPAX@Z 1017f8c0 f   nafxcwd:afxinl3.obj
 0002:000f8910       ?GetItemRect@CListBox@@QBEHHPAUtagRECT@@@Z 1017f910 f   nafxcwd:afxinl3.obj
 0002:000f8960       ?GetSel@CListBox@@QBEHH@Z  1017f960 f   nafxcwd:afxinl3.obj
 0002:000f89b0       ?SetSel@CListBox@@QAEHHH@Z 1017f9b0 f   nafxcwd:afxinl3.obj
 0002:000f8a00       ?GetText@CListBox@@QBEHHPAD@Z 1017fa00 f   nafxcwd:afxinl3.obj
 0002:000f8a50       ?GetTextLen@CListBox@@QBEHH@Z 1017fa50 f   nafxcwd:afxinl3.obj
 0002:000f8aa0       ?SetColumnWidth@CListBox@@QAEXH@Z 1017faa0 f   nafxcwd:afxinl3.obj
 0002:000f8af0       ?SetTabStops@CListBox@@QAEHHPAH@Z 1017faf0 f   nafxcwd:afxinl3.obj
 0002:000f8b40       ?SetTabStops@CListBox@@QAEXXZ 1017fb40 f   nafxcwd:afxinl3.obj
 0002:000f8ba0       ?SetTabStops@CListBox@@QAEHABH@Z 1017fba0 f   nafxcwd:afxinl3.obj
 0002:000f8bf0       ?SetItemHeight@CListBox@@QAEHHI@Z 1017fbf0 f   nafxcwd:afxinl3.obj
 0002:000f8c50       ?GetItemHeight@CListBox@@QBEHH@Z 1017fc50 f   nafxcwd:afxinl3.obj
 0002:000f8ca0       ?FindStringExact@CListBox@@QBEHHPBD@Z 1017fca0 f   nafxcwd:afxinl3.obj
 0002:000f8cf0       ?GetCaretIndex@CListBox@@QBEHXZ 1017fcf0 f   nafxcwd:afxinl3.obj
 0002:000f8d40       ?SetCaretIndex@CListBox@@QAEHHH@Z 1017fd40 f   nafxcwd:afxinl3.obj
 0002:000f8da0       ?AddString@CListBox@@QAEHPBD@Z 1017fda0 f   nafxcwd:afxinl3.obj
 0002:000f8df0       ?DeleteString@CListBox@@QAEHI@Z 1017fdf0 f   nafxcwd:afxinl3.obj
 0002:000f8e40       ?InsertString@CListBox@@QAEHHPBD@Z 1017fe40 f   nafxcwd:afxinl3.obj
 0002:000f8e90       ?ResetContent@CListBox@@QAEXXZ 1017fe90 f   nafxcwd:afxinl3.obj
 0002:000f8ee0       ?Dir@CListBox@@QAEHIPBD@Z  1017fee0 f   nafxcwd:afxinl3.obj
 0002:000f8f30       ?FindString@CListBox@@QBEHHPBD@Z 1017ff30 f   nafxcwd:afxinl3.obj
 0002:000f8f80       ?SelectString@CListBox@@QAEHHPBD@Z 1017ff80 f   nafxcwd:afxinl3.obj
 0002:000f8fd0       ?SelItemRange@CListBox@@QAEHHHH@Z 1017ffd0 f   nafxcwd:afxinl3.obj
 0002:000f9050       ?SetAnchorIndex@CListBox@@QAEXH@Z 10180050 f   nafxcwd:afxinl3.obj
 0002:000f90a0       ?GetAnchorIndex@CListBox@@QBEHXZ 101800a0 f   nafxcwd:afxinl3.obj
 0002:000f90f0       ?GetLocale@CListBox@@QBEKXZ 101800f0 f   nafxcwd:afxinl3.obj
 0002:000f9140       ?SetLocale@CListBox@@QAEKK@Z 10180140 f   nafxcwd:afxinl3.obj
 0002:000f9190       ?InitStorage@CListBox@@QAEHHI@Z 10180190 f   nafxcwd:afxinl3.obj
 0002:000f91e0       ??0CCheckListBox@@QAE@XZ   101801e0 f   nafxcwd:afxinl3.obj
 0002:000f9250       ?GetCheckStyle@CCheckListBox@@QAEIXZ 10180250 f   nafxcwd:afxinl3.obj
 0002:000f9270       ??0CComboBox@@QAE@XZ       10180270 f   nafxcwd:afxinl3.obj
 0002:000f9290       ?GetCount@CComboBox@@QBEHXZ 10180290 f   nafxcwd:afxinl3.obj
 0002:000f92e0       ?GetCurSel@CComboBox@@QBEHXZ 101802e0 f   nafxcwd:afxinl3.obj
 0002:000f9330       ?SetCurSel@CComboBox@@QAEHH@Z 10180330 f   nafxcwd:afxinl3.obj
 0002:000f9380       ?GetEditSel@CComboBox@@QBEKXZ 10180380 f   nafxcwd:afxinl3.obj
 0002:000f93d0       ?LimitText@CComboBox@@QAEHH@Z 101803d0 f   nafxcwd:afxinl3.obj
 0002:000f9420       ?SetEditSel@CComboBox@@QAEHHH@Z 10180420 f   nafxcwd:afxinl3.obj
 0002:000f9490       ?GetItemData@CComboBox@@QBEKH@Z 10180490 f   nafxcwd:afxinl3.obj
 0002:000f94e0       ?SetItemData@CComboBox@@QAEHHK@Z 101804e0 f   nafxcwd:afxinl3.obj
 0002:000f9530       ?GetItemDataPtr@CComboBox@@QBEPAXH@Z 10180530 f   nafxcwd:afxinl3.obj
 0002:000f9570       ?SetItemDataPtr@CComboBox@@QAEHHPAX@Z 10180570 f   nafxcwd:afxinl3.obj
 0002:000f95c0       ?GetLBText@CComboBox@@QBEHHPAD@Z 101805c0 f   nafxcwd:afxinl3.obj
 0002:000f9610       ?GetLBTextLen@CComboBox@@QBEHH@Z 10180610 f   nafxcwd:afxinl3.obj
 0002:000f9660       ?ShowDropDown@CComboBox@@QAEXH@Z 10180660 f   nafxcwd:afxinl3.obj
 0002:000f96b0       ?AddString@CComboBox@@QAEHPBD@Z 101806b0 f   nafxcwd:afxinl3.obj
 0002:000f9700       ?DeleteString@CComboBox@@QAEHI@Z 10180700 f   nafxcwd:afxinl3.obj
 0002:000f9750       ?InsertString@CComboBox@@QAEHHPBD@Z 10180750 f   nafxcwd:afxinl3.obj
 0002:000f97a0       ?ResetContent@CComboBox@@QAEXXZ 101807a0 f   nafxcwd:afxinl3.obj
 0002:000f97f0       ?Dir@CComboBox@@QAEHIPBD@Z 101807f0 f   nafxcwd:afxinl3.obj
 0002:000f9840       ?FindString@CComboBox@@QBEHHPBD@Z 10180840 f   nafxcwd:afxinl3.obj
 0002:000f9890       ?SelectString@CComboBox@@QAEHHPBD@Z 10180890 f   nafxcwd:afxinl3.obj
 0002:000f98e0       ?Clear@CComboBox@@QAEXXZ   101808e0 f   nafxcwd:afxinl3.obj
 0002:000f9930       ?Copy@CComboBox@@QAEXXZ    10180930 f   nafxcwd:afxinl3.obj
 0002:000f9980       ?Cut@CComboBox@@QAEXXZ     10180980 f   nafxcwd:afxinl3.obj
 0002:000f99d0       ?Paste@CComboBox@@QAEXXZ   101809d0 f   nafxcwd:afxinl3.obj
 0002:000f9a20       ?SetItemHeight@CComboBox@@QAEHHI@Z 10180a20 f   nafxcwd:afxinl3.obj
 0002:000f9a80       ?GetItemHeight@CComboBox@@QBEHH@Z 10180a80 f   nafxcwd:afxinl3.obj
 0002:000f9ad0       ?FindStringExact@CComboBox@@QBEHHPBD@Z 10180ad0 f   nafxcwd:afxinl3.obj
 0002:000f9b20       ?SetExtendedUI@CComboBox@@QAEHH@Z 10180b20 f   nafxcwd:afxinl3.obj
 0002:000f9b70       ?GetExtendedUI@CComboBox@@QBEHXZ 10180b70 f   nafxcwd:afxinl3.obj
 0002:000f9bc0       ?GetDroppedControlRect@CComboBox@@QBEXPAUtagRECT@@@Z 10180bc0 f   nafxcwd:afxinl3.obj
 0002:000f9c10       ?GetDroppedState@CComboBox@@QBEHXZ 10180c10 f   nafxcwd:afxinl3.obj
 0002:000f9c60       ?GetLocale@CComboBox@@QBEKXZ 10180c60 f   nafxcwd:afxinl3.obj
 0002:000f9cb0       ?SetLocale@CComboBox@@QAEKK@Z 10180cb0 f   nafxcwd:afxinl3.obj
 0002:000f9d00       ?GetTopIndex@CComboBox@@QBEHXZ 10180d00 f   nafxcwd:afxinl3.obj
 0002:000f9d50       ?SetTopIndex@CComboBox@@QAEHH@Z 10180d50 f   nafxcwd:afxinl3.obj
 0002:000f9da0       ?InitStorage@CComboBox@@QAEHHI@Z 10180da0 f   nafxcwd:afxinl3.obj
 0002:000f9df0       ?SetHorizontalExtent@CComboBox@@QAEXI@Z 10180df0 f   nafxcwd:afxinl3.obj
 0002:000f9e40       ?GetHorizontalExtent@CComboBox@@QBEIXZ 10180e40 f   nafxcwd:afxinl3.obj
 0002:000f9e90       ?SetDroppedWidth@CComboBox@@QAEHI@Z 10180e90 f   nafxcwd:afxinl3.obj
 0002:000f9ee0       ?GetDroppedWidth@CComboBox@@QBEHXZ 10180ee0 f   nafxcwd:afxinl3.obj
 0002:000f9f30       ??0CEdit@@QAE@XZ           10180f30 f   nafxcwd:afxinl3.obj
 0002:000f9f50       ?CanUndo@CEdit@@QBEHXZ     10180f50 f   nafxcwd:afxinl3.obj
 0002:000f9fa0       ?GetLineCount@CEdit@@QBEHXZ 10180fa0 f   nafxcwd:afxinl3.obj
 0002:000f9ff0       ?GetModify@CEdit@@QBEHXZ   10180ff0 f   nafxcwd:afxinl3.obj
 0002:000fa040       ?SetModify@CEdit@@QAEXH@Z  10181040 f   nafxcwd:afxinl3.obj
 0002:000fa090       ?GetRect@CEdit@@QBEXPAUtagRECT@@@Z 10181090 f   nafxcwd:afxinl3.obj
 0002:000fa0e0       ?GetSel@CEdit@@QBEXAAH0@Z  101810e0 f   nafxcwd:afxinl3.obj
 0002:000fa130       ?GetSel@CEdit@@QBEKXZ      10181130 f   nafxcwd:afxinl3.obj
 0002:000fa180       ?GetHandle@CEdit@@QBEPAXXZ 10181180 f   nafxcwd:afxinl3.obj
 0002:000fa1d0       ?SetHandle@CEdit@@QAEXPAX@Z 101811d0 f   nafxcwd:afxinl3.obj
 0002:000fa220       ?GetLine@CEdit@@QBEHHPAD@Z 10181220 f   nafxcwd:afxinl3.obj
 0002:000fa270       ?GetLine@CEdit@@QBEHHPADH@Z 10181270 f   nafxcwd:afxinl3.obj
 0002:000fa2d0       ?EmptyUndoBuffer@CEdit@@QAEXXZ 101812d0 f   nafxcwd:afxinl3.obj
 0002:000fa320       ?FmtLines@CEdit@@QAEHH@Z   10181320 f   nafxcwd:afxinl3.obj
 0002:000fa370       ?LimitText@CEdit@@QAEXH@Z  10181370 f   nafxcwd:afxinl3.obj
 0002:000fa3c0       ?LineFromChar@CEdit@@QBEHH@Z 101813c0 f   nafxcwd:afxinl3.obj
 0002:000fa410       ?LineIndex@CEdit@@QBEHH@Z  10181410 f   nafxcwd:afxinl3.obj
 0002:000fa460       ?LineLength@CEdit@@QBEHH@Z 10181460 f   nafxcwd:afxinl3.obj
 0002:000fa4b0       ?LineScroll@CEdit@@QAEXHH@Z 101814b0 f   nafxcwd:afxinl3.obj
 0002:000fa500       ?ReplaceSel@CEdit@@QAEXPBDH@Z 10181500 f   nafxcwd:afxinl3.obj
 0002:000fa550       ?SetPasswordChar@CEdit@@QAEXD@Z 10181550 f   nafxcwd:afxinl3.obj
 0002:000fa5a0       ?SetRect@CEdit@@QAEXPBUtagRECT@@@Z 101815a0 f   nafxcwd:afxinl3.obj
 0002:000fa5f0       ?SetRectNP@CEdit@@QAEXPBUtagRECT@@@Z 101815f0 f   nafxcwd:afxinl3.obj
 0002:000fa640       ?SetSel@CEdit@@QAEXKH@Z    10181640 f   nafxcwd:afxinl3.obj
 0002:000fa6c0       ?SetSel@CEdit@@QAEXHHH@Z   101816c0 f   nafxcwd:afxinl3.obj
 0002:000fa730       ?SetTabStops@CEdit@@QAEHHPAH@Z 10181730 f   nafxcwd:afxinl3.obj
 0002:000fa780       ?SetTabStops@CEdit@@QAEXXZ 10181780 f   nafxcwd:afxinl3.obj
 0002:000fa7e0       ?SetTabStops@CEdit@@QAEHABH@Z 101817e0 f   nafxcwd:afxinl3.obj
 0002:000fa830       ?Undo@CEdit@@QAEHXZ        10181830 f   nafxcwd:afxinl3.obj
 0002:000fa880       ?Clear@CEdit@@QAEXXZ       10181880 f   nafxcwd:afxinl3.obj
 0002:000fa8d0       ?Copy@CEdit@@QAEXXZ        101818d0 f   nafxcwd:afxinl3.obj
 0002:000fa920       ?Cut@CEdit@@QAEXXZ         10181920 f   nafxcwd:afxinl3.obj
 0002:000fa970       ?Paste@CEdit@@QAEXXZ       10181970 f   nafxcwd:afxinl3.obj
 0002:000fa9c0       ?SetReadOnly@CEdit@@QAEHH@Z 101819c0 f   nafxcwd:afxinl3.obj
 0002:000faa10       ?GetFirstVisibleLine@CEdit@@QBEHXZ 10181a10 f   nafxcwd:afxinl3.obj
 0002:000faa60       ?GetPasswordChar@CEdit@@QBEDXZ 10181a60 f   nafxcwd:afxinl3.obj
 0002:000faab0       ?SetMargins@CEdit@@QAEXII@Z 10181ab0 f   nafxcwd:afxinl3.obj
 0002:000fab20       ?GetMargins@CEdit@@QBEKXZ  10181b20 f   nafxcwd:afxinl3.obj
 0002:000fab70       ?SetLimitText@CEdit@@QAEXI@Z 10181b70 f   nafxcwd:afxinl3.obj
 0002:000fabc0       ?GetLimitText@CEdit@@QBEIXZ 10181bc0 f   nafxcwd:afxinl3.obj
 0002:000fac10       ?PosFromChar@CEdit@@QBE?AVCPoint@@I@Z 10181c10 f   nafxcwd:afxinl3.obj
 0002:000fac70       ?CharFromPos@CEdit@@QBEHVCPoint@@@Z 10181c70 f   nafxcwd:afxinl3.obj
 0002:000face0       ??0CScrollBar@@QAE@XZ      10181ce0 f   nafxcwd:afxinl3.obj
 0002:000fad00       ?GetScrollPos@CScrollBar@@QBEHXZ 10181d00 f   nafxcwd:afxinl3.obj
 0002:000fad40       ?SetScrollPos@CScrollBar@@QAEHHH@Z 10181d40 f   nafxcwd:afxinl3.obj
 0002:000fad90       ?GetScrollRange@CScrollBar@@QBEXPAH0@Z 10181d90 f   nafxcwd:afxinl3.obj
 0002:000fade0       ?SetScrollRange@CScrollBar@@QAEXHHH@Z 10181de0 f   nafxcwd:afxinl3.obj
 0002:000fae30       ?ShowScrollBar@CScrollBar@@QAEXH@Z 10181e30 f   nafxcwd:afxinl3.obj
 0002:000fae80       ?EnableScrollBar@CScrollBar@@QAEHI@Z 10181e80 f   nafxcwd:afxinl3.obj
 0002:000faed0       ?SetScrollInfo@CScrollBar@@QAEHPAUtagSCROLLINFO@@H@Z 10181ed0 f   nafxcwd:afxinl3.obj
 0002:000faef0       ?GetScrollInfo@CScrollBar@@QAEHPAUtagSCROLLINFO@@I@Z 10181ef0 f   nafxcwd:afxinl3.obj
 0002:000faf10       ?GetScrollLimit@CScrollBar@@QAEHXZ 10181f10 f   nafxcwd:afxinl3.obj
 0002:000faf30       ?MDIActivate@CMDIFrameWnd@@QAEXPAVCWnd@@@Z 10181f30 f   nafxcwd:afxinl3.obj
 0002:000faf80       ?MDIIconArrange@CMDIFrameWnd@@QAEXXZ 10181f80 f   nafxcwd:afxinl3.obj
 0002:000fafd0       ?MDIMaximize@CMDIFrameWnd@@QAEXPAVCWnd@@@Z 10181fd0 f   nafxcwd:afxinl3.obj
 0002:000fb020       ?MDIPrev@CMDIFrameWnd@@QAEXXZ 10182020 f   nafxcwd:afxinl3.obj
 0002:000fb070       ?MDINext@CMDIFrameWnd@@QAEXXZ 10182070 f   nafxcwd:afxinl3.obj
 0002:000fb0c0       ?MDIRestore@CMDIFrameWnd@@QAEXPAVCWnd@@@Z 101820c0 f   nafxcwd:afxinl3.obj
 0002:000fb110       ?MDISetMenu@CMDIFrameWnd@@QAEPAVCMenu@@PAV2@0@Z 10182110 f   nafxcwd:afxinl3.obj
 0002:000fb170       ?MDITile@CMDIFrameWnd@@QAEXXZ 10182170 f   nafxcwd:afxinl3.obj
 0002:000fb1c0       ?MDICascade@CMDIFrameWnd@@QAEXXZ 101821c0 f   nafxcwd:afxinl3.obj
 0002:000fb210       ?MDICascade@CMDIFrameWnd@@QAEXH@Z 10182210 f   nafxcwd:afxinl3.obj
 0002:000fb260       ?MDITile@CMDIFrameWnd@@QAEXH@Z 10182260 f   nafxcwd:afxinl3.obj
 0002:000fb2b0       ?MDIDestroy@CMDIChildWnd@@QAEXXZ 101822b0 f   nafxcwd:afxinl3.obj
 0002:000fb300       ?MDIActivate@CMDIChildWnd@@QAEXXZ 10182300 f   nafxcwd:afxinl3.obj
 0002:000fb350       ?MDIMaximize@CMDIChildWnd@@QAEXXZ 10182350 f   nafxcwd:afxinl3.obj
 0002:000fb3a0       ?MDIRestore@CMDIChildWnd@@QAEXXZ 101823a0 f   nafxcwd:afxinl3.obj
 0002:000fb3f0       ?GetDocument@CView@@QBEPAVCDocument@@XZ 101823f0 f   nafxcwd:afxinl3.obj
 0002:000fb420       ?GetTotalSize@CScrollView@@QBE?AVCSize@@XZ 10182420 f   nafxcwd:afxinl3.obj
 0002:000fb460       ?GetTitle@CDocument@@QBEABV?$CStringT@DV?$StrTraitMFC@DV?$ChTraitsCRT@D@ATL@@@@@ATL@@XZ 10182460 f   nafxcwd:afxinl3.obj
 0002:000fb490       ?GetPathName@CDocument@@QBEABV?$CStringT@DV?$StrTraitMFC@DV?$ChTraitsCRT@D@ATL@@@@@ATL@@XZ 10182490 f   nafxcwd:afxinl3.obj
 0002:000fb4c0       ?GetDocTemplate@CDocument@@QBEPAVCDocTemplate@@XZ 101824c0 f   nafxcwd:afxinl3.obj
 0002:000fb4f0       ?IsModified@CDocument@@UAEHXZ 101824f0 f   nafxcwd:afxinl3.obj
 0002:000fb520       ?SetModifiedFlag@CDocument@@UAEXH@Z 10182520 f   nafxcwd:afxinl3.obj
 0002:000fb550       ??BCWinThread@@QBEPAXXZ    10182550 f   nafxcwd:afxinl3.obj
 0002:000fb580       ?SetThreadPriority@CWinThread@@QAEHH@Z 10182580 f   nafxcwd:afxinl3.obj
 0002:000fb5c0       ?GetThreadPriority@CWinThread@@QAEHXZ 101825c0 f   nafxcwd:afxinl3.obj
 0002:000fb600       ?ResumeThread@CWinThread@@QAEKXZ 10182600 f   nafxcwd:afxinl3.obj
 0002:000fb640       ?SuspendThread@CWinThread@@QAEKXZ 10182640 f   nafxcwd:afxinl3.obj
 0002:000fb680       ?PostThreadMessageA@CWinThread@@QAEHIIJ@Z 10182680 f   nafxcwd:afxinl3.obj
 0002:000fb6d0       ?LoadCursorA@CWinApp@@QBEPAUHICON__@@PBD@Z 101826d0 f   nafxcwd:afxinl3.obj
 0002:000fb6f0       ?LoadCursorA@CWinApp@@QBEPAUHICON__@@I@Z 101826f0 f   nafxcwd:afxinl3.obj
 0002:000fb710       ?LoadStandardCursor@CWinApp@@QBEPAUHICON__@@PBD@Z 10182710 f   nafxcwd:afxinl3.obj
 0002:000fb730       ?LoadOEMCursor@CWinApp@@QBEPAUHICON__@@I@Z 10182730 f   nafxcwd:afxinl3.obj
 0002:000fb750       ?LoadIconA@CWinApp@@QBEPAUHICON__@@PBD@Z 10182750 f   nafxcwd:afxinl3.obj
 0002:000fb770       ?LoadIconA@CWinApp@@QBEPAUHICON__@@I@Z 10182770 f   nafxcwd:afxinl3.obj
 0002:000fb790       ?LoadStandardIcon@CWinApp@@QBEPAUHICON__@@PBD@Z 10182790 f   nafxcwd:afxinl3.obj
 0002:000fb7b0       ?LoadOEMIcon@CWinApp@@QBEPAUHICON__@@I@Z 101827b0 f   nafxcwd:afxinl3.obj
 0002:000fb7d0       ?EnableHtmlHelp@CWinApp@@QAEXXZ 101827d0 f   nafxcwd:afxinl3.obj
 0002:000fb7f0       ?GetHelpMode@CWinApp@@QAE?AW4AFX_HELP_TYPE@@XZ 101827f0 f   nafxcwd:afxinl3.obj
 0002:000fb810       ?SetHelpMode@CWinApp@@QAEXW4AFX_HELP_TYPE@@@Z 10182810 f   nafxcwd:afxinl3.obj
 0002:000fb850       ?Enable3dControls@CWinApp@@IAEHXZ 10182850 f   nafxcwd:afxinl3.obj
 0002:000fb860       ?Enable3dControlsStatic@CWinApp@@IAEHXZ 10182860 f   nafxcwd:afxinl3.obj
 0002:000fb870       ?SetDialogBkColor@CWinApp@@IAEXKK@Z 10182870 f   nafxcwd:afxinl3.obj
 0002:000fb880       ??0CWaitCursor@@QAE@XZ     10182880 f   nafxcwd:afxinl3.obj
 0002:000fb8a0       ??1CWaitCursor@@QAE@XZ     101828a0 f   nafxcwd:afxinl3.obj
 0002:000fb8c0       ?Restore@CWaitCursor@@QAEXXZ 101828c0 f   nafxcwd:afxinl3.obj
 0002:000fb8e0       ?CloseWindow@CWnd@@QAEXXZ  101828e0 f   nafxcwd:afxinl3.obj
 0002:000fb920       ?OpenIcon@CWnd@@QAEHXZ     10182920 f   nafxcwd:afxinl3.obj
 0002:000fd350       ??_GCCheckListBox@@UAEPAXI@Z 10184350 f i nafxcwd:afxinl3.obj
 0002:000fd350       ??_ECCheckListBox@@UAEPAXI@Z 10184350 f i nafxcwd:afxinl3.obj
 0002:000fd390       ??1CCheckListBox@@UAE@XZ   10184390 f i nafxcwd:afxinl3.obj
 0002:000fd3b0       ?AfxGetApp@@YGPAVCWinApp@@XZ 101843b0 f   nafxcwd:afxinl2.obj
 0002:000fd3c0       ?AfxGetInstanceHandle@@YGPAUHINSTANCE__@@XZ 101843c0 f   nafxcwd:afxinl2.obj
 0002:000fd3f0       ?AfxGetResourceHandle@@YGPAUHINSTANCE__@@XZ 101843f0 f   nafxcwd:afxinl2.obj
 0002:000fd420       ?AfxSetResourceHandle@@YGXPAUHINSTANCE__@@@Z 10184420 f   nafxcwd:afxinl2.obj
 0002:000fd450       ?AfxGetAppName@@YGPBDXZ    10184450 f   nafxcwd:afxinl2.obj
 0002:000fd480       ?AfxOleGetMessageFilter@@YGPAVCOleMessageFilter@@XZ 10184480 f   nafxcwd:afxinl2.obj
 0002:000fd4a0       ?AfxGetMainWnd@@YGPAVCWnd@@XZ 101844a0 f   nafxcwd:afxinl2.obj
 0002:000fd4e0       ??6@YGAAVCArchive@@AAV0@UtagSIZE@@@Z 101844e0 f   nafxcwd:afxinl2.obj
 0002:000fd500       ??6@YGAAVCArchive@@AAV0@UtagPOINT@@@Z 10184500 f   nafxcwd:afxinl2.obj
 0002:000fd520       ??6@YGAAVCArchive@@AAV0@ABUtagRECT@@@Z 10184520 f   nafxcwd:afxinl2.obj
 0002:000fd540       ??5@YGAAVCArchive@@AAV0@AAUtagSIZE@@@Z 10184540 f   nafxcwd:afxinl2.obj
 0002:000fd560       ??5@YGAAVCArchive@@AAV0@AAUtagPOINT@@@Z 10184560 f   nafxcwd:afxinl2.obj
 0002:000fd580       ??5@YGAAVCArchive@@AAV0@AAUtagRECT@@@Z 10184580 f   nafxcwd:afxinl2.obj
 0002:000fd5a0       ??0CResourceException@@QAE@XZ 101845a0 f   nafxcwd:afxinl2.obj
 0002:000fd5c0       ??0CResourceException@@QAE@HI@Z 101845c0 f   nafxcwd:afxinl2.obj
 0002:000fd600       ??1CResourceException@@UAE@XZ 10184600 f   nafxcwd:afxinl2.obj
 0002:000fd620       ??0CUserException@@QAE@XZ  10184620 f   nafxcwd:afxinl2.obj
 0002:000fd640       ??0CUserException@@QAE@HI@Z 10184640 f   nafxcwd:afxinl2.obj
 0002:000fd680       ??1CUserException@@UAE@XZ  10184680 f   nafxcwd:afxinl2.obj
 0002:000fd6a0       ??BCGdiObject@@QBEPAXXZ    101846a0 f   nafxcwd:afxinl2.obj
 0002:000fd6d0       ?GetSafeHandle@CGdiObject@@QBEPAXXZ 101846d0 f   nafxcwd:afxinl2.obj
 0002:000fd700       ??0CGdiObject@@QAE@XZ      10184700 f   nafxcwd:afxinl2.obj
 0002:000fd730       ??1CGdiObject@@UAE@XZ      10184730 f   nafxcwd:afxinl2.obj
 0002:000fd790       ?GetObjectA@CGdiObject@@QBEHHPAX@Z 10184790 f   nafxcwd:afxinl2.obj
 0002:000fd7d0       ?CreateStockObject@CGdiObject@@QAEHH@Z 101847d0 f   nafxcwd:afxinl2.obj
 0002:000fd800       ?UnrealizeObject@CGdiObject@@QAEHXZ 10184800 f   nafxcwd:afxinl2.obj
 0002:000fd840       ?GetObjectType@CGdiObject@@QBEIXZ 10184840 f   nafxcwd:afxinl2.obj
 0002:000fd860       ??8CGdiObject@@QBEHABV0@@Z 10184860 f   nafxcwd:afxinl2.obj
 0002:000fd880       ??9CGdiObject@@QBEHABV0@@Z 10184880 f   nafxcwd:afxinl2.obj
 0002:000fd8b0       ??BCPen@@QBEPAUHPEN__@@XZ  101848b0 f   nafxcwd:afxinl2.obj
 0002:000fd8e0       ?FromHandle@CPen@@SGPAV1@PAUHPEN__@@@Z 101848e0 f   nafxcwd:afxinl2.obj
 0002:000fd8f0       ??0CPen@@QAE@XZ            101848f0 f   nafxcwd:afxinl2.obj
 0002:000fd910       ??1CPen@@UAE@XZ            10184910 f   nafxcwd:afxinl2.obj
 0002:000fd930       ?CreatePen@CPen@@QAEHHHK@Z 10184930 f   nafxcwd:afxinl2.obj
 0002:000fd960       ?CreatePenIndirect@CPen@@QAEHPAUtagLOGPEN@@@Z 10184960 f   nafxcwd:afxinl2.obj
 0002:000fd980       ?CreatePen@CPen@@QAEHHHPBUtagLOGBRUSH@@HPBK@Z 10184980 f   nafxcwd:afxinl2.obj
 0002:000fd9b0       ?GetExtLogPen@CPen@@QAEHPAUtagEXTLOGPEN@@@Z 101849b0 f   nafxcwd:afxinl2.obj
 0002:000fd9f0       ?GetLogPen@CPen@@QAEHPAUtagLOGPEN@@@Z 101849f0 f   nafxcwd:afxinl2.obj
 0002:000fda30       ??BCBrush@@QBEPAUHBRUSH__@@XZ 10184a30 f   nafxcwd:afxinl2.obj
 0002:000fda60       ?FromHandle@CBrush@@SGPAV1@PAUHBRUSH__@@@Z 10184a60 f   nafxcwd:afxinl2.obj
 0002:000fda70       ??0CBrush@@QAE@XZ          10184a70 f   nafxcwd:afxinl2.obj
 0002:000fda90       ??1CBrush@@UAE@XZ          10184a90 f   nafxcwd:afxinl2.obj
 0002:000fdab0       ?CreateSolidBrush@CBrush@@QAEHK@Z 10184ab0 f   nafxcwd:afxinl2.obj
 0002:000fdad0       ?CreateHatchBrush@CBrush@@QAEHHK@Z 10184ad0 f   nafxcwd:afxinl2.obj
 0002:000fdb00       ?CreateBrushIndirect@CBrush@@QAEHPBUtagLOGBRUSH@@@Z 10184b00 f   nafxcwd:afxinl2.obj
 0002:000fdb20       ?CreatePatternBrush@CBrush@@QAEHPAVCBitmap@@@Z 10184b20 f   nafxcwd:afxinl2.obj
 0002:000fdb50       ?CreateDIBPatternBrush@CBrush@@QAEHPBXI@Z 10184b50 f   nafxcwd:afxinl2.obj
 0002:000fdb80       ?CreateSysColorBrush@CBrush@@QAEHH@Z 10184b80 f   nafxcwd:afxinl2.obj
 0002:000fdba0       ?GetLogBrush@CBrush@@QAEHPAUtagLOGBRUSH@@@Z 10184ba0 f   nafxcwd:afxinl2.obj
 0002:000fdbe0       ??BCFont@@QBEPAUHFONT__@@XZ 10184be0 f   nafxcwd:afxinl2.obj
 0002:000fdc10       ?FromHandle@CFont@@SGPAV1@PAUHFONT__@@@Z 10184c10 f   nafxcwd:afxinl2.obj
 0002:000fdc20       ??0CFont@@QAE@XZ           10184c20 f   nafxcwd:afxinl2.obj
 0002:000fdc40       ??1CFont@@UAE@XZ           10184c40 f   nafxcwd:afxinl2.obj
 0002:000fdc60       ?CreateFontIndirectA@CFont@@QAEHPBUtagLOGFONTA@@@Z 10184c60 f   nafxcwd:afxinl2.obj
 0002:000fdc80       ?CreateFontA@CFont@@QAEHHHHHHEEEEEEEEPBD@Z 10184c80 f   nafxcwd:afxinl2.obj
 0002:000fdce0       ?GetLogFont@CFont@@QAEHPAUtagLOGFONTA@@@Z 10184ce0 f   nafxcwd:afxinl2.obj
 0002:000fdd20       ??BCBitmap@@QBEPAUHBITMAP__@@XZ 10184d20 f   nafxcwd:afxinl2.obj
 0002:000fdd50       ?FromHandle@CBitmap@@SGPAV1@PAUHBITMAP__@@@Z 10184d50 f   nafxcwd:afxinl2.obj
 0002:000fdd60       ??0CBitmap@@QAE@XZ         10184d60 f   nafxcwd:afxinl2.obj
 0002:000fdd80       ??1CBitmap@@UAE@XZ         10184d80 f   nafxcwd:afxinl2.obj
 0002:000fdda0       ?CreateBitmap@CBitmap@@QAEHHHIIPBX@Z 10184da0 f   nafxcwd:afxinl2.obj
 0002:000fddd0       ?CreateBitmapIndirect@CBitmap@@QAEHPAUtagBITMAP@@@Z 10184dd0 f   nafxcwd:afxinl2.obj
 0002:000fddf0       ?SetBitmapBits@CBitmap@@QAEKKPBX@Z 10184df0 f   nafxcwd:afxinl2.obj
 0002:000fde20       ?GetBitmapBits@CBitmap@@QBEKKPAX@Z 10184e20 f   nafxcwd:afxinl2.obj
 0002:000fde50       ?LoadBitmapA@CBitmap@@QAEHPBD@Z 10184e50 f   nafxcwd:afxinl2.obj
 0002:000fde80       ?LoadMappedBitmap@CBitmap@@QAEHIIPAU_COLORMAP@@H@Z 10184e80 f   nafxcwd:afxinl2.obj
 0002:000fdec0       ?SetBitmapDimension@CBitmap@@QAE?AVCSize@@HH@Z 10184ec0 f   nafxcwd:afxinl2.obj
 0002:000fdf20       ?GetBitmapDimension@CBitmap@@QBE?AVCSize@@XZ 10184f20 f   nafxcwd:afxinl2.obj
 0002:000fdf70       ?LoadBitmapA@CBitmap@@QAEHI@Z 10184f70 f   nafxcwd:afxinl2.obj
 0002:000fdfa0       ?LoadOEMBitmap@CBitmap@@QAEHI@Z 10184fa0 f   nafxcwd:afxinl2.obj
 0002:000fdfd0       ?CreateCompatibleBitmap@CBitmap@@QAEHPAVCDC@@HH@Z 10184fd0 f   nafxcwd:afxinl2.obj
 0002:000fe000       ?CreateDiscardableBitmap@CBitmap@@QAEHPAVCDC@@HH@Z 10185000 f   nafxcwd:afxinl2.obj
 0002:000fe030       ?GetBitmap@CBitmap@@QAEHPAUtagBITMAP@@@Z 10185030 f   nafxcwd:afxinl2.obj
 0002:000fe070       ??BCPalette@@QBEPAUHPALETTE__@@XZ 10185070 f   nafxcwd:afxinl2.obj
 0002:000fe0a0       ?FromHandle@CPalette@@SGPAV1@PAUHPALETTE__@@@Z 101850a0 f   nafxcwd:afxinl2.obj
 0002:000fe0b0       ??0CPalette@@QAE@XZ        101850b0 f   nafxcwd:afxinl2.obj
 0002:000fe0d0       ??1CPalette@@UAE@XZ        101850d0 f   nafxcwd:afxinl2.obj
 0002:000fe0f0       ?CreatePalette@CPalette@@QAEHPAUtagLOGPALETTE@@@Z 101850f0 f   nafxcwd:afxinl2.obj
 0002:000fe110       ?CreateHalftonePalette@CPalette@@QAEHPAVCDC@@@Z 10185110 f   nafxcwd:afxinl2.obj
 0002:000fe160       ?GetPaletteEntries@CPalette@@QBEIIIPAUtagPALETTEENTRY@@@Z 10185160 f   nafxcwd:afxinl2.obj
 0002:000fe1b0       ?SetPaletteEntries@CPalette@@QAEIIIPAUtagPALETTEENTRY@@@Z 101851b0 f   nafxcwd:afxinl2.obj
 0002:000fe200       ?AnimatePalette@CPalette@@QAEXIIPAUtagPALETTEENTRY@@@Z 10185200 f   nafxcwd:afxinl2.obj
 0002:000fe250       ?GetNearestPaletteIndex@CPalette@@QBEIK@Z 10185250 f   nafxcwd:afxinl2.obj
 0002:000fe290       ?ResizePalette@CPalette@@QAEHI@Z 10185290 f   nafxcwd:afxinl2.obj
 0002:000fe2d0       ?GetEntryCount@CPalette@@QAEHXZ 101852d0 f   nafxcwd:afxinl2.obj
 0002:000fe320       ??BCRgn@@QBEPAUHRGN__@@XZ  10185320 f   nafxcwd:afxinl2.obj
 0002:000fe350       ?FromHandle@CRgn@@SGPAV1@PAUHRGN__@@@Z 10185350 f   nafxcwd:afxinl2.obj
 0002:000fe360       ??0CRgn@@QAE@XZ            10185360 f   nafxcwd:afxinl2.obj
 0002:000fe380       ??1CRgn@@UAE@XZ            10185380 f   nafxcwd:afxinl2.obj
 0002:000fe3a0       ?CreateRectRgn@CRgn@@QAEHHHHH@Z 101853a0 f   nafxcwd:afxinl2.obj
 0002:000fe3d0       ?CreateRectRgnIndirect@CRgn@@QAEHPBUtagRECT@@@Z 101853d0 f   nafxcwd:afxinl2.obj
 0002:000fe3f0       ?CreateEllipticRgn@CRgn@@QAEHHHHH@Z 101853f0 f   nafxcwd:afxinl2.obj
 0002:000fe420       ?CreateEllipticRgnIndirect@CRgn@@QAEHPBUtagRECT@@@Z 10185420 f   nafxcwd:afxinl2.obj
 0002:000fe440       ?CreatePolygonRgn@CRgn@@QAEHPAUtagPOINT@@HH@Z 10185440 f   nafxcwd:afxinl2.obj
 0002:000fe470       ?CreatePolyPolygonRgn@CRgn@@QAEHPAUtagPOINT@@PAHHH@Z 10185470 f   nafxcwd:afxinl2.obj
 0002:000fe4a0       ?CreateRoundRectRgn@CRgn@@QAEHHHHHHH@Z 101854a0 f   nafxcwd:afxinl2.obj
 0002:000fe4e0       ?CreateFromPath@CRgn@@QAEHPAVCDC@@@Z 101854e0 f   nafxcwd:afxinl2.obj
 0002:000fe520       ?CreateFromData@CRgn@@QAEHPBUtagXFORM@@HPBU_RGNDATA@@@Z 10185520 f   nafxcwd:afxinl2.obj
 0002:000fe550       ?GetRegionData@CRgn@@QBEHPAU_RGNDATA@@H@Z 10185550 f   nafxcwd:afxinl2.obj
 0002:000fe590       ?SetRectRgn@CRgn@@QAEXHHHH@Z 10185590 f   nafxcwd:afxinl2.obj
 0002:000fe5e0       ?SetRectRgn@CRgn@@QAEXPBUtagRECT@@@Z 101855e0 f   nafxcwd:afxinl2.obj
 0002:000fe640       ?CombineRgn@CRgn@@QAEHPAV1@0H@Z 10185640 f   nafxcwd:afxinl2.obj
 0002:000fe690       ?CopyRgn@CRgn@@QAEHPAV1@@Z 10185690 f   nafxcwd:afxinl2.obj
 0002:000fe6e0       ?EqualRgn@CRgn@@QBEHPAV1@@Z 101856e0 f   nafxcwd:afxinl2.obj
 0002:000fe720       ?OffsetRgn@CRgn@@QAEHHH@Z  10185720 f   nafxcwd:afxinl2.obj
 0002:000fe760       ?OffsetRgn@CRgn@@QAEHUtagPOINT@@@Z 10185760 f   nafxcwd:afxinl2.obj
 0002:000fe7a0       ?GetRgnBox@CRgn@@QBEHPAUtagRECT@@@Z 101857a0 f   nafxcwd:afxinl2.obj
 0002:000fe7e0       ?PtInRegion@CRgn@@QBEHHH@Z 101857e0 f   nafxcwd:afxinl2.obj
 0002:000fe820       ?PtInRegion@CRgn@@QBEHUtagPOINT@@@Z 10185820 f   nafxcwd:afxinl2.obj
 0002:000fe860       ?RectInRegion@CRgn@@QBEHPBUtagRECT@@@Z 10185860 f   nafxcwd:afxinl2.obj
 0002:000fe8a0       ??BCDC@@QBEPAUHDC__@@XZ    101858a0 f   nafxcwd:afxinl2.obj
 0002:000fe8d0       ?GetSafeHdc@CDC@@QBEPAUHDC__@@XZ 101858d0 f   nafxcwd:afxinl2.obj
 0002:000fe900       ?GetWindow@CDC@@QBEPAVCWnd@@XZ 10185900 f   nafxcwd:afxinl2.obj
 0002:000fe940       ?IsPrinting@CDC@@QBEHXZ    10185940 f   nafxcwd:afxinl2.obj
 0002:000fe960       ?CreateDCA@CDC@@QAEHPBD00PBX@Z 10185960 f   nafxcwd:afxinl2.obj
 0002:000fe990       ?CreateICA@CDC@@QAEHPBD00PBX@Z 10185990 f   nafxcwd:afxinl2.obj
 0002:000fe9c0       ?CreateCompatibleDC@CDC@@QAEHPAV1@@Z 101859c0 f   nafxcwd:afxinl2.obj
 0002:000fe9f0       ?ExcludeUpdateRgn@CDC@@QAEHPAVCWnd@@@Z 101859f0 f   nafxcwd:afxinl2.obj
 0002:000fea30       ?GetDeviceCaps@CDC@@QBEHH@Z 10185a30 f   nafxcwd:afxinl2.obj
 0002:000fea70       ?GetBrushOrg@CDC@@QBE?AVCPoint@@XZ 10185a70 f   nafxcwd:afxinl2.obj
 0002:000feae0       ?SetBrushOrg@CDC@@QAE?AVCPoint@@HH@Z 10185ae0 f   nafxcwd:afxinl2.obj
 0002:000feb50       ?SetBrushOrg@CDC@@QAE?AVCPoint@@UtagPOINT@@@Z 10185b50 f   nafxcwd:afxinl2.obj
 0002:000febc0       ?EnumObjects@CDC@@QAEHHP6GHPAXJ@ZJ@Z 10185bc0 f   nafxcwd:afxinl2.obj
 0002:000fec10       ?SelectObject@CDC@@QAEPAVCBitmap@@PAV2@@Z 10185c10 f   nafxcwd:afxinl2.obj
 0002:000fec50       ?SelectObject@CDC@@QAEPAVCGdiObject@@PAV2@@Z 10185c50 f   nafxcwd:afxinl2.obj
 0002:000fec90       ?SelectObject@CDC@@QAEPAXPAX@Z 10185c90 f   nafxcwd:afxinl2.obj
 0002:000fecf0       ?GetNearestColor@CDC@@QBEKK@Z 10185cf0 f   nafxcwd:afxinl2.obj
 0002:000fed30       ?RealizePalette@CDC@@QAEIXZ 10185d30 f   nafxcwd:afxinl2.obj
 0002:000fed70       ?UpdateColors@CDC@@QAEXXZ  10185d70 f   nafxcwd:afxinl2.obj
 0002:000fedb0       ?GetBkColor@CDC@@QBEKXZ    10185db0 f   nafxcwd:afxinl2.obj
 0002:000fedf0       ?GetBkMode@CDC@@QBEHXZ     10185df0 f   nafxcwd:afxinl2.obj
 0002:000fee30       ?GetPolyFillMode@CDC@@QBEHXZ 10185e30 f   nafxcwd:afxinl2.obj
 0002:000fee70       ?GetROP2@CDC@@QBEHXZ       10185e70 f   nafxcwd:afxinl2.obj
 0002:000feeb0       ?GetStretchBltMode@CDC@@QBEHXZ 10185eb0 f   nafxcwd:afxinl2.obj
 0002:000feef0       ?GetTextColor@CDC@@QBEKXZ  10185ef0 f   nafxcwd:afxinl2.obj
 0002:000fef30       ?GetMapMode@CDC@@QBEHXZ    10185f30 f   nafxcwd:afxinl2.obj
 0002:000fef70       ?GetViewportOrg@CDC@@QBE?AVCPoint@@XZ 10185f70 f   nafxcwd:afxinl2.obj
 0002:000fefe0       ?GetViewportExt@CDC@@QBE?AVCSize@@XZ 10185fe0 f   nafxcwd:afxinl2.obj
 0002:000ff050       ?GetWindowOrg@CDC@@QBE?AVCPoint@@XZ 10186050 f   nafxcwd:afxinl2.obj
 0002:000ff0c0       ?GetWindowExt@CDC@@QBE?AVCSize@@XZ 101860c0 f   nafxcwd:afxinl2.obj
 0002:000ff130       ?SetViewportOrg@CDC@@QAE?AVCPoint@@UtagPOINT@@@Z 10186130 f   nafxcwd:afxinl2.obj
 0002:000ff180       ?SetViewportExt@CDC@@QAE?AVCSize@@UtagSIZE@@@Z 10186180 f   nafxcwd:afxinl2.obj
 0002:000ff1d0       ?SetWindowOrg@CDC@@QAE?AVCPoint@@UtagPOINT@@@Z 101861d0 f   nafxcwd:afxinl2.obj
 0002:000ff220       ?SetWindowExt@CDC@@QAE?AVCSize@@UtagSIZE@@@Z 10186220 f   nafxcwd:afxinl2.obj
 0002:000ff270       ?DPtoLP@CDC@@QBEXPAUtagPOINT@@H@Z 10186270 f   nafxcwd:afxinl2.obj
 0002:000ff2d0       ?DPtoLP@CDC@@QBEXPAUtagRECT@@@Z 101862d0 f   nafxcwd:afxinl2.obj
 0002:000ff330       ?LPtoDP@CDC@@QBEXPAUtagPOINT@@H@Z 10186330 f   nafxcwd:afxinl2.obj
 0002:000ff390       ?LPtoDP@CDC@@QBEXPAUtagRECT@@@Z 10186390 f   nafxcwd:afxinl2.obj
 0002:000ff3f0       ?FillRgn@CDC@@QAEHPAVCRgn@@PAVCBrush@@@Z 101863f0 f   nafxcwd:afxinl2.obj
 0002:000ff440       ?FrameRgn@CDC@@QAEHPAVCRgn@@PAVCBrush@@HH@Z 10186440 f   nafxcwd:afxinl2.obj
 0002:000ff4a0       ?InvertRgn@CDC@@QAEHPAVCRgn@@@Z 101864a0 f   nafxcwd:afxinl2.obj
 0002:000ff4e0       ?PaintRgn@CDC@@QAEHPAVCRgn@@@Z 101864e0 f   nafxcwd:afxinl2.obj
 0002:000ff520       ?PtVisible@CDC@@UBEHHH@Z   10186520 f   nafxcwd:afxinl2.obj
 0002:000ff560       ?PtVisible@CDC@@QBEHUtagPOINT@@@Z 10186560 f   nafxcwd:afxinl2.obj
 0002:000ff5a0       ?RectVisible@CDC@@UBEHPBUtagRECT@@@Z 101865a0 f   nafxcwd:afxinl2.obj
 0002:000ff5e0       ?GetCurrentPosition@CDC@@QBE?AVCPoint@@XZ 101865e0 f   nafxcwd:afxinl2.obj
 0002:000ff650       ?MoveTo@CDC@@QAE?AVCPoint@@UtagPOINT@@@Z 10186650 f   nafxcwd:afxinl2.obj
 0002:000ff6a0       ?LineTo@CDC@@QAEHUtagPOINT@@@Z 101866a0 f   nafxcwd:afxinl2.obj
 0002:000ff6e0       ?Arc@CDC@@QAEHHHHHHHHH@Z   101866e0 f   nafxcwd:afxinl2.obj
 0002:000ff740       ?Arc@CDC@@QAEHPBUtagRECT@@UtagPOINT@@1@Z 10186740 f   nafxcwd:afxinl2.obj
 0002:000ff7b0       ?Polyline@CDC@@QAEHPAUtagPOINT@@H@Z 101867b0 f   nafxcwd:afxinl2.obj
 0002:000ff7f0       ?FillRect@CDC@@QAEXPBUtagRECT@@PAVCBrush@@@Z 101867f0 f   nafxcwd:afxinl2.obj
 0002:000ff840       ?FrameRect@CDC@@QAEXPBUtagRECT@@PAVCBrush@@@Z 10186840 f   nafxcwd:afxinl2.obj
 0002:000ff890       ?InvertRect@CDC@@QAEXPBUtagRECT@@@Z 10186890 f   nafxcwd:afxinl2.obj
 0002:000ff8d0       ?DrawIcon@CDC@@QAEHHHPAUHICON__@@@Z 101868d0 f   nafxcwd:afxinl2.obj
 0002:000ff920       ?DrawIcon@CDC@@QAEHUtagPOINT@@PAUHICON__@@@Z 10186920 f   nafxcwd:afxinl2.obj
 0002:000ff970       ?DrawState@CDC@@QAEHVCPoint@@VCSize@@PAUHBITMAP__@@IPAUHBRUSH__@@@Z 10186970 f   nafxcwd:afxinl2.obj
 0002:000ff9d0       ?DrawState@CDC@@QAEHVCPoint@@VCSize@@PAVCBitmap@@IPAVCBrush@@@Z 101869d0 f   nafxcwd:afxinl2.obj
 0002:000ffa40       ?DrawState@CDC@@QAEHVCPoint@@VCSize@@PAUHICON__@@IPAUHBRUSH__@@@Z 10186a40 f   nafxcwd:afxinl2.obj
 0002:000ffaa0       ?DrawState@CDC@@QAEHVCPoint@@VCSize@@PAUHICON__@@IPAVCBrush@@@Z 10186aa0 f   nafxcwd:afxinl2.obj
 0002:000ffb00       ?DrawState@CDC@@QAEHVCPoint@@VCSize@@PBDIHHPAUHBRUSH__@@@Z 10186b00 f   nafxcwd:afxinl2.obj
 0002:000ffb70       ?DrawState@CDC@@QAEHVCPoint@@VCSize@@PBDIHHPAVCBrush@@@Z 10186b70 f   nafxcwd:afxinl2.obj
 0002:000ffbe0       ?DrawState@CDC@@QAEHVCPoint@@VCSize@@P6GHPAUHDC__@@JIHH@ZJIPAUHBRUSH__@@@Z 10186be0 f   nafxcwd:afxinl2.obj
 0002:000ffc40       ?DrawState@CDC@@QAEHVCPoint@@VCSize@@P6GHPAUHDC__@@JIHH@ZJIPAVCBrush@@@Z 10186c40 f   nafxcwd:afxinl2.obj
 0002:000ffca0       ?DrawEdge@CDC@@QAEHPAUtagRECT@@II@Z 10186ca0 f   nafxcwd:afxinl2.obj
 0002:000ffcf0       ?DrawFrameControl@CDC@@QAEHPAUtagRECT@@II@Z 10186cf0 f   nafxcwd:afxinl2.obj
 0002:000ffd40       ?Chord@CDC@@QAEHHHHHHHHH@Z 10186d40 f   nafxcwd:afxinl2.obj
 0002:000ffda0       ?Chord@CDC@@QAEHPBUtagRECT@@UtagPOINT@@1@Z 10186da0 f   nafxcwd:afxinl2.obj
 0002:000ffe10       ?DrawFocusRect@CDC@@QAEXPBUtagRECT@@@Z 10186e10 f   nafxcwd:afxinl2.obj
 0002:000ffe50       ?Ellipse@CDC@@QAEHHHHH@Z   10186e50 f   nafxcwd:afxinl2.obj
 0002:000ffea0       ?Ellipse@CDC@@QAEHPBUtagRECT@@@Z 10186ea0 f   nafxcwd:afxinl2.obj
 0002:000fff00       ?Pie@CDC@@QAEHHHHHHHHH@Z   10186f00 f   nafxcwd:afxinl2.obj
 0002:000fff60       ?Pie@CDC@@QAEHPBUtagRECT@@UtagPOINT@@1@Z 10186f60 f   nafxcwd:afxinl2.obj
 0002:000fffd0       ?Polygon@CDC@@QAEHPAUtagPOINT@@H@Z 10186fd0 f   nafxcwd:afxinl2.obj
 0002:00100010       ?PolyPolygon@CDC@@QAEHPAUtagPOINT@@PAHH@Z 10187010 f   nafxcwd:afxinl2.obj
 0002:00100060       ?Rectangle@CDC@@QAEHHHHH@Z 10187060 f   nafxcwd:afxinl2.obj
 0002:001000b0       ?Rectangle@CDC@@QAEHPBUtagRECT@@@Z 101870b0 f   nafxcwd:afxinl2.obj
 0002:00100110       ?RoundRect@CDC@@QAEHHHHHHH@Z 10187110 f   nafxcwd:afxinl2.obj
 0002:00100160       ?RoundRect@CDC@@QAEHPBUtagRECT@@UtagPOINT@@@Z 10187160 f   nafxcwd:afxinl2.obj
 0002:001001c0       ?PatBlt@CDC@@QAEHHHHHK@Z   101871c0 f   nafxcwd:afxinl2.obj
 0002:00100210       ?BitBlt@CDC@@QAEHHHHHPAV1@HHK@Z 10187210 f   nafxcwd:afxinl2.obj
 0002:00100270       ?StretchBlt@CDC@@QAEHHHHHPAV1@HHHHK@Z 10187270 f   nafxcwd:afxinl2.obj
 0002:001002e0       ?GetPixel@CDC@@QBEKHH@Z    101872e0 f   nafxcwd:afxinl2.obj
 0002:00100320       ?GetPixel@CDC@@QBEKUtagPOINT@@@Z 10187320 f   nafxcwd:afxinl2.obj
 0002:00100360       ?SetPixel@CDC@@QAEKHHK@Z   10187360 f   nafxcwd:afxinl2.obj
 0002:001003b0       ?SetPixel@CDC@@QAEKUtagPOINT@@K@Z 101873b0 f   nafxcwd:afxinl2.obj
 0002:00100400       ?FloodFill@CDC@@QAEHHHK@Z  10187400 f   nafxcwd:afxinl2.obj
 0002:00100450       ?ExtFloodFill@CDC@@QAEHHHKI@Z 10187450 f   nafxcwd:afxinl2.obj
 0002:001004a0       ?TextOutA@CDC@@UAEHHHPBDH@Z 101874a0 f   nafxcwd:afxinl2.obj
 0002:001004f0       ?TextOutA@CDC@@QAEHHHABV?$CStringT@DV?$StrTraitMFC@DV?$ChTraitsCRT@D@ATL@@@@@ATL@@@Z 101874f0 f   nafxcwd:afxinl2.obj
 0002:00100540       ?ExtTextOutA@CDC@@UAEHHHIPBUtagRECT@@PBDIPAH@Z 10187540 f   nafxcwd:afxinl2.obj
 0002:001005a0       ?ExtTextOutA@CDC@@QAEHHHIPBUtagRECT@@ABV?$CStringT@DV?$StrTraitMFC@DV?$ChTraitsCRT@D@ATL@@@@@ATL@@PAH@Z 101875a0 f   nafxcwd:afxinl2.obj
 0002:00100600       ?TabbedTextOutA@CDC@@UAE?AVCSize@@HHPBDHHPAHH@Z 10187600 f   nafxcwd:afxinl2.obj
 0002:00100660       ?TabbedTextOutA@CDC@@QAE?AVCSize@@HHABV?$CStringT@DV?$StrTraitMFC@DV?$ChTraitsCRT@D@ATL@@@@@ATL@@HPAHH@Z 10187660 f   nafxcwd:afxinl2.obj
 0002:001006d0       ?DrawTextA@CDC@@UAEHPBDHPAUtagRECT@@I@Z 101876d0 f   nafxcwd:afxinl2.obj
 0002:00100720       ?DrawTextA@CDC@@QAEHABV?$CStringT@DV?$StrTraitMFC@DV?$ChTraitsCRT@D@ATL@@@@@ATL@@PAUtagRECT@@I@Z 10187720 f   nafxcwd:afxinl2.obj
 0002:001007c0       ?DrawTextExA@CDC@@UAEHPADHPAUtagRECT@@IPAUtagDRAWTEXTPARAMS@@@Z 101877c0 f   nafxcwd:afxinl2.obj
 0002:00100810       ?DrawTextExA@CDC@@QAEHABV?$CStringT@DV?$StrTraitMFC@DV?$ChTraitsCRT@D@ATL@@@@@ATL@@PAUtagRECT@@IPAUtagDRAWTEXTPARAMS@@@Z 10187810 f   nafxcwd:afxinl2.obj
 0002:001008b0       ?GetTextExtent@CDC@@QBE?AVCSize@@PBDH@Z 101878b0 f   nafxcwd:afxinl2.obj
 0002:00100920       ?GetTextExtent@CDC@@QBE?AVCSize@@ABV?$CStringT@DV?$StrTraitMFC@DV?$ChTraitsCRT@D@ATL@@@@@ATL@@@Z 10187920 f   nafxcwd:afxinl2.obj
 0002:001009a0       ?GetOutputTextExtent@CDC@@QBE?AVCSize@@PBDH@Z 101879a0 f   nafxcwd:afxinl2.obj
 0002:00100a10       ?GetOutputTextExtent@CDC@@QBE?AVCSize@@ABV?$CStringT@DV?$StrTraitMFC@DV?$ChTraitsCRT@D@ATL@@@@@ATL@@@Z 10187a10 f   nafxcwd:afxinl2.obj
 0002:00100a90       ?GetTabbedTextExtentA@CDC@@QBE?AVCSize@@PBDHHPAH@Z 10187a90 f   nafxcwd:afxinl2.obj
 0002:00100af0       ?GetTabbedTextExtentA@CDC@@QBE?AVCSize@@ABV?$CStringT@DV?$StrTraitMFC@DV?$ChTraitsCRT@D@ATL@@@@@ATL@@HPAH@Z 10187af0 f   nafxcwd:afxinl2.obj
 0002:00100b50       ?GetOutputTabbedTextExtent@CDC@@QBE?AVCSize@@PBDHHPAH@Z 10187b50 f   nafxcwd:afxinl2.obj
 0002:00100bb0       ?GetOutputTabbedTextExtent@CDC@@QBE?AVCSize@@ABV?$CStringT@DV?$StrTraitMFC@DV?$ChTraitsCRT@D@ATL@@@@@ATL@@HPAH@Z 10187bb0 f   nafxcwd:afxinl2.obj
 0002:00100c10       ?GrayStringA@CDC@@UAEHPAVCBrush@@P6GHPAUHDC__@@JH@ZJHHHHH@Z 10187c10 f   nafxcwd:afxinl2.obj
 0002:00100c70       ?GetTextAlign@CDC@@QBEIXZ  10187c70 f   nafxcwd:afxinl2.obj
 0002:00100cb0       ?GetTextFaceA@CDC@@QBEHHPAD@Z 10187cb0 f   nafxcwd:afxinl2.obj
 0002:00100cf0       ?GetTextFaceA@CDC@@QBEHAAV?$CStringT@DV?$StrTraitMFC@DV?$ChTraitsCRT@D@ATL@@@@@ATL@@@Z 10187cf0 f   nafxcwd:afxinl2.obj
 0002:00100d50       ?GetTextMetricsA@CDC@@QBEHPAUtagTEXTMETRICA@@@Z 10187d50 f   nafxcwd:afxinl2.obj
 0002:00100d90       ?GetOutputTextMetrics@CDC@@QBEHPAUtagTEXTMETRICA@@@Z 10187d90 f   nafxcwd:afxinl2.obj
 0002:00100dd0       ?GetTextCharacterExtra@CDC@@QBEHXZ 10187dd0 f   nafxcwd:afxinl2.obj
 0002:00100e10       ?GetCharWidthA@CDC@@QBEHIIPAH@Z 10187e10 f   nafxcwd:afxinl2.obj
 0002:00100e60       ?GetOutputCharWidth@CDC@@QBEHIIPAH@Z 10187e60 f   nafxcwd:afxinl2.obj
 0002:00100eb0       ?GetFontLanguageInfo@CDC@@QBEKXZ 10187eb0 f   nafxcwd:afxinl2.obj
 0002:00100ef0       ?GetCharacterPlacementA@CDC@@QBEKPBDHHPAUtagGCP_RESULTSA@@K@Z 10187ef0 f   nafxcwd:afxinl2.obj
 0002:00100f40       ?GetCharacterPlacementA@CDC@@QBEKAAV?$CStringT@DV?$StrTraitMFC@DV?$ChTraitsCRT@D@ATL@@@@@ATL@@HPAUtagGCP_RESULTSA@@K@Z 10187f40 f   nafxcwd:afxinl2.obj
 0002:00100fa0       ?GetAspectRatioFilter@CDC@@QBE?AVCSize@@XZ 10187fa0 f   nafxcwd:afxinl2.obj
 0002:00101010       ?ScrollDC@CDC@@QAEHHHPBUtagRECT@@0PAVCRgn@@PAU2@@Z 10188010 f   nafxcwd:afxinl2.obj
 0002:00101070       ?Escape@CDC@@UAEHHHPBDPAX@Z 10188070 f   nafxcwd:afxinl2.obj
 0002:001010c0       ?SetBoundsRect@CDC@@QAEIPBUtagRECT@@I@Z 101880c0 f   nafxcwd:afxinl2.obj
 0002:00101100       ?GetBoundsRect@CDC@@QAEIPAUtagRECT@@I@Z 10188100 f   nafxcwd:afxinl2.obj
 0002:00101140       ?ResetDCA@CDC@@QAEHPBU_devicemodeA@@@Z 10188140 f   nafxcwd:afxinl2.obj
 0002:00101190       ?GetOutlineTextMetricsA@CDC@@QBEIIPAU_OUTLINETEXTMETRICA@@@Z 10188190 f   nafxcwd:afxinl2.obj
 0002:001011d0       ?GetCharABCWidthsA@CDC@@QBEHIIPAU_ABC@@@Z 101881d0 f   nafxcwd:afxinl2.obj
 0002:00101220       ?GetFontData@CDC@@QBEKKKPAXK@Z 10188220 f   nafxcwd:afxinl2.obj
 0002:00101270       ?GetKerningPairsA@CDC@@QBEHHPAUtagKERNINGPAIR@@@Z 10188270 f   nafxcwd:afxinl2.obj
 0002:001012b0       ?GetGlyphOutlineA@CDC@@QBEKIIPAU_GLYPHMETRICS@@KPAXPBU_MAT2@@@Z 101882b0 f   nafxcwd:afxinl2.obj
 0002:00101300       ?StartDocA@CDC@@QAEHPAU_DOCINFOA@@@Z 10188300 f   nafxcwd:afxinl2.obj
 0002:00101340       ?StartPage@CDC@@QAEHXZ     10188340 f   nafxcwd:afxinl2.obj
 0002:00101380       ?EndPage@CDC@@QAEHXZ       10188380 f   nafxcwd:afxinl2.obj
 0002:001013c0       ?SetAbortProc@CDC@@QAEHP6GHPAUHDC__@@H@Z@Z 101883c0 f   nafxcwd:afxinl2.obj
 0002:00101400       ?AbortDoc@CDC@@QAEHXZ      10188400 f   nafxcwd:afxinl2.obj
 0002:00101440       ?EndDoc@CDC@@QAEHXZ        10188440 f   nafxcwd:afxinl2.obj
 0002:00101480       ?MaskBlt@CDC@@QAEHHHHHPAV1@HHAAVCBitmap@@HHK@Z 10188480 f   nafxcwd:afxinl2.obj
 0002:001014f0       ?PlgBlt@CDC@@QAEHPAUtagPOINT@@PAV1@HHHHAAVCBitmap@@HH@Z 101884f0 f   nafxcwd:afxinl2.obj
 0002:00101560       ?SetPixelV@CDC@@QAEHHHK@Z  10188560 f   nafxcwd:afxinl2.obj
 0002:001015b0       ?SetPixelV@CDC@@QAEHUtagPOINT@@K@Z 101885b0 f   nafxcwd:afxinl2.obj
 0002:00101600       ?AngleArc@CDC@@QAEHHHHMM@Z 10188600 f   nafxcwd:afxinl2.obj
 0002:00101650       ?ArcTo@CDC@@QAEHPBUtagRECT@@UtagPOINT@@1@Z 10188650 f   nafxcwd:afxinl2.obj
 0002:001016b0       ?GetArcDirection@CDC@@QBEHXZ 101886b0 f   nafxcwd:afxinl2.obj
 0002:001016f0       ?PolyPolyline@CDC@@QAEHPBUtagPOINT@@PBKH@Z 101886f0 f   nafxcwd:afxinl2.obj
 0002:00101740       ?GetColorAdjustment@CDC@@QBEHPAUtagCOLORADJUSTMENT@@@Z 10188740 f   nafxcwd:afxinl2.obj
 0002:00101780       ?GetCurrentPen@CDC@@QBEPAVCPen@@XZ 10188780 f   nafxcwd:afxinl2.obj
 0002:001017c0       ?GetCurrentBrush@CDC@@QBEPAVCBrush@@XZ 101887c0 f   nafxcwd:afxinl2.obj
 0002:00101800       ?GetCurrentPalette@CDC@@QBEPAVCPalette@@XZ 10188800 f   nafxcwd:afxinl2.obj
 0002:00101840       ?GetCurrentFont@CDC@@QBEPAVCFont@@XZ 10188840 f   nafxcwd:afxinl2.obj
 0002:00101880       ?GetCurrentBitmap@CDC@@QBEPAVCBitmap@@XZ 10188880 f   nafxcwd:afxinl2.obj
 0002:001018c0       ?PolyBezier@CDC@@QAEHPBUtagPOINT@@H@Z 101888c0 f   nafxcwd:afxinl2.obj
 0002:00101900       ?DrawEscape@CDC@@QAEHHHPBD@Z 10188900 f   nafxcwd:afxinl2.obj
 0002:00101950       ?Escape@CDC@@QAEHHHPBDHPAD@Z 10188950 f   nafxcwd:afxinl2.obj
 0002:001019a0       ?GetCharABCWidthsA@CDC@@QBEHIIPAU_ABCFLOAT@@@Z 101889a0 f   nafxcwd:afxinl2.obj
 0002:001019f0       ?GetCharWidthA@CDC@@QBEHIIPAM@Z 101889f0 f   nafxcwd:afxinl2.obj
 0002:00101a40       ?AbortPath@CDC@@QAEHXZ     10188a40 f   nafxcwd:afxinl2.obj
 0002:00101a80       ?BeginPath@CDC@@QAEHXZ     10188a80 f   nafxcwd:afxinl2.obj
 0002:00101ac0       ?CloseFigure@CDC@@QAEHXZ   10188ac0 f   nafxcwd:afxinl2.obj
 0002:00101b00       ?EndPath@CDC@@QAEHXZ       10188b00 f   nafxcwd:afxinl2.obj
 0002:00101b40       ?FillPath@CDC@@QAEHXZ      10188b40 f   nafxcwd:afxinl2.obj
 0002:00101b80       ?FlattenPath@CDC@@QAEHXZ   10188b80 f   nafxcwd:afxinl2.obj
 0002:00101bc0       ?GetMiterLimit@CDC@@QBEMXZ 10188bc0 f   nafxcwd:afxinl2.obj
 0002:00101c20       ?GetPath@CDC@@QBEHPAUtagPOINT@@PAEH@Z 10188c20 f   nafxcwd:afxinl2.obj
 0002:00101c70       ?SetMiterLimit@CDC@@QAEHM@Z 10188c70 f   nafxcwd:afxinl2.obj
 0002:00101cb0       ?StrokeAndFillPath@CDC@@QAEHXZ 10188cb0 f   nafxcwd:afxinl2.obj
 0002:00101cf0       ?StrokePath@CDC@@QAEHXZ    10188cf0 f   nafxcwd:afxinl2.obj
 0002:00101d30       ?WidenPath@CDC@@QAEHXZ     10188d30 f   nafxcwd:afxinl2.obj
 0002:00101d70       ?AddMetaFileComment@CDC@@QAEHIPBE@Z 10188d70 f   nafxcwd:afxinl2.obj
 0002:00101db0       ?PlayMetaFile@CDC@@QAEHPAUHENHMETAFILE__@@PBUtagRECT@@@Z 10188db0 f   nafxcwd:afxinl2.obj
 0002:00101df0       ??0CMenu@@QAE@XZ           10188df0 f   nafxcwd:afxinl2.obj
 0002:00101e20       ??1CMenu@@UAE@XZ           10188e20 f   nafxcwd:afxinl2.obj
 0002:00101e80       ?CreateMenu@CMenu@@QAEHXZ  10188e80 f   nafxcwd:afxinl2.obj
 0002:00101ea0       ?CreatePopupMenu@CMenu@@QAEHXZ 10188ea0 f   nafxcwd:afxinl2.obj
 0002:00101ec0       ??BCMenu@@QBEPAUHMENU__@@XZ 10188ec0 f   nafxcwd:afxinl2.obj
 0002:00101f20       ??8CMenu@@QBEHABV0@@Z      10188f20 f   nafxcwd:afxinl2.obj
 0002:00101f40       ??9CMenu@@QBEHABV0@@Z      10188f40 f   nafxcwd:afxinl2.obj
 0002:00101f70       ?GetSafeHmenu@CMenu@@QBEPAUHMENU__@@XZ 10188f70 f   nafxcwd:afxinl2.obj
 0002:00101fd0       ?DeleteMenu@CMenu@@QAEHII@Z 10188fd0 f   nafxcwd:afxinl2.obj
 0002:00102020       ?AppendMenuA@CMenu@@QAEHIIPBD@Z 10189020 f   nafxcwd:afxinl2.obj
 0002:00102070       ?AppendMenuA@CMenu@@QAEHIIPBVCBitmap@@@Z 10189070 f   nafxcwd:afxinl2.obj
 0002:001020d0       ?CheckMenuItem@CMenu@@QAEIII@Z 101890d0 f   nafxcwd:afxinl2.obj
 0002:00102120       ?EnableMenuItem@CMenu@@QAEIII@Z 10189120 f   nafxcwd:afxinl2.obj
 0002:00102170       ?SetDefaultItem@CMenu@@QAEHIH@Z 10189170 f   nafxcwd:afxinl2.obj
 0002:001021c0       ?GetDefaultItem@CMenu@@QAEIIH@Z 101891c0 f   nafxcwd:afxinl2.obj
 0002:00102210       ?GetMenuItemCount@CMenu@@QBEIXZ 10189210 f   nafxcwd:afxinl2.obj
 0002:00102250       ?GetMenuItemID@CMenu@@QBEIH@Z 10189250 f   nafxcwd:afxinl2.obj
 0002:001022a0       ?GetMenuState@CMenu@@QBEIII@Z 101892a0 f   nafxcwd:afxinl2.obj
 0002:001022f0       ?GetMenuStringA@CMenu@@QBEHIPADHI@Z 101892f0 f   nafxcwd:afxinl2.obj
 0002:00102340       ?GetMenuItemInfoA@CMenu@@QAEHIPAUtagMENUITEMINFOA@@H@Z 10189340 f   nafxcwd:afxinl2.obj
 0002:001023c0       ?SetMenuItemInfoA@CMenu@@QAEHIPAUtagMENUITEMINFOA@@H@Z 101893c0 f   nafxcwd:afxinl2.obj
 0002:00102440       ?GetSubMenu@CMenu@@QBEPAV1@H@Z 10189440 f   nafxcwd:afxinl2.obj
 0002:00102490       ?InsertMenuA@CMenu@@QAEHIIIPBD@Z 10189490 f   nafxcwd:afxinl2.obj
 0002:001024e0       ?InsertMenuA@CMenu@@QAEHIIIPBVCBitmap@@@Z 101894e0 f   nafxcwd:afxinl2.obj
 0002:00102540       ?InsertMenuItemA@CMenu@@QAEHIPAUtagMENUITEMINFOA@@H@Z 10189540 f   nafxcwd:afxinl2.obj
 0002:001025c0       ?ModifyMenuA@CMenu@@QAEHIIIPBD@Z 101895c0 f   nafxcwd:afxinl2.obj
 0002:00102610       ?ModifyMenuA@CMenu@@QAEHIIIPBVCBitmap@@@Z 10189610 f   nafxcwd:afxinl2.obj
 0002:00102670       ?RemoveMenu@CMenu@@QAEHII@Z 10189670 f   nafxcwd:afxinl2.obj
 0002:001026c0       ?SetMenuItemBitmaps@CMenu@@QAEHIIPBVCBitmap@@0@Z 101896c0 f   nafxcwd:afxinl2.obj
 0002:00102720       ?LoadMenuA@CMenu@@QAEHPBD@Z 10189720 f   nafxcwd:afxinl2.obj
 0002:00102750       ?LoadMenuA@CMenu@@QAEHI@Z  10189750 f   nafxcwd:afxinl2.obj
 0002:00102780       ?LoadMenuIndirectA@CMenu@@QAEHPBX@Z 10189780 f   nafxcwd:afxinl2.obj
 0002:001027a0       ?SetMenuContextHelpId@CMenu@@QAEHK@Z 101897a0 f   nafxcwd:afxinl2.obj
 0002:001027c0       ?GetMenuContextHelpId@CMenu@@QBEKXZ 101897c0 f   nafxcwd:afxinl2.obj
 0002:001027e0       ?CheckMenuRadioItem@CMenu@@QAEHIIII@Z 101897e0 f   nafxcwd:afxinl2.obj
 0002:00102810       ?ContinueRouting@CCmdUI@@QAEXXZ 10189810 f   nafxcwd:afxinl2.obj
 0002:00103d50       ??_ECResourceException@@UAEPAXI@Z 1018ad50 f i nafxcwd:afxinl2.obj
 0002:00103d50       ??_GCResourceException@@UAEPAXI@Z 1018ad50 f i nafxcwd:afxinl2.obj
 0002:00103d90       ??_ECUserException@@UAEPAXI@Z 1018ad90 f i nafxcwd:afxinl2.obj
 0002:00103d90       ??_GCUserException@@UAEPAXI@Z 1018ad90 f i nafxcwd:afxinl2.obj
 0002:00103dd0       ??_GCGdiObject@@UAEPAXI@Z  1018add0 f i nafxcwd:afxinl2.obj
 0002:00103dd0       ??_ECGdiObject@@UAEPAXI@Z  1018add0 f i nafxcwd:afxinl2.obj
 0002:00103e10       ??_GCPen@@UAEPAXI@Z        1018ae10 f i nafxcwd:afxinl2.obj
 0002:00103e10       ??_ECPen@@UAEPAXI@Z        1018ae10 f i nafxcwd:afxinl2.obj
 0002:00103e50       ??_GCBrush@@UAEPAXI@Z      1018ae50 f i nafxcwd:afxinl2.obj
 0002:00103e50       ??_ECBrush@@UAEPAXI@Z      1018ae50 f i nafxcwd:afxinl2.obj
 0002:00103e90       ??_GCFont@@UAEPAXI@Z       1018ae90 f i nafxcwd:afxinl2.obj
 0002:00103e90       ??_ECFont@@UAEPAXI@Z       1018ae90 f i nafxcwd:afxinl2.obj
 0002:00103ed0       ??_GCBitmap@@UAEPAXI@Z     1018aed0 f i nafxcwd:afxinl2.obj
 0002:00103ed0       ??_ECBitmap@@UAEPAXI@Z     1018aed0 f i nafxcwd:afxinl2.obj
 0002:00103f10       ??_ECPalette@@UAEPAXI@Z    1018af10 f i nafxcwd:afxinl2.obj
 0002:00103f10       ??_GCPalette@@UAEPAXI@Z    1018af10 f i nafxcwd:afxinl2.obj
 0002:00103f50       ??_GCRgn@@UAEPAXI@Z        1018af50 f i nafxcwd:afxinl2.obj
 0002:00103f50       ??_ECRgn@@UAEPAXI@Z        1018af50 f i nafxcwd:afxinl2.obj
 0002:00103f90       ??_ECMenu@@UAEPAXI@Z       1018af90 f i nafxcwd:afxinl2.obj
 0002:00103f90       ??_GCMenu@@UAEPAXI@Z       1018af90 f i nafxcwd:afxinl2.obj
 0002:00104ff0       ??1CIPAddressCtrl@@UAE@XZ  1018bff0 f   nafxcwd:winctrl6.obj
 0002:00105050       ?Create@CIPAddressCtrl@@UAEHKABUtagRECT@@PAVCWnd@@I@Z 1018c050 f   nafxcwd:winctrl6.obj
 0002:001050d0       ?CreateEx@CIPAddressCtrl@@UAEHKKABUtagRECT@@PAVCWnd@@I@Z 1018c0d0 f   nafxcwd:winctrl6.obj
 0002:00105120       ?GetAddress@CIPAddressCtrl@@QAEHAAE000@Z 1018c120 f   nafxcwd:winctrl6.obj
 0002:00105220       ??_ECIPAddressCtrl@@UAEPAXI@Z 1018c220 f i nafxcwd:winctrl6.obj
 0002:00105220       ??_GCIPAddressCtrl@@UAEPAXI@Z 1018c220 f i nafxcwd:winctrl6.obj
 0002:00106260       ?CreateObject@CWnd@@SGPAVCObject@@XZ 1018d260 f   nafxcwd:wincore.obj
 0002:001062d0       ?GetRuntimeClass@CWnd@@UBEPAUCRuntimeClass@@XZ 1018d2d0 f   nafxcwd:wincore.obj
 0002:00106300       ?AllocSysString@?$CStringT@DV?$StrTraitMFC@DV?$ChTraitsCRT@D@ATL@@@@@ATL@@QBEPA_WXZ 1018d300 f i nafxcwd:wincore.obj
 0002:00106350       ?GetData@?$CThreadLocal@V_AFX_THREAD_STATE@@@@QAEPAV_AFX_THREAD_STATE@@XZ 1018d350 f i nafxcwd:wincore.obj
 0002:001063a0       ??C?$CThreadLocal@V_AFX_THREAD_STATE@@@@QAEPAV_AFX_THREAD_STATE@@XZ 1018d3a0 f i nafxcwd:wincore.obj
 0002:001063c0       ?GetNext@?$_CTypedPtrList@VCPtrList@@PAUCOleControlSiteOrWnd@@@@QAEAAPAUCOleControlSiteOrWnd@@AAPAU__POSITION@@@Z 1018d3c0 f i nafxcwd:wincore.obj
 0002:001063e0       ?GetData@?$CProcessLocal@V_AFX_HTMLHELP_STATE@@@@QAEPAV_AFX_HTMLHELP_STATE@@XZ 1018d3e0 f i nafxcwd:wincore.obj
 0002:00106430       ?Construct@?$ConstructDestruct@VCWnd@@@@SGXPAVCObject@@@Z 1018d430 f i nafxcwd:wincore.obj
 0002:001064b0       ?Destruct@?$ConstructDestruct@VCWnd@@@@SGXPAVCObject@@@Z 1018d4b0 f i nafxcwd:wincore.obj
 0002:001064e0       ?CreateInstance@?$CMFCComObject@VCAccessibleProxy@ATL@@@@SGJPAPAV1@@Z 1018d4e0 f i nafxcwd:wincore.obj
 0002:001066d0       ??0?$CComPtr@UIAccessibleProxy@@@ATL@@QAE@XZ 1018d6d0 f i nafxcwd:wincore.obj
 0002:001066f0       ??1?$CComPtrBase@UIAccessibleProxy@@@ATL@@QAE@XZ 1018d6f0 f i nafxcwd:wincore.obj
 0002:00106720       ??B?$CComPtrBase@UIAccessibleProxy@@@ATL@@QBEPAUIAccessibleProxy@@XZ 1018d720 f i nafxcwd:wincore.obj
 0002:00106740       ??I?$CComPtrBase@UIAccessibleProxy@@@ATL@@QAEPAPAUIAccessibleProxy@@XZ 1018d740 f i nafxcwd:wincore.obj
 0002:00106790       ??C?$CComPtrBase@UIAccessibleProxy@@@ATL@@QBEPAV?$_NoAddRefReleaseOnCComPtr@UIAccessibleProxy@@@1@XZ 1018d790 f i nafxcwd:wincore.obj
 0002:001067e0       ?AllocSysString@?$ChTraitsCRT@D@ATL@@SAPA_WPBDH@Z 1018d7e0 f i nafxcwd:wincore.obj
 0002:00106860       ?CreateObject@?$CThreadLocal@V_AFX_THREAD_STATE@@@@SGPAVCNoTrackObject@@XZ 1018d860 f i nafxcwd:wincore.obj
 0002:001068e0       ?CreateObject@?$CProcessLocal@V_AFX_HTMLHELP_STATE@@@@SGPAVCNoTrackObject@@XZ 1018d8e0 f i nafxcwd:wincore.obj
 0002:00106920       ??0?$CMFCComObject@VCAccessibleProxy@ATL@@@@QAE@PAX@Z 1018d920 f i nafxcwd:wincore.obj
 0002:001069a0       ??0?$IAccessibleProxyImpl@VCAccessibleProxy@ATL@@@ATL@@QAE@XZ 1018d9a0 f i nafxcwd:wincore.obj
 0002:00106a00       ?get_accParent@?$IAccessibleProxyImpl@VCAccessibleProxy@ATL@@@ATL@@UAGJPAPAUIDispatch@@@Z 1018da00 f i nafxcwd:wincore.obj
 0002:00106a50       ?get_accChildCount@?$IAccessibleProxyImpl@VCAccessibleProxy@ATL@@@ATL@@UAGJPAJ@Z 1018da50 f i nafxcwd:wincore.obj
 0002:00106aa0       ?get_accChild@?$IAccessibleProxyImpl@VCAccessibleProxy@ATL@@@ATL@@UAGJUtagVARIANT@@PAPAUIDispatch@@@Z 1018daa0 f i nafxcwd:wincore.obj
 0002:00106b10       ?get_accName@?$IAccessibleProxyImpl@VCAccessibleProxy@ATL@@@ATL@@UAGJUtagVARIANT@@PAPA_W@Z 1018db10 f i nafxcwd:wincore.obj
 0002:00106b80       ?get_accValue@?$IAccessibleProxyImpl@VCAccessibleProxy@ATL@@@ATL@@UAGJUtagVARIANT@@PAPA_W@Z 1018db80 f i nafxcwd:wincore.obj
 0002:00106bf0       ?get_accDescription@?$IAccessibleProxyImpl@VCAccessibleProxy@ATL@@@ATL@@UAGJUtagVARIANT@@PAPA_W@Z 1018dbf0 f i nafxcwd:wincore.obj
 0002:00106c60       ?get_accRole@?$IAccessibleProxyImpl@VCAccessibleProxy@ATL@@@ATL@@UAGJUtagVARIANT@@PAU3@@Z 1018dc60 f i nafxcwd:wincore.obj
 0002:00106cd0       ?get_accState@?$IAccessibleProxyImpl@VCAccessibleProxy@ATL@@@ATL@@UAGJUtagVARIANT@@PAU3@@Z 1018dcd0 f i nafxcwd:wincore.obj
 0002:00106d40       ?get_accHelp@?$IAccessibleProxyImpl@VCAccessibleProxy@ATL@@@ATL@@UAGJUtagVARIANT@@PAPA_W@Z 1018dd40 f i nafxcwd:wincore.obj
 0002:00106db0       ?get_accHelpTopic@?$IAccessibleProxyImpl@VCAccessibleProxy@ATL@@@ATL@@UAGJPAPA_WUtagVARIANT@@PAJ@Z 1018ddb0 f i nafxcwd:wincore.obj
 0002:00106e30       ?get_accKeyboardShortcut@?$IAccessibleProxyImpl@VCAccessibleProxy@ATL@@@ATL@@UAGJUtagVARIANT@@PAPA_W@Z 1018de30 f i nafxcwd:wincore.obj
 0002:00106ea0       ?get_accFocus@?$IAccessibleProxyImpl@VCAccessibleProxy@ATL@@@ATL@@UAGJPAUtagVARIANT@@@Z 1018dea0 f i nafxcwd:wincore.obj
 0002:00106ef0       ?get_accSelection@?$IAccessibleProxyImpl@VCAccessibleProxy@ATL@@@ATL@@UAGJPAUtagVARIANT@@@Z 1018def0 f i nafxcwd:wincore.obj
 0002:00106f40       ?get_accDefaultAction@?$IAccessibleProxyImpl@VCAccessibleProxy@ATL@@@ATL@@UAGJUtagVARIANT@@PAPA_W@Z 1018df40 f i nafxcwd:wincore.obj
 0002:00106fb0       ?accSelect@?$IAccessibleProxyImpl@VCAccessibleProxy@ATL@@@ATL@@UAGJJUtagVARIANT@@@Z 1018dfb0 f i nafxcwd:wincore.obj
 0002:00107010       ?accLocation@?$IAccessibleProxyImpl@VCAccessibleProxy@ATL@@@ATL@@UAGJPAJ000UtagVARIANT@@@Z 1018e010 f i nafxcwd:wincore.obj
 0002:001070c0       ?accNavigate@?$IAccessibleProxyImpl@VCAccessibleProxy@ATL@@@ATL@@UAGJJUtagVARIANT@@PAU3@@Z 1018e0c0 f i nafxcwd:wincore.obj
 0002:00107130       ?accHitTest@?$IAccessibleProxyImpl@VCAccessibleProxy@ATL@@@ATL@@UAGJJJPAUtagVARIANT@@@Z 1018e130 f i nafxcwd:wincore.obj
 0002:00107190       ?accDoDefaultAction@?$IAccessibleProxyImpl@VCAccessibleProxy@ATL@@@ATL@@UAGJUtagVARIANT@@@Z 1018e190 f i nafxcwd:wincore.obj
 0002:001071f0       ?put_accName@?$IAccessibleProxyImpl@VCAccessibleProxy@ATL@@@ATL@@UAGJUtagVARIANT@@PA_W@Z 1018e1f0 f i nafxcwd:wincore.obj
 0002:00107220       ?put_accValue@?$IAccessibleProxyImpl@VCAccessibleProxy@ATL@@@ATL@@UAGJUtagVARIANT@@PA_W@Z 1018e220 f i nafxcwd:wincore.obj
 0002:00107250       ?SetServer@?$IAccessibleProxyImpl@VCAccessibleProxy@ATL@@@ATL@@UAGJPAUIAccessible@@PAUIAccessibleServer@@@Z 1018e250 f i nafxcwd:wincore.obj
 0002:00107280       ?Invoke@?$IAccessibleProxyImpl@VCAccessibleProxy@ATL@@@ATL@@UAGJJABU_GUID@@KGPAUtagDISPPARAMS@@PAUtagVARIANT@@PAUtagEXCEPINFO@@PAI@Z 1018e280 f i nafxcwd:wincore.obj
 0002:001072e0       ?GetIDsOfNames@?$IAccessibleProxyImpl@VCAccessibleProxy@ATL@@@ATL@@UAGJABU_GUID@@PAPA_WIKPAJ@Z 1018e2e0 f i nafxcwd:wincore.obj
 0002:00107330       ?GetTypeInfoCount@?$IAccessibleProxyImpl@VCAccessibleProxy@ATL@@@ATL@@UAGJPAI@Z 1018e330 f i nafxcwd:wincore.obj
 0002:00107370       ?GetTypeInfo@?$IAccessibleProxyImpl@VCAccessibleProxy@ATL@@@ATL@@UAGJIKPAPAUITypeInfo@@@Z 1018e370 f i nafxcwd:wincore.obj
 0002:001073c0       ?AddRef@?$CMFCComObject@VCAccessibleProxy@ATL@@@@UAGKXZ 1018e3c0 f i nafxcwd:wincore.obj
 0002:001073e0       ?Release@?$CMFCComObject@VCAccessibleProxy@ATL@@@@UAGKXZ 1018e3e0 f i nafxcwd:wincore.obj
 0002:00107450       ?QueryInterface@?$CMFCComObject@VCAccessibleProxy@ATL@@@@UAGJABU_GUID@@PAPAX@Z 1018e450 f i nafxcwd:wincore.obj
 0002:00107470       ??0IAccessible@@QAE@XZ     1018e470 f i nafxcwd:wincore.obj
 0002:00107490       ??0IAccessibleProxy@@QAE@XZ 1018e490 f i nafxcwd:wincore.obj
 0002:001074b0       ??_E?$CMFCComObject@VCAccessibleProxy@ATL@@@@UAEPAXI@Z 1018e4b0 f i nafxcwd:wincore.obj
 0002:001074b0       ??_G?$CMFCComObject@VCAccessibleProxy@ATL@@@@UAEPAXI@Z 1018e4b0 f i nafxcwd:wincore.obj
 0002:001074f0       ??1?$CMFCComObject@VCAccessibleProxy@ATL@@@@UAE@XZ 1018e4f0 f i nafxcwd:wincore.obj
 0002:00107590       ??0IDispatch@@QAE@XZ       1018e590 f i nafxcwd:wincore.obj
 0002:001075b0       ??0?$CComPtrBase@UIAccessibleProxy@@@ATL@@IAE@XZ 1018e5b0 f i nafxcwd:wincore.obj
 0002:001075d0       ??0_AFX_HTMLHELP_STATE@@QAE@XZ 1018e5d0 f i nafxcwd:wincore.obj
 0002:00107600       ??0CNoTrackObject@@QAE@XZ  1018e600 f i nafxcwd:wincore.obj
 0002:00107620       ??$QueryInterface@UIAccessibleProxy@@@?$CMFCComObject@VCAccessibleProxy@ATL@@@@QAGJPAPAUIAccessibleProxy@@@Z 1018e620 f i nafxcwd:wincore.obj
 0002:00107650       ?QueryInterface@?$CMFCComObject@VCAccessibleProxy@ATL@@@@W3AGJABU_GUID@@PAPAX@Z 1018e650 f i nafxcwd:wincore.obj
 0002:00107660       ?AddRef@?$CMFCComObject@VCAccessibleProxy@ATL@@@@W3AGKXZ 1018e660 f i nafxcwd:wincore.obj
 0002:00107670       ?Release@?$CMFCComObject@VCAccessibleProxy@ATL@@@@W3AGKXZ 1018e670 f i nafxcwd:wincore.obj
 0002:00107680       ?QueryInterface@?$CMFCComObject@VCAccessibleProxy@ATL@@@@WBA@AGJABU_GUID@@PAPAX@Z 1018e680 f i nafxcwd:wincore.obj
 0002:00107690       ?AddRef@?$CMFCComObject@VCAccessibleProxy@ATL@@@@WBA@AGKXZ 1018e690 f i nafxcwd:wincore.obj
 0002:001076a0       ?Release@?$CMFCComObject@VCAccessibleProxy@ATL@@@@WBA@AGKXZ 1018e6a0 f i nafxcwd:wincore.obj
 0002:001076b0       ?GetRuntimeClass@CStatic@@UBEPAUCRuntimeClass@@XZ 1018e6b0 f   nafxcwd:winctrl1.obj
 0002:001076c0       ?GetRuntimeClass@CButton@@UBEPAUCRuntimeClass@@XZ 1018e6c0 f   nafxcwd:winctrl1.obj
 0002:001076d0       ?GetRuntimeClass@CListBox@@UBEPAUCRuntimeClass@@XZ 1018e6d0 f   nafxcwd:winctrl1.obj
 0002:001076e0       ?GetRuntimeClass@CComboBox@@UBEPAUCRuntimeClass@@XZ 1018e6e0 f   nafxcwd:winctrl1.obj
 0002:001076f0       ?GetRuntimeClass@CEdit@@UBEPAUCRuntimeClass@@XZ 1018e6f0 f   nafxcwd:winctrl1.obj
 0002:00107700       ?GetRuntimeClass@CScrollBar@@UBEPAUCRuntimeClass@@XZ 1018e700 f   nafxcwd:winctrl1.obj
 0002:00107730       ?_AfxLoadDotBitmap@@YGXXZ  1018e730 f   nafxcwd:cmdtarg.obj
 0002:00107940       ?Dump@CCmdTarget@@UBEXAAVCDumpContext@@@Z 1018e940 f   nafxcwd:cmdtarg.obj
 0002:00107a30       ?AssertValid@CCmdTarget@@UBEXXZ 1018ea30 f   nafxcwd:cmdtarg.obj
 0002:00107a50       ?GetRuntimeClass@CCmdTarget@@UBEPAUCRuntimeClass@@XZ 1018ea50 f   nafxcwd:cmdtarg.obj
 0002:00107b30       ?GetRuntimeClass@CResourceException@@UBEPAUCRuntimeClass@@XZ 1018eb30 f   nafxcwd:wingdi.obj
 0002:00107b40       ?GetRuntimeClass@CUserException@@UBEPAUCRuntimeClass@@XZ 1018eb40 f   nafxcwd:wingdi.obj
 0002:00107b50       ?CreateObject@CDC@@SGPAVCObject@@XZ 1018eb50 f   nafxcwd:wingdi.obj
 0002:00107bc0       ?GetRuntimeClass@CDC@@UBEPAUCRuntimeClass@@XZ 1018ebc0 f   nafxcwd:wingdi.obj
 0002:00107bd0       ?GetRuntimeClass@CClientDC@@UBEPAUCRuntimeClass@@XZ 1018ebd0 f   nafxcwd:wingdi.obj
 0002:00107be0       ?GetRuntimeClass@CWindowDC@@UBEPAUCRuntimeClass@@XZ 1018ebe0 f   nafxcwd:wingdi.obj
 0002:00107bf0       ?GetRuntimeClass@CPaintDC@@UBEPAUCRuntimeClass@@XZ 1018ebf0 f   nafxcwd:wingdi.obj
 0002:00107c00       ?CreateObject@CGdiObject@@SGPAVCObject@@XZ 1018ec00 f   nafxcwd:wingdi.obj
 0002:00107c70       ?GetRuntimeClass@CGdiObject@@UBEPAUCRuntimeClass@@XZ 1018ec70 f   nafxcwd:wingdi.obj
 0002:00107c80       ?GetRuntimeClass@CPen@@UBEPAUCRuntimeClass@@XZ 1018ec80 f   nafxcwd:wingdi.obj
 0002:00107c90       ?GetRuntimeClass@CBrush@@UBEPAUCRuntimeClass@@XZ 1018ec90 f   nafxcwd:wingdi.obj
 0002:00107ca0       ?GetRuntimeClass@CFont@@UBEPAUCRuntimeClass@@XZ 1018eca0 f   nafxcwd:wingdi.obj
 0002:00107cb0       ?GetRuntimeClass@CBitmap@@UBEPAUCRuntimeClass@@XZ 1018ecb0 f   nafxcwd:wingdi.obj
 0002:00107cc0       ?GetRuntimeClass@CPalette@@UBEPAUCRuntimeClass@@XZ 1018ecc0 f   nafxcwd:wingdi.obj
 0002:00107cd0       ?GetRuntimeClass@CRgn@@UBEPAUCRuntimeClass@@XZ 1018ecd0 f   nafxcwd:wingdi.obj
 0002:00107d50       ?Construct@?$ConstructDestruct@VCDC@@@@SGXPAVCObject@@@Z 1018ed50 f i nafxcwd:wingdi.obj
 0002:00107dd0       ?Destruct@?$ConstructDestruct@VCDC@@@@SGXPAVCObject@@@Z 1018edd0 f i nafxcwd:wingdi.obj
 0002:00107e00       ?Construct@?$ConstructDestruct@VCGdiObject@@@@SGXPAVCObject@@@Z 1018ee00 f i nafxcwd:wingdi.obj
 0002:00107e80       ?Destruct@?$ConstructDestruct@VCGdiObject@@@@SGXPAVCObject@@@Z 1018ee80 f i nafxcwd:wingdi.obj
 0002:00107f50       ?CreateObject@CStringList@@SGPAVCObject@@XZ 1018ef50 f   nafxcwd:list_s.obj
 0002:00107fc0       ?GetRuntimeClass@CStringList@@UBEPAUCRuntimeClass@@XZ 1018efc0 f   nafxcwd:list_s.obj
 0002:00107fd0       ??5@YGAAVCArchive@@AAV0@AAPAVCStringList@@@Z 1018efd0 f   nafxcwd:list_s.obj
 0002:00108020       ??8ATL@@YA_NABV?$CStringT@DV?$StrTraitMFC@DV?$ChTraitsCRT@D@ATL@@@@@0@PBD@Z 1018f020 f i nafxcwd:list_s.obj
 0002:00108040       ??$?6DV?$StrTraitMFC@DV?$ChTraitsCRT@D@ATL@@@@@@YGAAVCArchive@@AAV0@ABV?$CStringT@DV?$StrTraitMFC@DV?$ChTraitsCRT@D@ATL@@@@@ATL@@@Z 1018f040 f i nafxcwd:list_s.obj
 0002:00108090       ??$?5DV?$StrTraitMFC@DV?$ChTraitsCRT@D@ATL@@@@@@YGAAVCArchive@@AAV0@AAV?$CStringT@DV?$StrTraitMFC@DV?$ChTraitsCRT@D@ATL@@@@@ATL@@@Z 1018f090 f i nafxcwd:list_s.obj
 0002:00108270       ??$?6DV?$StrTraitMFC@DV?$ChTraitsCRT@D@ATL@@@@@@YGAAVCDumpContext@@AAV0@ABV?$CStringT@DV?$StrTraitMFC@DV?$ChTraitsCRT@D@ATL@@@@@ATL@@@Z 1018f270 f i nafxcwd:list_s.obj
 0002:001082a0       ??0?$CTempBuffer@D$0IA@VCCRTAllocator@ATL@@@ATL@@QAE@I@Z 1018f2a0 f i nafxcwd:list_s.obj
 0002:001082d0       ??0?$CTempBuffer@_W$0IA@VCCRTAllocator@ATL@@@ATL@@QAE@I@Z 1018f2d0 f i nafxcwd:list_s.obj
 0002:00108320       ?GetRuntimeClass@COleException@@UBEPAUCRuntimeClass@@XZ 1018f320 f   nafxcwd:olemisc.obj
 0002:00108340       ?GetRuntimeClass@CException@@UBEPAUCRuntimeClass@@XZ 1018f340 f   nafxcwd:except.obj
 0002:00108350       ?GetRuntimeClass@CMemoryException@@UBEPAUCRuntimeClass@@XZ 1018f350 f   nafxcwd:except.obj
 0002:00108360       ?GetRuntimeClass@CNotSupportedException@@UBEPAUCRuntimeClass@@XZ 1018f360 f   nafxcwd:except.obj
 0002:00108370       ?GetRuntimeClass@CInvalidArgException@@UBEPAUCRuntimeClass@@XZ 1018f370 f   nafxcwd:except.obj
 0002:00108480       ??0CWinThread@@QAE@P6AIPAX@Z0@Z 1018f480 f   nafxcwd:thrdcore.obj
 0002:001084f0       ??0CWinThread@@QAE@XZ      1018f4f0 f   nafxcwd:thrdcore.obj
 0002:00108560       ?CommonConstruct@CWinThread@@QAEXXZ 1018f560 f   nafxcwd:thrdcore.obj
 0002:001085f0       ?GetRuntimeClass@CWinThread@@UBEPAUCRuntimeClass@@XZ 1018f5f0 f   nafxcwd:thrdcore.obj
 0002:00108660       ??_ECWinThread@@UAEPAXI@Z  1018f660 f i nafxcwd:thrdcore.obj
 0002:00108660       ??_GCWinThread@@UAEPAXI@Z  1018f660 f i nafxcwd:thrdcore.obj
 0002:001086a0       ??B?$CTypedSimpleList@PAVCFrameWnd@@@@QAEPAVCFrameWnd@@XZ 1018f6a0 f i nafxcwd:thrdcore.obj
 0002:001086c0       ??B?$CThreadLocal@VAFX_MODULE_THREAD_STATE@@@@QAEPAVAFX_MODULE_THREAD_STATE@@XZ 1018f6c0 f i nafxcwd:thrdcore.obj
 0002:001086e0       ?GetData@?$CThreadLocal@VAFX_MODULE_THREAD_STATE@@@@QAEPAVAFX_MODULE_THREAD_STATE@@XZ 1018f6e0 f i nafxcwd:thrdcore.obj
 0002:00108730       ?CreateObject@?$CThreadLocal@VAFX_MODULE_THREAD_STATE@@@@SGPAVCNoTrackObject@@XZ 1018f730 f i nafxcwd:thrdcore.obj
 0002:001087b0       ?GetRuntimeClass@CDialog@@UBEPAUCRuntimeClass@@XZ 1018f7b0 f   nafxcwd:dlgcore.obj
 0002:001087d0       ?AfxLoadLangResourceDLL@@YGPAUHINSTANCE__@@PBD@Z 1018f7d0 f   nafxcwd:appcore.obj
 0002:00108c60       ??0CWinApp@@QAE@PBD@Z      1018fc60 f   nafxcwd:appcore.obj
 0002:00108e80       ?LoadSysPolicies@CWinApp@@UAEHXZ 1018fe80 f   nafxcwd:appcore.obj
 0002:00108fc0       ?GetSysPolicyValue@CWinApp@@QAEHKPAH@Z 1018ffc0 f   nafxcwd:appcore.obj
 0002:00109000       ?InitApplication@CWinApp@@UAEHXZ 10190000 f   nafxcwd:appcore.obj
 0002:00109070       ?InitInstance@CWinApp@@UAEHXZ 10190070 f   nafxcwd:appcore.obj
 0002:001090d0       ?LoadAppLangResourceDLL@CWinApp@@UAEPAUHINSTANCE__@@XZ 101900d0 f   nafxcwd:appcore.obj
 0002:001091e0       ?LoadStdProfileSettings@CWinApp@@IAEXI@Z 101901e0 f   nafxcwd:appcore.obj
 0002:001092f0       ?ParseCommandLine@CWinApp@@QAEXAAVCCommandLineInfo@@@Z 101902f0 f   nafxcwd:appcore.obj
 0002:00109390       ??0CCommandLineInfo@@QAE@XZ 10190390 f   nafxcwd:appcore.obj
 0002:00109410       ??1CCommandLineInfo@@UAE@XZ 10190410 f   nafxcwd:appcore.obj
 0002:00109460       ?ParseParam@CCommandLineInfo@@UAEXPBDHH@Z 10190460 f   nafxcwd:appcore.obj
 0002:001094d0       ?ParseParamFlag@CCommandLineInfo@@IAEXPBD@Z 101904d0 f   nafxcwd:appcore.obj
 0002:00109610       ?ParseParamNotFlag@CCommandLineInfo@@IAEXPBD@Z 10190610 f   nafxcwd:appcore.obj
 0002:001096d0       ?ParseLast@CCommandLineInfo@@IAEXH@Z 101906d0 f   nafxcwd:appcore.obj
 0002:00109740       ??1CWinApp@@UAE@XZ         10190740 f   nafxcwd:appcore.obj
 0002:001099c0       ?SaveStdProfileSettings@CWinApp@@IAEXXZ 101909c0 f   nafxcwd:appcore.obj
 0002:00109a30       ?ExitInstance@CWinApp@@UAEHXZ 10190a30 f   nafxcwd:appcore.obj
 0002:00109ae0       ?GetRuntimeClass@CWinApp@@UBEPAUCRuntimeClass@@XZ 10190ae0 f   nafxcwd:appcore.obj
 0002:00109fc0       ??_GCWinApp@@UAEPAXI@Z     10190fc0 f i nafxcwd:appcore.obj
 0002:00109fc0       ??_ECWinApp@@UAEPAXI@Z     10190fc0 f i nafxcwd:appcore.obj
 0002:0010a000       ??_ECCommandLineInfo@@UAEPAXI@Z 10191000 f i nafxcwd:appcore.obj
 0002:0010a000       ??_GCCommandLineInfo@@UAEPAXI@Z 10191000 f i nafxcwd:appcore.obj
 0002:0010a080       ??1?$CProcessLocal@V_AFX_WIN_STATE@@@@QAE@XZ 10191080 f i nafxcwd:appcore.obj
 0002:0010a0a0       ?ProcessShellCommand@CWinApp@@QAEHAAVCCommandLineInfo@@@Z 101910a0 f   nafxcwd:appui2.obj
 0002:0010a350       ?InitLibId@CWinApp@@UAEXXZ 10191350 f   nafxcwd:appui2.obj
 0002:0010a360       ?Register@CWinApp@@UAEHXZ  10191360 f   nafxcwd:appui2.obj
 0002:0010a370       ?Unregister@CWinApp@@UAEHXZ 10191370 f   nafxcwd:appui2.obj
 0002:0010a5c0       ?DelRegTree@CWinApp@@QAEJPAUHKEY__@@ABV?$CStringT@DV?$StrTraitMFC@DV?$ChTraitsCRT@D@ATL@@@@@ATL@@@Z 101915c0 f   nafxcwd:appui2.obj
 0002:0010a5e0       ?AfxDelRegTreeHelper@@YGJPAUHKEY__@@ABV?$CStringT@DV?$StrTraitMFC@DV?$ChTraitsCRT@D@ATL@@@@@ATL@@@Z 101915e0 f   nafxcwd:appui2.obj
 0002:0010a740       ?EnableShellOpen@CWinApp@@IAEXXZ 10191740 f   nafxcwd:appui2.obj
 0002:0010a840       ?RegisterShellFileTypes@CWinApp@@IAEXH@Z 10191840 f   nafxcwd:appui2.obj
 0002:0010a890       ?UnregisterShellFileTypes@CWinApp@@IAEXXZ 10191890 f   nafxcwd:appui2.obj
 0002:0010aad0       ??0COleObjectFactory@@QAE@ABU_GUID@@PAUCRuntimeClass@@HPBD@Z 10191ad0 f   nafxcwd:olefact.obj
 0002:0010ab50       ??0COleObjectFactory@@QAE@ABU_GUID@@PAUCRuntimeClass@@HHPBD@Z 10191b50 f   nafxcwd:olefact.obj
 0002:0010abd0       ?CommonConstruct@COleObjectFactory@@IAEXABU_GUID@@PAUCRuntimeClass@@HHPBD@Z 10191bd0 f   nafxcwd:olefact.obj
 0002:0010ad00       ?Unregister@COleObjectFactory@@QAEHXZ 10191d00 f   nafxcwd:olefact.obj
 0002:0010ad10       ?Register@COleObjectFactory@@UAEHXZ 10191d10 f   nafxcwd:olefact.obj
 0002:0010ae30       ?UnregisterAll@COleObjectFactory@@SGHXZ 10191e30 f   nafxcwd:olefact.obj
 0002:0010aea0       ?RegisterAll@COleObjectFactory@@SGHXZ 10191ea0 f   nafxcwd:olefact.obj
 0002:0010af30       ?GetRuntimeClass@COleObjectFactory@@UBEPAUCRuntimeClass@@XZ 10191f30 f   nafxcwd:olefact.obj
 0002:0010b060       ??_ECOleObjectFactory@@UAEPAXI@Z 10192060 f i nafxcwd:olefact.obj
 0002:0010b060       ??_GCOleObjectFactory@@UAEPAXI@Z 10192060 f i nafxcwd:olefact.obj
 0002:0010b0a0       ??0XClassFactory@COleObjectFactory@@QAE@XZ 101920a0 f i nafxcwd:olefact.obj
 0002:0010b0d0       ??0IClassFactory2@@QAE@XZ  101920d0 f i nafxcwd:olefact.obj
 0002:0010b0f0       ??0IClassFactory@@QAE@XZ   101920f0 f i nafxcwd:olefact.obj
 0002:0010b110       ?AddHead@?$CTypedSimpleList@PAVCOleObjectFactory@@@@QAEXPAVCOleObjectFactory@@@Z 10192110 f i nafxcwd:olefact.obj
 0002:0010b130       ?Remove@?$CTypedSimpleList@PAVCOleObjectFactory@@@@QAEHPAVCOleObjectFactory@@@Z 10192130 f i nafxcwd:olefact.obj
 0002:0010b150       ?AddHead@CSimpleList@@QAEXPAX@Z 10192150 f   nafxcwd:afxtls.obj
 0002:0010b1c0       ?Remove@CSimpleList@@QAEHPAX@Z 101921c0 f   nafxcwd:afxtls.obj
 0002:0010b2b0       ??2CNoTrackObject@@SGPAXIPBDH@Z 101922b0 f   nafxcwd:afxtls.obj
 0002:0010b2c0       ??3CNoTrackObject@@SGXPAXPBDH@Z 101922c0 f   nafxcwd:afxtls.obj
 0002:0010b2e0       ??2CNoTrackObject@@SGPAXI@Z 101922e0 f   nafxcwd:afxtls.obj
 0002:0010b310       ??3CNoTrackObject@@SGXPAX@Z 10192310 f   nafxcwd:afxtls.obj
 0002:0010b330       ??0CThreadSlotData@@QAE@XZ 10192330 f   nafxcwd:afxtls.obj
 0002:0010b3b0       ??1CThreadSlotData@@QAE@XZ 101923b0 f   nafxcwd:afxtls.obj
 0002:0010b460       ?AllocSlot@CThreadSlotData@@QAEHXZ 10192460 f   nafxcwd:afxtls.obj
 0002:0010b650       ?FreeSlot@CThreadSlotData@@QAEXH@Z 10192650 f   nafxcwd:afxtls.obj
 0002:0010b780       ?SetValue@CThreadSlotData@@QAEXHPAX@Z 10192780 f   nafxcwd:afxtls.obj
 0002:0010b9b0       ?AssignInstance@CThreadSlotData@@QAEXPAUHINSTANCE__@@@Z 101929b0 f   nafxcwd:afxtls.obj
 0002:0010ba60       ?DeleteValues@CThreadSlotData@@QAEXPAUCThreadData@@PAUHINSTANCE__@@@Z 10192a60 f   nafxcwd:afxtls.obj
 0002:0010bba0       ?DeleteValues@CThreadSlotData@@QAEXPAUHINSTANCE__@@H@Z 10192ba0 f   nafxcwd:afxtls.obj
 0002:0010bc30       ?GetData@CThreadLocalObject@@QAEPAVCNoTrackObject@@P6GPAV2@XZ@Z 10192c30 f   nafxcwd:afxtls.obj
 0002:0010bd70       ?GetDataNA@CThreadLocalObject@@QAEPAVCNoTrackObject@@XZ 10192d70 f   nafxcwd:afxtls.obj
 0002:0010bdb0       ??1CThreadLocalObject@@QAE@XZ 10192db0 f   nafxcwd:afxtls.obj
 0002:0010bdf0       ?GetData@CProcessLocalObject@@QAEPAVCNoTrackObject@@P6GPAV2@XZ@Z 10192df0 f   nafxcwd:afxtls.obj
 0002:0010bea0       ??1CProcessLocalObject@@QAE@XZ 10192ea0 f   nafxcwd:afxtls.obj
 0002:0010bef0       ?AfxInitLocalData@@YGXPAUHINSTANCE__@@@Z 10192ef0 f   nafxcwd:afxtls.obj
 0002:0010bf10       ?AfxTermLocalData@@YGXPAUHINSTANCE__@@H@Z 10192f10 f   nafxcwd:afxtls.obj
 0002:0010bf40       ?AfxTlsAddRef@@YGXXZ       10192f40 f   nafxcwd:afxtls.obj
 0002:0010bf60       ?AfxTlsRelease@@YGXXZ      10192f60 f   nafxcwd:afxtls.obj
 0002:0010c330       ??0CThreadData@@QAE@XZ     10193330 f i nafxcwd:afxtls.obj
 0002:0010c360       ??_ECThreadData@@UAEPAXI@Z 10193360 f i nafxcwd:afxtls.obj
 0002:0010c360       ??_GCThreadData@@UAEPAXI@Z 10193360 f i nafxcwd:afxtls.obj
 0002:0010c3a0       ??1CThreadData@@UAE@XZ     101933a0 f i nafxcwd:afxtls.obj
 0002:0010c3c0       ?GetThreadValue@CThreadSlotData@@QAEPAXH@Z 101933c0 f i nafxcwd:afxtls.obj
 0002:0010c520       ??_GCThreadSlotData@@QAEPAXI@Z 10193520 f i nafxcwd:afxtls.obj
 0002:0010c560       ??0?$CTypedSimpleList@PAUCThreadData@@@@QAE@H@Z 10193560 f i nafxcwd:afxtls.obj
 0002:0010c590       ?AddHead@?$CTypedSimpleList@PAUCThreadData@@@@QAEXPAUCThreadData@@@Z 10193590 f i nafxcwd:afxtls.obj
 0002:0010c5b0       ?Remove@?$CTypedSimpleList@PAUCThreadData@@@@QAEHPAUCThreadData@@@Z 101935b0 f i nafxcwd:afxtls.obj
 0002:0010c5d0       ??B?$CTypedSimpleList@PAUCThreadData@@@@QAEPAUCThreadData@@XZ 101935d0 f i nafxcwd:afxtls.obj
 0002:0010c5f0       ?AfxWinInit@@YGHPAUHINSTANCE__@@0PADH@Z 101935f0 f   nafxcwd:appinit.obj
 0002:0010c6c0       ?SetCurrentHandles@CWinApp@@QAEXXZ 101936c0 f   nafxcwd:appinit.obj
 0002:0010c9e0       ?AfxGetFileName@@YGIPBDPADI@Z 101939e0 f   nafxcwd:appinit.obj
 0002:0010cd60       ??0_AFX_THREAD_STATE@@QAE@XZ 10193d60 f   nafxcwd:afxstate.obj
 0002:0010cdd0       ??1_AFX_THREAD_STATE@@UAE@XZ 10193dd0 f   nafxcwd:afxstate.obj
 0002:0010ce80       ?AfxGetThreadState@@YGPAV_AFX_THREAD_STATE@@XZ 10193e80 f   nafxcwd:afxstate.obj
 0002:0010ce90       ??0AFX_MODULE_STATE@@QAE@H@Z 10193e90 f   nafxcwd:afxstate.obj
 0002:0010cf70       ??1AFX_MODULE_STATE@@UAE@XZ 10193f70 f   nafxcwd:afxstate.obj
 0002:0010d060       ?RemoveAll@CTypeLibCacheMap@@UAEXPAX@Z 10194060 f   nafxcwd:afxstate.obj
 0002:0010d0b0       ??0AFX_MODULE_THREAD_STATE@@QAE@XZ 101940b0 f   nafxcwd:afxstate.obj
 0002:0010d140       ??1AFX_MODULE_THREAD_STATE@@UAE@XZ 10194140 f   nafxcwd:afxstate.obj
 0002:0010d350       ?AfxGetAppModuleState@@YGPAVAFX_MODULE_STATE@@XZ 10194350 f   nafxcwd:afxstate.obj
 0002:0010d360       ?AfxGetModuleState@@YGPAVAFX_MODULE_STATE@@XZ 10194360 f   nafxcwd:afxstate.obj
 0002:0010d3c0       ?AfxGetModuleThreadState@@YGPAVAFX_MODULE_THREAD_STATE@@XZ 101943c0 f   nafxcwd:afxstate.obj
 0002:0010d3e0       ?Unlock@CTypeLibCache@@QAEXXZ 101943e0 f   nafxcwd:afxstate.obj
 0002:0010d630       ??_G_AFX_THREAD_STATE@@UAEPAXI@Z 10194630 f i nafxcwd:afxstate.obj
 0002:0010d630       ??_E_AFX_THREAD_STATE@@UAEPAXI@Z 10194630 f i nafxcwd:afxstate.obj
 0002:0010d670       ??_GAFX_MODULE_STATE@@UAEPAXI@Z 10194670 f i nafxcwd:afxstate.obj
 0002:0010d670       ??_EAFX_MODULE_STATE@@UAEPAXI@Z 10194670 f i nafxcwd:afxstate.obj
 0002:0010d6b0       ??1?$CThreadLocal@VAFX_MODULE_THREAD_STATE@@@@QAE@XZ 101946b0 f i nafxcwd:afxstate.obj
 0002:0010d6d0       ??_EAFX_MODULE_THREAD_STATE@@UAEPAXI@Z 101946d0 f i nafxcwd:afxstate.obj
 0002:0010d6d0       ??_GAFX_MODULE_THREAD_STATE@@UAEPAXI@Z 101946d0 f i nafxcwd:afxstate.obj
 0002:0010d710       ??0?$CTypedSimpleList@PAVCFrameWnd@@@@QAE@H@Z 10194710 f i nafxcwd:afxstate.obj
 0002:0010d740       ??0?$CTypedSimpleList@PAUCRuntimeClass@@@@QAE@H@Z 10194740 f i nafxcwd:afxstate.obj
 0002:0010d770       ??0?$CTypedSimpleList@PAVCOleObjectFactory@@@@QAE@H@Z 10194770 f i nafxcwd:afxstate.obj
 0002:0010d7a0       ??0?$CTypedSimpleList@PAVCOleControlLock@@@@QAE@H@Z 101947a0 f i nafxcwd:afxstate.obj
 0002:0010d7d0       ??B?$CThreadLocal@V_AFX_THREAD_STATE@@@@QAEPAV_AFX_THREAD_STATE@@XZ 101947d0 f i nafxcwd:afxstate.obj
 0002:0010d7f0       ?GetData@?$CProcessLocal@V_AFX_BASE_MODULE_STATE@@@@QAEPAV_AFX_BASE_MODULE_STATE@@XZ 101947f0 f i nafxcwd:afxstate.obj
 0002:0010d840       ?CreateObject@?$CProcessLocal@V_AFX_BASE_MODULE_STATE@@@@SGPAVCNoTrackObject@@XZ 10194840 f i nafxcwd:afxstate.obj
 0002:0010d8c0       ??0_AFX_BASE_MODULE_STATE@@QAE@XZ 101948c0 f i nafxcwd:afxstate.obj
 0002:0010d8f0       ??_E_AFX_BASE_MODULE_STATE@@UAEPAXI@Z 101948f0 f i nafxcwd:afxstate.obj
 0002:0010d8f0       ??_G_AFX_BASE_MODULE_STATE@@UAEPAXI@Z 101948f0 f i nafxcwd:afxstate.obj
 0002:0010d930       ??1_AFX_BASE_MODULE_STATE@@UAE@XZ 10194930 f i nafxcwd:afxstate.obj
 0002:0010d9b0       ??1?$CThreadLocal@V_AFX_THREAD_STATE@@@@QAE@XZ 101949b0 f i nafxcwd:afxstate.obj
 0002:0010d9f0       ??1?$CProcessLocal@V_AFX_BASE_MODULE_STATE@@@@QAE@XZ 101949f0 f i nafxcwd:afxstate.obj
 0002:0010da10       ?AfxCriticalInit@@YGHXZ    10194a10 f   nafxcwd:afxcrit.obj
 0002:0010da50       ?AfxCriticalTerm@@YGXXZ    10194a50 f   nafxcwd:afxcrit.obj
 0002:0010db20       ?AfxLockGlobals@@YGXH@Z    10194b20 f   nafxcwd:afxcrit.obj
 0002:0010dc30       ?AfxUnlockGlobals@@YGXH@Z  10194c30 f   nafxcwd:afxcrit.obj
 0002:0010dd80       ?_AfxInitDBCS@@YGHXZ       10194d80 f   nafxcwd:afxdbcs.obj
 0002:0010ddf0       ?CreateObject@CMenu@@SGPAVCObject@@XZ 10194df0 f   nafxcwd:winmenu.obj
 0002:0010de60       ?GetRuntimeClass@CMenu@@UBEPAUCRuntimeClass@@XZ 10194e60 f   nafxcwd:winmenu.obj
 0002:0010de90       ?Construct@?$ConstructDestruct@VCMenu@@@@SGXPAVCObject@@@Z 10194e90 f i nafxcwd:winmenu.obj
 0002:0010df10       ?Destruct@?$ConstructDestruct@VCMenu@@@@SGXPAVCObject@@@Z 10194f10 f i nafxcwd:winmenu.obj
 0002:0010df40       ?GetRuntimeClass@CMapPtrToPtr@@UBEPAUCRuntimeClass@@XZ 10194f40 f   nafxcwd:map_pp.obj
 0002:0010df60       ??0AUX_DATA@@QAE@XZ        10194f60 f   nafxcwd:auxdata.obj
 0002:0010e0c0       ?GetRuntimeClass@CPtrList@@UBEPAUCRuntimeClass@@XZ 101950c0 f   nafxcwd:list_p.obj
 0002:0010e0e0       ?GetRuntimeClass@CCheckListBox@@UBEPAUCRuntimeClass@@XZ 101950e0 f   nafxcwd:winctrl3.obj
 0002:0010e100       ??B?$CProcessLocal@V_AFX_CHECKLIST_STATE@@@@QAEPAV_AFX_CHECKLIST_STATE@@XZ 10195100 f i nafxcwd:winctrl3.obj
 0002:0010e120       ?GetData@?$CProcessLocal@V_AFX_CHECKLIST_STATE@@@@QAEPAV_AFX_CHECKLIST_STATE@@XZ 10195120 f i nafxcwd:winctrl3.obj
 0002:0010e170       ?CreateObject@?$CProcessLocal@V_AFX_CHECKLIST_STATE@@@@SGPAVCNoTrackObject@@XZ 10195170 f i nafxcwd:winctrl3.obj
 0002:0010e230       ??1?$CProcessLocal@V_AFX_CHECKLIST_STATE@@@@QAE@XZ 10195230 f i nafxcwd:winctrl3.obj
 0002:0010e250       ?GetRuntimeClass@CArchiveException@@UBEPAUCRuntimeClass@@XZ 10195250 f   nafxcwd:arcex.obj
 0002:0010e270       ?GetRuntimeClass@CFileException@@UBEPAUCRuntimeClass@@XZ 10195270 f   nafxcwd:filex.obj
 0002:0010e290       ?CreateObject@CByteArray@@SGPAVCObject@@XZ 10195290 f   nafxcwd:array_b.obj
 0002:0010e300       ?GetRuntimeClass@CByteArray@@UBEPAUCRuntimeClass@@XZ 10195300 f   nafxcwd:array_b.obj
 0002:0010e310       ??5@YGAAVCArchive@@AAV0@AAPAVCByteArray@@@Z 10195310 f   nafxcwd:array_b.obj
 0002:0010e380       ?CreateObject@CWordArray@@SGPAVCObject@@XZ 10195380 f   nafxcwd:array_w.obj
 0002:0010e3f0       ?GetRuntimeClass@CWordArray@@UBEPAUCRuntimeClass@@XZ 101953f0 f   nafxcwd:array_w.obj
 0002:0010e400       ??5@YGAAVCArchive@@AAV0@AAPAVCWordArray@@@Z 10195400 f   nafxcwd:array_w.obj
 0002:0010e470       ?CreateObject@CDWordArray@@SGPAVCObject@@XZ 10195470 f   nafxcwd:array_d.obj
 0002:0010e4e0       ?GetRuntimeClass@CDWordArray@@UBEPAUCRuntimeClass@@XZ 101954e0 f   nafxcwd:array_d.obj
 0002:0010e4f0       ??5@YGAAVCArchive@@AAV0@AAPAVCDWordArray@@@Z 101954f0 f   nafxcwd:array_d.obj
 0002:0010e560       ?GetRuntimeClass@CUIntArray@@UBEPAUCRuntimeClass@@XZ 10195560 f   nafxcwd:array_u.obj
 0002:0010e580       ?GetRuntimeClass@CPtrArray@@UBEPAUCRuntimeClass@@XZ 10195580 f   nafxcwd:array_p.obj
 0002:0010e5a0       ?CreateObject@CObArray@@SGPAVCObject@@XZ 101955a0 f   nafxcwd:array_o.obj
 0002:0010e610       ?GetRuntimeClass@CObArray@@UBEPAUCRuntimeClass@@XZ 10195610 f   nafxcwd:array_o.obj
 0002:0010e620       ??5@YGAAVCArchive@@AAV0@AAPAVCObArray@@@Z 10195620 f   nafxcwd:array_o.obj
 0002:0010e690       ?CreateObject@CStringArray@@SGPAVCObject@@XZ 10195690 f   nafxcwd:array_s.obj
 0002:0010e700       ?GetRuntimeClass@CStringArray@@UBEPAUCRuntimeClass@@XZ 10195700 f   nafxcwd:array_s.obj
 0002:0010e710       ??5@YGAAVCArchive@@AAV0@AAPAVCStringArray@@@Z 10195710 f   nafxcwd:array_s.obj
 0002:0010e780       ?GetRuntimeClass@CMapWordToPtr@@UBEPAUCRuntimeClass@@XZ 10195780 f   nafxcwd:map_wp.obj
 0002:0010e7a0       ?GetRuntimeClass@CMapPtrToWord@@UBEPAUCRuntimeClass@@XZ 101957a0 f   nafxcwd:map_pw.obj
 0002:0010e7c0       ?CreateObject@CMapWordToOb@@SGPAVCObject@@XZ 101957c0 f   nafxcwd:map_wo.obj
 0002:0010e830       ?GetRuntimeClass@CMapWordToOb@@UBEPAUCRuntimeClass@@XZ 10195830 f   nafxcwd:map_wo.obj
 0002:0010e840       ??5@YGAAVCArchive@@AAV0@AAPAVCMapWordToOb@@@Z 10195840 f   nafxcwd:map_wo.obj
 0002:0010e8b0       ?GetRuntimeClass@CMapStringToPtr@@UBEPAUCRuntimeClass@@XZ 101958b0 f   nafxcwd:map_sp.obj
 0002:0010e8d0       ?CreateObject@CMapStringToOb@@SGPAVCObject@@XZ 101958d0 f   nafxcwd:map_so.obj
 0002:0010e940       ?GetRuntimeClass@CMapStringToOb@@UBEPAUCRuntimeClass@@XZ 10195940 f   nafxcwd:map_so.obj
 0002:0010e950       ??5@YGAAVCArchive@@AAV0@AAPAVCMapStringToOb@@@Z 10195950 f   nafxcwd:map_so.obj
 0002:0010e9c0       ?CreateObject@CMapStringToString@@SGPAVCObject@@XZ 101959c0 f   nafxcwd:map_ss.obj
 0002:0010ea30       ?GetRuntimeClass@CMapStringToString@@UBEPAUCRuntimeClass@@XZ 10195a30 f   nafxcwd:map_ss.obj
 0002:0010ea40       ??5@YGAAVCArchive@@AAV0@AAPAVCMapStringToString@@@Z 10195a40 f   nafxcwd:map_ss.obj
 0002:0010eab0       ?GetRuntimeClass@CFileDialog@@UBEPAUCRuntimeClass@@XZ 10195ab0 f   nafxcwd:dlgfile.obj
 0002:0010ead0       ??HATL@@YA?AV?$CStringT@DV?$StrTraitMFC@DV?$ChTraitsCRT@D@ATL@@@@@0@ABV10@0@Z 10195ad0 f i nafxcwd:dlgfile.obj
 0002:0010eba0       ?GetRuntimeClass@CPropertyPage@@UBEPAUCRuntimeClass@@XZ 10195ba0 f   nafxcwd:dlgprop.obj
 0002:0010ebb0       ?GetRuntimeClass@CPropertySheet@@UBEPAUCRuntimeClass@@XZ 10195bb0 f   nafxcwd:dlgprop.obj
 0002:0010ebd0       ??9ATL@@YA_NABV?$CStringT@DV?$StrTraitMFC@DV?$ChTraitsCRT@D@ATL@@@@@0@0@Z 10195bd0 f i nafxcwd:dlgprop.obj
 0002:0010ec00       ??0CControlBar@@IAE@XZ     10195c00 f   nafxcwd:barcore.obj
 0002:0010ece0       ?SetInPlaceOwner@CControlBar@@QAEXPAVCWnd@@@Z 10195ce0 f   nafxcwd:barcore.obj
 0002:0010ed00       ?SetBorders@CControlBar@@QAEXHHHH@Z 10195d00 f   nafxcwd:barcore.obj
 0002:0010ed90       ?PreCreateWindow@CControlBar@@UAEHAAUtagCREATESTRUCTA@@@Z 10195d90 f   nafxcwd:barcore.obj
 0002:0010ee80       ?SetBarStyle@CControlBar@@QAEXK@Z 10195e80 f   nafxcwd:barcore.obj
 0002:0010ef00       ?OnBarStyleChange@CControlBar@@UAEXKK@Z 10195f00 f   nafxcwd:barcore.obj
 0002:0010ef10       ?AllocElements@CControlBar@@QAEHHH@Z 10195f10 f   nafxcwd:barcore.obj
 0002:0010f0e0       ?_AfxGetComCtlVersion@@YGKXZ 101960e0 f   nafxcwd:bartool.obj
 0002:0010f1e0       ?_AfxGetDropDownWidth@@YGHXZ 101961e0 f   nafxcwd:bartool.obj
 0002:0010f2f0       ??0CToolBar@@QAE@XZ        101962f0 f   nafxcwd:bartool.obj
 0002:0010f3f0       ??1CToolBar@@UAE@XZ        101963f0 f   nafxcwd:bartool.obj
 0002:0010f490       ?Create@CToolBar@@UAEHPAVCWnd@@KI@Z 10196490 f   nafxcwd:bartool.obj
 0002:0010f500       ?CreateEx@CToolBar@@UAEHPAVCWnd@@KKVCRect@@I@Z 10196500 f   nafxcwd:bartool.obj
 0002:0010f690       ?OnNcCreate@CToolBar@@IAEHPAUtagCREATESTRUCTA@@@Z 10196690 f   nafxcwd:bartool.obj
 0002:0010f700       ?SetOwner@CToolBar@@QAEXPAVCWnd@@@Z 10196700 f   nafxcwd:bartool.obj
 0002:0010f780       ?SetSizes@CToolBar@@QAEXUtagSIZE@@0@Z 10196780 f   nafxcwd:bartool.obj
 0002:0010f920       ?SetHeight@CToolBar@@QAEXH@Z 10196920 f   nafxcwd:bartool.obj
 0002:0010fa20       ?LoadToolBar@CToolBar@@QAEHPBD@Z 10196a20 f   nafxcwd:bartool.obj
 0002:0010fc00       ?LoadBitmapA@CToolBar@@QAEHPBD@Z 10196c00 f   nafxcwd:bartool.obj
 0002:0010fcb0       ?SetBitmap@CToolBar@@QAEHPAUHBITMAP__@@@Z 10196cb0 f   nafxcwd:bartool.obj
 0002:0010fd10       ?AddReplaceBitmap@CToolBar@@QAEHPAUHBITMAP__@@@Z 10196d10 f   nafxcwd:bartool.obj
 0002:0010fe00       ?SetButtons@CToolBar@@QAEHPBIH@Z 10196e00 f   nafxcwd:bartool.obj
 0002:00110060       ?GetRuntimeClass@CToolBar@@UBEPAUCRuntimeClass@@XZ 10197060 f   nafxcwd:bartool.obj
 0002:00110460       ??_ECToolBar@@UAEPAXI@Z    10197460 f i nafxcwd:bartool.obj
 0002:00110460       ??_GCToolBar@@UAEPAXI@Z    10197460 f i nafxcwd:bartool.obj
 0002:001104a0       ?items@CToolBarData@@QAEPAGXZ 101974a0 f i nafxcwd:bartool.obj
 0002:001104c0       ??0?$CStringT@DV?$StrTraitMFC@DV?$ChTraitsCRT@D@ATL@@@@@ATL@@QAE@PBDH@Z 101974c0 f i nafxcwd:bartool.obj
 0002:001104f0       ?GetRuntimeClass@CBitmapButton@@UBEPAUCRuntimeClass@@XZ 101974f0 f   nafxcwd:winbtn.obj
 0002:00110510       ?AfxBSTR2CString@@YGXPAV?$CStringT@DV?$StrTraitMFC@DV?$ChTraitsCRT@D@ATL@@@@@ATL@@PA_W@Z 10197510 f   nafxcwd:olecnvrt.obj
 0002:001105b0       ?AfxBSTR2ABSTR@@YGPA_WPA_W@Z 101975b0 f   nafxcwd:olecnvrt.obj
 0002:00110640       ?AfxTaskStringA2W@@YGPA_WPBD@Z 10197640 f   nafxcwd:olecnvrt.obj
 0002:00110670       ?AfxTaskStringW2A@@YGPADPB_W@Z 10197670 f   nafxcwd:olecnvrt.obj
 0002:001106a0       ?AfxDevModeA2W@@YGPAU_devicemodeW@@PAU1@PAU_devicemodeA@@@Z 101976a0 f   nafxcwd:olecnvrt.obj
 0002:00110760       ?AfxDevModeW2A@@YGPAU_devicemodeA@@PAU1@PAU_devicemodeW@@@Z 10197760 f   nafxcwd:olecnvrt.obj
 0002:00110820       ?AfxTextMetricA2W@@YGPAUtagTEXTMETRICW@@PAU1@PAUtagTEXTMETRICA@@@Z 10197820 f   nafxcwd:olecnvrt.obj
 0002:001108f0       ?AfxTextMetricW2A@@YGPAUtagTEXTMETRICA@@PAU1@PAUtagTEXTMETRICW@@@Z 101978f0 f   nafxcwd:olecnvrt.obj
 0002:00110b00       ?CreateObject@CFrameWnd@@SGPAVCObject@@XZ 10197b00 f   nafxcwd:winfrm.obj
 0002:00110b80       ?GetRuntimeClass@CFrameWnd@@UBEPAUCRuntimeClass@@XZ 10197b80 f   nafxcwd:winfrm.obj
 0002:00110b90       ?GetRuntimeClass@CView@@UBEPAUCRuntimeClass@@XZ 10197b90 f   nafxcwd:winfrm.obj
 0002:00110ba0       ?GetRuntimeClass@CControlBar@@UBEPAUCRuntimeClass@@XZ 10197ba0 f   nafxcwd:winfrm.obj
 0002:00110be0       ?AddHead@?$CTypedSimpleList@PAVCFrameWnd@@@@QAEXPAVCFrameWnd@@@Z 10197be0 f i nafxcwd:winfrm.obj
 0002:00110c00       ?Remove@?$CTypedSimpleList@PAVCFrameWnd@@@@QAEHPAVCFrameWnd@@@Z 10197c00 f i nafxcwd:winfrm.obj
 0002:00110c20       ?SetRegistryKey@CWinApp@@IAEXPBD@Z 10197c20 f   nafxcwd:appui3.obj
 0002:00110ce0       ?SetRegistryKey@CWinApp@@IAEXI@Z 10197ce0 f   nafxcwd:appui3.obj
 0002:00110d60       ?GetAppRegistryKey@CWinApp@@QAEPAUHKEY__@@XZ 10197d60 f   nafxcwd:appui3.obj
 0002:00110e50       ?GetSectionKey@CWinApp@@QAEPAUHKEY__@@PBD@Z 10197e50 f   nafxcwd:appui3.obj
 0002:00110ed0       ?GetProfileIntA@CWinApp@@QAEIPBD0H@Z 10197ed0 f   nafxcwd:appui3.obj
 0002:00110fe0       ?GetProfileStringA@CWinApp@@QAE?AV?$CStringT@DV?$StrTraitMFC@DV?$ChTraitsCRT@D@ATL@@@@@ATL@@PBD00@Z 10197fe0 f   nafxcwd:appui3.obj
 0002:00111260       ?GetProfileBinary@CWinApp@@QAEHPBD0PAPAEPAI@Z 10198260 f   nafxcwd:appui3.obj
 0002:00111790       ?GetRuntimeClass@CDocTemplate@@UBEPAUCRuntimeClass@@XZ 10198790 f   nafxcwd:doctempl.obj
 0002:001117b0       ?GetRuntimeClass@CFile@@UBEPAUCRuntimeClass@@XZ 101987b0 f   nafxcwd:filecore.obj
 0002:001117d0       ?_AfxDeleteRegKey@@YGHPBD@Z 101987d0 f   nafxcwd:docmgr.obj
 0002:001118d0       ?_AfxSetRegKey@@YGHPBD00@Z 101988d0 f   nafxcwd:docmgr.obj
 0002:001119d0       ??0CDocManager@@QAE@XZ     101989d0 f   nafxcwd:docmgr.obj
 0002:00111a30       ?UnregisterShellFileTypes@CDocManager@@QAEXXZ 10198a30 f   nafxcwd:docmgr.obj
 0002:00111e10       ?RegisterShellFileTypes@CDocManager@@UAEXH@Z 10198e10 f   nafxcwd:docmgr.obj
 0002:00112720       ?GetRuntimeClass@CDocManager@@UBEPAUCRuntimeClass@@XZ 10199720 f   nafxcwd:docmgr.obj
 0002:00112b10       ??_ECDocManager@@UAEPAXI@Z 10199b10 f i nafxcwd:docmgr.obj
 0002:00112b10       ??_GCDocManager@@UAEPAXI@Z 10199b10 f i nafxcwd:docmgr.obj
 0002:00112b50       ?Tokenize@?$CStringT@DV?$StrTraitMFC@DV?$ChTraitsCRT@D@ATL@@@@@ATL@@QBE?AV12@PBDAAH@Z 10199b50 f i nafxcwd:docmgr.obj
 0002:00112cf0       ?Find@?$CStringT@DV?$StrTraitMFC@DV?$ChTraitsCRT@D@ATL@@@@@ATL@@QBEHDH@Z 10199cf0 f i nafxcwd:docmgr.obj
 0002:00112db0       ?Mid@?$CStringT@DV?$StrTraitMFC@DV?$ChTraitsCRT@D@ATL@@@@@ATL@@QBE?AV12@H@Z 10199db0 f i nafxcwd:docmgr.obj
 0002:00112e00       ?Right@?$CStringT@DV?$StrTraitMFC@DV?$ChTraitsCRT@D@ATL@@@@@ATL@@QBE?AV12@H@Z 10199e00 f i nafxcwd:docmgr.obj
 0002:00112ea0       ??8ATL@@YA_NABV?$CStringT@DV?$StrTraitMFC@DV?$ChTraitsCRT@D@ATL@@@@@0@0@Z 10199ea0 f i nafxcwd:docmgr.obj
 0002:00112ed0       ?SetAt@?$CSimpleStringT@D$0A@@ATL@@QAEXHD@Z 10199ed0 f i nafxcwd:docmgr.obj
 0002:00112f80       ?Mid@?$CStringT@DV?$StrTraitMFC@DV?$ChTraitsCRT@D@ATL@@@@@ATL@@QBE?AV12@HH@Z 10199f80 f i nafxcwd:docmgr.obj
 0002:001130c0       ?StringFindChar@?$ChTraitsCRT@D@ATL@@SAPBDPBDD@Z 1019a0c0 f i nafxcwd:docmgr.obj
 0002:001130e0       ?StringSpanIncluding@?$ChTraitsCRT@D@ATL@@SAHPBD0@Z 1019a0e0 f i nafxcwd:docmgr.obj
 0002:00113100       ?StringSpanExcluding@?$ChTraitsCRT@D@ATL@@SAHPBD0@Z 1019a100 f i nafxcwd:docmgr.obj
 0002:00113120       ?GetRuntimeClass@CColorDialog@@UBEPAUCRuntimeClass@@XZ 1019a120 f   nafxcwd:dlgclr.obj
 0002:00113140       ??C?$CProcessLocal@V_AFX_COLOR_STATE@@@@QAEPAV_AFX_COLOR_STATE@@XZ 1019a140 f i nafxcwd:dlgclr.obj
 0002:00113160       ?GetData@?$CProcessLocal@V_AFX_COLOR_STATE@@@@QAEPAV_AFX_COLOR_STATE@@XZ 1019a160 f i nafxcwd:dlgclr.obj
 0002:001131b0       ?CreateObject@?$CProcessLocal@V_AFX_COLOR_STATE@@@@SGPAVCNoTrackObject@@XZ 1019a1b0 f i nafxcwd:dlgclr.obj
 0002:00113270       ??1?$CProcessLocal@V_AFX_COLOR_STATE@@@@QAE@XZ 1019a270 f i nafxcwd:dlgclr.obj
 0002:00113290       ?AfxGetPropSheetFont@@YGHAAV?$CStringT@DV?$StrTraitMFC@DV?$ChTraitsCRT@D@ATL@@@@@ATL@@AAGH@Z 1019a290 f   nafxcwd:ccdata.obj
 0002:00113570       ?GetData@?$CProcessLocal@U_AFX_PROPPAGEFONTINFO@@@@QAEPAU_AFX_PROPPAGEFONTINFO@@XZ 1019a570 f i nafxcwd:ccdata.obj
 0002:001135c0       ?CreateObject@?$CProcessLocal@U_AFX_PROPPAGEFONTINFO@@@@SGPAVCNoTrackObject@@XZ 1019a5c0 f i nafxcwd:ccdata.obj
 0002:00113640       ??0_AFX_PROPPAGEFONTINFO@@QAE@XZ 1019a640 f i nafxcwd:ccdata.obj
 0002:00113680       ??_G_AFX_PROPPAGEFONTINFO@@UAEPAXI@Z 1019a680 f i nafxcwd:ccdata.obj
 0002:00113680       ??_E_AFX_PROPPAGEFONTINFO@@UAEPAXI@Z 1019a680 f i nafxcwd:ccdata.obj
 0002:001136c0       ??1_AFX_PROPPAGEFONTINFO@@UAE@XZ 1019a6c0 f i nafxcwd:ccdata.obj
 0002:00113740       ??1?$CProcessLocal@U_AFX_PROPPAGEFONTINFO@@@@QAE@XZ 1019a740 f i nafxcwd:ccdata.obj
 0002:00113760       ?GetRuntimeClass@CDragListBox@@UBEPAUCRuntimeClass@@XZ 1019a760 f   nafxcwd:winctrl2.obj
 0002:00113770       ?GetRuntimeClass@CSpinButtonCtrl@@UBEPAUCRuntimeClass@@XZ 1019a770 f   nafxcwd:winctrl2.obj
 0002:00113780       ?GetRuntimeClass@CSliderCtrl@@UBEPAUCRuntimeClass@@XZ 1019a780 f   nafxcwd:winctrl2.obj
 0002:00113790       ?GetRuntimeClass@CProgressCtrl@@UBEPAUCRuntimeClass@@XZ 1019a790 f   nafxcwd:winctrl2.obj
 0002:001137a0       ?GetRuntimeClass@CComboBoxEx@@UBEPAUCRuntimeClass@@XZ 1019a7a0 f   nafxcwd:winctrl2.obj
 0002:001137b0       ?GetRuntimeClass@CHeaderCtrl@@UBEPAUCRuntimeClass@@XZ 1019a7b0 f   nafxcwd:winctrl2.obj
 0002:001137c0       ?GetRuntimeClass@CHotKeyCtrl@@UBEPAUCRuntimeClass@@XZ 1019a7c0 f   nafxcwd:winctrl2.obj
 0002:001137d0       ?GetRuntimeClass@CAnimateCtrl@@UBEPAUCRuntimeClass@@XZ 1019a7d0 f   nafxcwd:winctrl2.obj
 0002:001137e0       ?GetRuntimeClass@CTabCtrl@@UBEPAUCRuntimeClass@@XZ 1019a7e0 f   nafxcwd:winctrl2.obj
 0002:001137f0       ?GetRuntimeClass@CTreeCtrl@@UBEPAUCRuntimeClass@@XZ 1019a7f0 f   nafxcwd:winctrl2.obj
 0002:00113800       ?GetRuntimeClass@CListCtrl@@UBEPAUCRuntimeClass@@XZ 1019a800 f   nafxcwd:winctrl2.obj
 0002:00113810       ?GetRuntimeClass@CToolBarCtrl@@UBEPAUCRuntimeClass@@XZ 1019a810 f   nafxcwd:winctrl2.obj
 0002:00113820       ?GetRuntimeClass@CStatusBarCtrl@@UBEPAUCRuntimeClass@@XZ 1019a820 f   nafxcwd:winctrl2.obj
 0002:00113830       ?CreateObject@CImageList@@SGPAVCObject@@XZ 1019a830 f   nafxcwd:winctrl2.obj
 0002:001138a0       ?GetRuntimeClass@CImageList@@UBEPAUCRuntimeClass@@XZ 1019a8a0 f   nafxcwd:winctrl2.obj
 0002:001138b0       ?GetRuntimeClass@CRichEditCtrl@@UBEPAUCRuntimeClass@@XZ 1019a8b0 f   nafxcwd:winctrl2.obj
 0002:00113920       ?Construct@?$ConstructDestruct@VCImageList@@@@SGXPAVCObject@@@Z 1019a920 f i nafxcwd:winctrl2.obj
 0002:001139a0       ?Destruct@?$ConstructDestruct@VCImageList@@@@SGXPAVCObject@@@Z 1019a9a0 f i nafxcwd:winctrl2.obj
 0002:001139d0       ?GetRuntimeClass@CToolTipCtrl@@UBEPAUCRuntimeClass@@XZ 1019a9d0 f   nafxcwd:tooltip.obj
 0002:001139f0       ?GetRuntimeClass@CIPAddressCtrl@@UBEPAUCRuntimeClass@@XZ 1019a9f0 f   nafxcwd:winctrl6.obj
 0002:00113a00       ?GetRuntimeClass@CReBarCtrl@@UBEPAUCRuntimeClass@@XZ 1019aa00 f   nafxcwd:winctrl6.obj
 0002:00113a10       ?GetRuntimeClass@CLinkCtrl@@UBEPAUCRuntimeClass@@XZ 1019aa10 f   nafxcwd:winctrl6.obj
 0002:00113a30       ?GetRuntimeClass@CReBar@@UBEPAUCRuntimeClass@@XZ 1019aa30 f   nafxcwd:barcool.obj
 0002:00113a50       ?GetRuntimeClass@CDocument@@UBEPAUCRuntimeClass@@XZ 1019aa50 f   nafxcwd:doccore.obj
 0002:00113a70       ?FindOneOf@?$CStringT@DV?$StrTraitMFC@DV?$ChTraitsCRT@D@ATL@@@@@ATL@@QBEHPBD@Z 1019aa70 f i nafxcwd:doccore.obj
 0002:00113b10       ?StringScanSet@?$ChTraitsCRT@D@ATL@@SAPBDPBD0@Z 1019ab10 f i nafxcwd:doccore.obj
 0002:00113b30       ?GetRuntimeClass@COleDispatchException@@UBEPAUCRuntimeClass@@XZ 1019ab30 f   nafxcwd:oledisp1.obj
 0002:00113b50       ?GetRuntimeClass@CDockBar@@UBEPAUCRuntimeClass@@XZ 1019ab50 f   nafxcwd:bardock.obj
 0002:00113b60       ?CreateObject@CMiniDockFrameWnd@@SGPAVCObject@@XZ 1019ab60 f   nafxcwd:bardock.obj
 0002:00113be0       ?GetRuntimeClass@CMiniDockFrameWnd@@UBEPAUCRuntimeClass@@XZ 1019abe0 f   nafxcwd:bardock.obj
 0002:00113c20       ?CreateObject@CMiniFrameWnd@@SGPAVCObject@@XZ 1019ac20 f   nafxcwd:winmini.obj
 0002:00113ca0       ?GetRuntimeClass@CMiniFrameWnd@@UBEPAUCRuntimeClass@@XZ 1019aca0 f   nafxcwd:winmini.obj
 0002:00113ce0       ?CreateObject@CEditView@@SGPAVCObject@@XZ 1019ace0 f   nafxcwd:viewedit.obj
 0002:00113d60       ?GetRuntimeClass@CEditView@@UBEPAUCRuntimeClass@@XZ 1019ad60 f   nafxcwd:viewedit.obj
 0002:00113da0       ??B?$CProcessLocal@V_AFX_EDIT_STATE@@@@QAEPAV_AFX_EDIT_STATE@@XZ 1019ada0 f i nafxcwd:viewedit.obj
 0002:00113dc0       ?GetData@?$CProcessLocal@V_AFX_EDIT_STATE@@@@QAEPAV_AFX_EDIT_STATE@@XZ 1019adc0 f i nafxcwd:viewedit.obj
 0002:00113e10       ?CreateObject@?$CProcessLocal@V_AFX_EDIT_STATE@@@@SGPAVCNoTrackObject@@XZ 1019ae10 f i nafxcwd:viewedit.obj
 0002:00113ed0       ??1?$CProcessLocal@V_AFX_EDIT_STATE@@@@QAE@XZ 1019aed0 f i nafxcwd:viewedit.obj
 0002:00113ef0       ?GetRuntimeClass@CSplitterWnd@@UBEPAUCRuntimeClass@@XZ 1019aef0 f   nafxcwd:viewcore.obj
 0002:00113f00       ?GetRuntimeClass@CCtrlView@@UBEPAUCRuntimeClass@@XZ 1019af00 f   nafxcwd:viewcore.obj
 0002:00113f20       ?GetRuntimeClass@CFindReplaceDialog@@UBEPAUCRuntimeClass@@XZ 1019af20 f   nafxcwd:dlgfr.obj
 0002:00113f40       ?GetRuntimeClass@CPrintDialog@@UBEPAUCRuntimeClass@@XZ 1019af40 f   nafxcwd:dlgprnt.obj
 0002:00113f50       ?GetRuntimeClass@CPageSetupDialog@@UBEPAUCRuntimeClass@@XZ 1019af50 f   nafxcwd:dlgprnt.obj
 0002:001151f0       ?AfxGetScodeString@@YGPBDJ@Z 1019c1f0 f   nafxcwd:olemisc.obj
 0002:00115240       ?AfxGetScodeRangeString@@YGPBDJ@Z 1019c240 f   nafxcwd:olemisc.obj
 0002:001152a0       ?AfxGetSeverityString@@YGPBDJ@Z 1019c2a0 f   nafxcwd:olemisc.obj
 0002:001152c0       ?AfxGetFacilityString@@YGPBDJ@Z 1019c2c0 f   nafxcwd:olemisc.obj
 0002:00115300       ?AfxGetFullScodeString@@YGPBDJ@Z 1019c300 f   nafxcwd:olemisc.obj
 0002:00115400       ?AfxThrowOleException@@YGXJ@Z 1019c400 f   nafxcwd:olemisc.obj
 0002:001154d0       ?GetErrorMessage@COleException@@UAEHPADIPAI@Z 1019c4d0 f   nafxcwd:olemisc.obj
 0002:00115570       ?Process@COleException@@SGJPBVCException@@@Z 1019c570 f   nafxcwd:olemisc.obj
 0002:001155e0       ?AfxMergeMenus@@YGPAUHMENU__@@PAU1@0PAJHH@Z 1019c5e0 f   nafxcwd:olemisc.obj
 0002:00115970       ?AfxUnmergeMenus@@YGXPAUHMENU__@@00@Z 1019c970 f   nafxcwd:olemisc.obj
 0002:00115af0       ?_AfxFillFormatEtc@@YGPAUtagFORMATETC@@PAU1@G0@Z 1019caf0 f   nafxcwd:olemisc.obj
 0002:00115b60       ?_AfxCopyGlobalMemory@@YGPAXPAX0@Z 1019cb60 f   nafxcwd:olemisc.obj
 0002:00115c50       ?_AfxCopyStgMedium@@YGHGPAUtagSTGMEDIUM@@0@Z 1019cc50 f   nafxcwd:olemisc.obj
 0002:00116320       ?_AfxOleGetObjectDescriptorData@@YGPAXU_GUID@@KUtagSIZE@@U_POINTL@@KPB_W3@Z 1019d320 f   nafxcwd:olemisc.obj
 0002:001164a0       ?_AfxOleGetObjectDescriptorData@@YGPAXPAUIOleObject@@PB_WKU_POINTL@@PAUtagSIZE@@@Z 1019d4a0 f   nafxcwd:olemisc.obj
 0002:001168d0       ?_AfxOleDoConvert@@YGJPAUIStorage@@ABU_GUID@@@Z 1019d8d0 f   nafxcwd:olemisc.obj
 0002:00116a30       ?_AfxOleDoTreatAsClass@@YGJPBDABU_GUID@@1@Z 1019da30 f   nafxcwd:olemisc.obj
 0002:00116ae0       ?_AfxOleCreateTargetDevice@@YGPAUtagDVTARGETDEVICE@@PAUtagDEVNAMES@@PAU_devicemodeA@@@Z 1019dae0 f   nafxcwd:olemisc.obj
 0002:00116e40       ?_AfxOleCreateTargetDevice@@YGPAUtagDVTARGETDEVICE@@PAUtagPDA@@@Z 1019de40 f   nafxcwd:olemisc.obj
 0002:00116ed0       ?_AfxOleGetFirstMoniker@@YGPAUIMoniker@@PAU1@@Z 1019ded0 f   nafxcwd:olemisc.obj
 0002:00116fa0       ?_AfxOleGetLenFilePrefixOfMoniker@@YGKPAUIMoniker@@@Z 1019dfa0 f   nafxcwd:olemisc.obj
 0002:00117110       ?_AfxOleCopyTargetDevice@@YGPAUtagDVTARGETDEVICE@@PAU1@@Z 1019e110 f   nafxcwd:olemisc.obj
 0002:00117160       ?_AfxOleCopyFormatEtc@@YGXPAUtagFORMATETC@@0@Z 1019e160 f   nafxcwd:olemisc.obj
 0002:001171e0       ?_AfxOleCreateDC@@YGPAUHDC__@@PAUtagDVTARGETDEVICE@@@Z 1019e1e0 f   nafxcwd:olemisc.obj
 0002:001173b0       ?_AfxDeleteMetafilePict@@YGXPAX@Z 1019e3b0 f   nafxcwd:olemisc.obj
 0002:001173e0       ?_AfxXformSizeInPixelsToHimetric@@YGXPAUHDC__@@PAUtagSIZE@@1@Z 1019e3e0 f   nafxcwd:olemisc.obj
 0002:00117470       ?_AfxXformSizeInHimetricToPixels@@YGXPAUHDC__@@PAUtagSIZE@@1@Z 1019e470 f   nafxcwd:olemisc.obj
 0002:00117dc0       ?AfxGetIIDString@@YGPBDABU_GUID@@@Z 1019edc0 f   nafxcwd:oleunk.obj
 0002:00117fe0       ?_AfxQueryInterface@@YGPAUIUnknown@@PAU1@ABU_GUID@@@Z 1019efe0 f   nafxcwd:oleunk.obj
 0002:00118030       ?_AfxRelease@@YGKPAPAUIUnknown@@@Z 1019f030 f   nafxcwd:oleunk.obj
 0002:00118080       ?EnableAggregation@CCmdTarget@@QAEXXZ 1019f080 f   nafxcwd:oleunk.obj
 0002:001180a0       ?ExternalAddRef@CCmdTarget@@QAEKXZ 1019f0a0 f   nafxcwd:oleunk.obj
 0002:001180d0       ?InternalRelease@CCmdTarget@@QAEKXZ 1019f0d0 f   nafxcwd:oleunk.obj
 0002:00118140       ?ExternalRelease@CCmdTarget@@QAEKXZ 1019f140 f   nafxcwd:oleunk.obj
 0002:00118170       ?GetInterface@CCmdTarget@@QAEPAUIUnknown@@PBX@Z 1019f170 f   nafxcwd:oleunk.obj
 0002:00118470       ?QueryAggregates@CCmdTarget@@QAEPAUIUnknown@@PBX@Z 1019f470 f   nafxcwd:oleunk.obj
 0002:00118550       ?InternalQueryInterface@CCmdTarget@@QAEKPBXPAPAX@Z 1019f550 f   nafxcwd:oleunk.obj
 0002:001185b0       ?ExternalQueryInterface@CCmdTarget@@QAEKPBXPAPAX@Z 1019f5b0 f   nafxcwd:oleunk.obj
 0002:00118680       ?AddRef@CInnerUnknown@@UAGKXZ 1019f680 f   nafxcwd:oleunk.obj
 0002:001186a0       ?Release@CInnerUnknown@@UAGKXZ 1019f6a0 f   nafxcwd:oleunk.obj
 0002:001186c0       ?QueryInterface@CInnerUnknown@@UAGJABU_GUID@@PAPAX@Z 1019f6c0 f   nafxcwd:oleunk.obj
 0002:00118710       ?ExternalDisconnect@CCmdTarget@@QAEXXZ 1019f710 f   nafxcwd:oleunk.obj
 0002:00118780       ?GetControllingUnknown@CCmdTarget@@QAEPAUIUnknown@@XZ 1019f780 f   nafxcwd:oleunk.obj
 0002:001187c0       ??0COleException@@QAE@XZ   1019f7c0 f   nafxcwd:oleunk.obj
 0002:001187f0       ??1COleException@@UAE@XZ   1019f7f0 f   nafxcwd:oleunk.obj
 0002:00118810       ?InternalAddRef@CCmdTarget@@QAEKXZ 1019f810 f   nafxcwd:oleunk.obj
 0002:00118850       ?IsRegistered@COleObjectFactory@@UBEHXZ 1019f850 f   nafxcwd:oleunk.obj
 0002:00118880       ?GetClassID@COleObjectFactory@@QBEABU_GUID@@XZ 1019f880 f   nafxcwd:oleunk.obj
 0002:001188b0       ??1COleDispatchDriver@@QAE@XZ 1019f8b0 f   nafxcwd:oleunk.obj
 0002:001188d0       ??BCOleDispatchDriver@@QAEPAUIDispatch@@XZ 1019f8d0 f   nafxcwd:oleunk.obj
 0002:001188e0       ??0COleVariant@@QAE@XZ     1019f8e0 f   nafxcwd:oleunk.obj
 0002:00118900       ??1COleVariant@@QAE@XZ     1019f900 f   nafxcwd:oleunk.obj
 0002:00118930       ?Clear@COleVariant@@QAEXXZ 1019f930 f   nafxcwd:oleunk.obj
 0002:00118960       ??0COleVariant@@QAE@PBD@Z  1019f960 f   nafxcwd:oleunk.obj
 0002:00118990       ??0COleVariant@@QAE@AAV?$CStringT@DV?$StrTraitMFC@DV?$ChTraitsCRT@D@ATL@@@@@ATL@@@Z 1019f990 f   nafxcwd:oleunk.obj
 0002:001189c0       ??0COleVariant@@QAE@E@Z    1019f9c0 f   nafxcwd:oleunk.obj
 0002:001189f0       ??0COleVariant@@QAE@ABVCOleCurrency@@@Z 1019f9f0 f   nafxcwd:oleunk.obj
 0002:00118a20       ??0COleVariant@@QAE@M@Z    1019fa20 f   nafxcwd:oleunk.obj
 0002:00118a50       ??0COleVariant@@QAE@N@Z    1019fa50 f   nafxcwd:oleunk.obj
 0002:00118a80       ??0COleVariant@@QAE@ABVCOleDateTime@ATL@@@Z 1019fa80 f   nafxcwd:oleunk.obj
 0002:00118ab0       ??0COleVariant@@QAE@ABVCByteArray@@@Z 1019fab0 f   nafxcwd:oleunk.obj
 0002:00118ae0       ??0COleVariant@@QAE@ABVCLongBinary@@@Z 1019fae0 f   nafxcwd:oleunk.obj
 0002:00118b10       ??8COleVariant@@QBEHPBUtagVARIANT@@@Z 1019fb10 f   nafxcwd:oleunk.obj
 0002:00118b30       ??BCOleVariant@@QAEPAUtagVARIANT@@XZ 1019fb30 f   nafxcwd:oleunk.obj
 0002:00118b40       ??BCOleVariant@@QBEPBUtagVARIANT@@XZ 1019fb40 f   nafxcwd:oleunk.obj
 0002:00118b50       ??0COleCurrency@@QAE@XZ    1019fb50 f   nafxcwd:oleunk.obj
 0002:00118b80       ??0COleCurrency@@QAE@TtagCY@@@Z 1019fb80 f   nafxcwd:oleunk.obj
 0002:00118bb0       ??0COleCurrency@@QAE@ABV0@@Z 1019fbb0 f   nafxcwd:oleunk.obj
 0002:00118be0       ??0COleCurrency@@QAE@ABUtagVARIANT@@@Z 1019fbe0 f   nafxcwd:oleunk.obj
 0002:00118c00       ?GetStatus@COleCurrency@@QBE?AW4CurrencyStatus@1@XZ 1019fc00 f   nafxcwd:oleunk.obj
 0002:00118c20       ?SetStatus@COleCurrency@@QAEXW4CurrencyStatus@1@@Z 1019fc20 f   nafxcwd:oleunk.obj
 0002:00118c40       ??YCOleCurrency@@QAEABV0@ABV0@@Z 1019fc40 f   nafxcwd:oleunk.obj
 0002:00118c70       ??ZCOleCurrency@@QAEABV0@ABV0@@Z 1019fc70 f   nafxcwd:oleunk.obj
 0002:00118ca0       ??XCOleCurrency@@QAEABV0@J@Z 1019fca0 f   nafxcwd:oleunk.obj
 0002:00118cd0       ??_0COleCurrency@@QAEABV0@J@Z 1019fcd0 f   nafxcwd:oleunk.obj
 0002:00118d00       ??8COleCurrency@@QBEHABV0@@Z 1019fd00 f   nafxcwd:oleunk.obj
 0002:00118d50       ??9COleCurrency@@QBEHABV0@@Z 1019fd50 f   nafxcwd:oleunk.obj
 0002:00118da0       ??BCOleCurrency@@QBE?ATtagCY@@XZ 1019fda0 f   nafxcwd:oleunk.obj
 0002:00118dc0       ??0COleSafeArray@@QAE@XZ   1019fdc0 f   nafxcwd:oleunk.obj
 0002:00118de0       ??1COleSafeArray@@QAE@XZ   1019fde0 f   nafxcwd:oleunk.obj
 0002:00118e00       ?Clear@COleSafeArray@@QAEXXZ 1019fe00 f   nafxcwd:oleunk.obj
 0002:00118e30       ??BCOleSafeArray@@QAEPAUtagVARIANT@@XZ 1019fe30 f   nafxcwd:oleunk.obj
 0002:00118e40       ??BCOleSafeArray@@QBEPBUtagVARIANT@@XZ 1019fe40 f   nafxcwd:oleunk.obj
 0002:00118e50       ?GetDim@COleSafeArray@@QAEKXZ 1019fe50 f   nafxcwd:oleunk.obj
 0002:00118e70       ?GetElemSize@COleSafeArray@@QAEKXZ 1019fe70 f   nafxcwd:oleunk.obj
 0002:001192c0       ??0CInnerUnknown@@QAE@XZ   101a02c0 f i nafxcwd:oleunk.obj
 0002:001192f0       ??_GCOleException@@UAEPAXI@Z 101a02f0 f i nafxcwd:oleunk.obj
 0002:001192f0       ??_ECOleException@@UAEPAXI@Z 101a02f0 f i nafxcwd:oleunk.obj
 0002:0011a330       ?AfxDllGetClassObject@@YGJABU_GUID@@0PAPAX@Z 101a1330 f   nafxcwd:oledll.obj
 0002:0011a3f0       ?AfxDllCanUnloadNow@@YGJXZ 101a13f0 f   nafxcwd:oledll.obj
 0002:0011a4e0       ??B?$CTypedSimpleList@PAVCOleObjectFactory@@@@QAEPAVCOleObjectFactory@@XZ 101a14e0 f i nafxcwd:oledll.obj
 0002:0011a500       ?GetInterfaceMap@COleObjectFactory@@MBEPBUAFX_INTERFACEMAP@@XZ 101a1500 f   nafxcwd:olefact.obj
 0002:0011a510       ?UpdateRegistry@COleObjectFactory@@QAEXPBD@Z 101a1510 f   nafxcwd:olefact.obj
 0002:0011a5a0       ?UpdateRegistryAll@COleObjectFactory@@SGHH@Z 101a15a0 f   nafxcwd:olefact.obj
 0002:0011a610       ?OnCreateObject@COleObjectFactory@@MAEPAVCCmdTarget@@XZ 101a1610 f   nafxcwd:olefact.obj
 0002:0011a6b0       ?IsLicenseValid@COleObjectFactory@@QAEHXZ 101a16b0 f   nafxcwd:olefact.obj
 0002:0011a6f0       ?UpdateRegistry@COleObjectFactory@@MAEHH@Z 101a16f0 f   nafxcwd:olefact.obj
 0002:0011aa00       ?VerifyUserLicense@COleObjectFactory@@MAEHXZ 101a1a00 f   nafxcwd:olefact.obj
 0002:0011aa10       ?GetLicenseKey@COleObjectFactory@@MAEHKPAPA_W@Z 101a1a10 f   nafxcwd:olefact.obj
 0002:0011aa20       ?VerifyLicenseKey@COleObjectFactory@@MAEHPA_W@Z 101a1a20 f   nafxcwd:olefact.obj
 0002:0011aac0       ?AddRef@XClassFactory@COleObjectFactory@@UAGKXZ 101a1ac0 f   nafxcwd:olefact.obj
 0002:0011aae0       ?Release@XClassFactory@COleObjectFactory@@UAGKXZ 101a1ae0 f   nafxcwd:olefact.obj
 0002:0011ab00       ?QueryInterface@XClassFactory@COleObjectFactory@@UAGJABU_GUID@@PAPAX@Z 101a1b00 f   nafxcwd:olefact.obj
 0002:0011ab30       ?CreateInstance@XClassFactory@COleObjectFactory@@UAGJPAUIUnknown@@ABU_GUID@@PAPAX@Z 101a1b30 f   nafxcwd:olefact.obj
 0002:0011ab60       ?LockServer@XClassFactory@COleObjectFactory@@UAGJH@Z 101a1b60 f   nafxcwd:olefact.obj
 0002:0011ac20       ?GetLicInfo@XClassFactory@COleObjectFactory@@UAGJPAUtagLICINFO@@@Z 101a1c20 f   nafxcwd:olefact.obj
 0002:0011ac90       ?RequestLicKey@XClassFactory@COleObjectFactory@@UAGJKPAPA_W@Z 101a1c90 f   nafxcwd:olefact.obj
 0002:0011ad10       ?CreateInstanceLic@XClassFactory@COleObjectFactory@@UAGJPAUIUnknown@@0ABU_GUID@@PA_WPAPAX@Z 101a1d10 f   nafxcwd:olefact.obj
 0002:0011af50       ?AssertValid@COleObjectFactory@@UBEXXZ 101a1f50 f   nafxcwd:olefact.obj
 0002:0011b000       ?Dump@COleObjectFactory@@UBEXAAVCDumpContext@@@Z 101a2000 f   nafxcwd:olefact.obj
 0002:0011c4e0       ??0_AFX_OLESYMBOLTABLE@@QAE@H@Z 101a34e0 f   nafxcwd:olereg.obj
 0002:0011c540       ??1_AFX_OLESYMBOLTABLE@@QAE@XZ 101a3540 f   nafxcwd:olereg.obj
 0002:0011c5a0       ?SetAt@_AFX_OLESYMBOLTABLE@@QAEXHPBD@Z 101a35a0 f   nafxcwd:olereg.obj
 0002:0011c620       ?GetAt@_AFX_OLESYMBOLTABLE@@QBEPBDH@Z 101a3620 f   nafxcwd:olereg.obj
 0002:0011c650       ?_AfxOleMakeSymbolTable@@YGHAAV_AFX_OLESYMBOLTABLE@@ABU_GUID@@PBD22H22@Z 101a3650 f   nafxcwd:olereg.obj
 0002:0011c9a0       ?AfxOleRegisterServerClass@@YGHABU_GUID@@PBD11W4OLE_APPTYPE@@PAPBD3H1@Z 101a39a0 f   nafxcwd:olereg.obj
 0002:0011c9e0       ?AfxOleRegisterServerClass@@YGHABU_GUID@@PBD11W4OLE_APPTYPE@@PAPBD3H11@Z 101a39e0 f   nafxcwd:olereg.obj
 0002:0011cc50       ?AfxOleUnregisterServerClass@@YGHABU_GUID@@PBD11W4OLE_APPTYPE@@PAPBD3@Z 101a3c50 f   nafxcwd:olereg.obj
 0002:0011cd70       ?AfxOleUnregisterHelper@@YGHPBQBD0HPAUHKEY__@@@Z 101a3d70 f   nafxcwd:olereg.obj
 0002:0011cf00       ?AfxOleRegisterHelper@@YGHPBQBD0HHPAUHKEY__@@@Z 101a3f00 f   nafxcwd:olereg.obj
 0002:0011d230       ?AfxOleInprocRegisterHelper@@YGHPAUHKEY__@@0H@Z 101a4230 f   nafxcwd:olereg.obj
 0002:0011d760       ?GetArray@_AFX_OLESYMBOLTABLE@@QAEPAPBDXZ 101a4760 f i nafxcwd:olereg.obj
 0002:0011e780       ?AfxGetClassIDFromString@@YGJPBDPAU_GUID@@@Z 101a5780 f   nafxcwd:oledisp2.obj
 0002:0011e880       ??0COleDispatchDriver@@QAE@XZ 101a5880 f   nafxcwd:oledisp2.obj
 0002:0011e8b0       ??0COleDispatchDriver@@QAE@PAUIDispatch@@H@Z 101a58b0 f   nafxcwd:oledisp2.obj
 0002:0011e8e0       ??0COleDispatchDriver@@QAE@ABV0@@Z 101a58e0 f   nafxcwd:oledisp2.obj
 0002:0011e940       ??4COleDispatchDriver@@QAEABV0@ABV0@@Z 101a5940 f   nafxcwd:oledisp2.obj
 0002:0011e9b0       ?CreateDispatch@COleDispatchDriver@@QAEHABU_GUID@@PAVCOleException@@@Z 101a59b0 f   nafxcwd:oledisp2.obj
 0002:0011eaf0       ?CreateDispatch@COleDispatchDriver@@QAEHPBDPAVCOleException@@@Z 101a5af0 f   nafxcwd:oledisp2.obj
 0002:0011eb70       ?AttachDispatch@COleDispatchDriver@@QAEXPAUIDispatch@@H@Z 101a5b70 f   nafxcwd:oledisp2.obj
 0002:0011ebb0       ?ReleaseDispatch@COleDispatchDriver@@QAEXXZ 101a5bb0 f   nafxcwd:oledisp2.obj
 0002:0011ebf0       ?DetachDispatch@COleDispatchDriver@@QAEPAUIDispatch@@XZ 101a5bf0 f   nafxcwd:oledisp2.obj
 0002:0011ec20       ?InvokeHelperV@COleDispatchDriver@@QAEXJGGPAXPBEPAD@Z 101a5c20 f   nafxcwd:oledisp2.obj
 0002:0011f8a0       ?InvokeHelper@COleDispatchDriver@@QAAXJGGPAXPBEZZ 101a68a0 f   nafxcwd:oledisp2.obj
 0002:0011f8e0       ?GetProperty@COleDispatchDriver@@QBEXJGPAX@Z 101a68e0 f   nafxcwd:oledisp2.obj
 0002:0011f910       ?SetProperty@COleDispatchDriver@@QAAXJGZZ 101a6910 f   nafxcwd:oledisp2.obj
 0002:0011fe20       ?GetStandardProp@CCmdTarget@@IAEXPBUAFX_DISPMAP_ENTRY@@PAUtagVARIANT@@PAI@Z 101a6e20 f   nafxcwd:oledisp1.obj
 0002:00120010       ?SetStandardProp@CCmdTarget@@IAEJPBUAFX_DISPMAP_ENTRY@@PAUtagDISPPARAMS@@PAI@Z 101a7010 f   nafxcwd:oledisp1.obj
 0002:001202e0       ?GetEntryCount@CCmdTarget@@KGIPBUAFX_DISPMAP@@@Z 101a72e0 f   nafxcwd:oledisp1.obj
 0002:00120370       ?MemberIDFromName@CCmdTarget@@KGJPBUAFX_DISPMAP@@PBD@Z 101a7370 f   nafxcwd:oledisp1.obj
 0002:00120480       ?GetDispEntry@CCmdTarget@@IAGPBUAFX_DISPMAP_ENTRY@@J@Z 101a7480 f   nafxcwd:oledisp1.obj
 0002:001205f0       ?GetNotSupported@CCmdTarget@@QAEXXZ 101a75f0 f   nafxcwd:oledisp1.obj
 0002:00120610       ?SetNotSupported@CCmdTarget@@QAEXXZ 101a7610 f   nafxcwd:oledisp1.obj
 0002:00120630       ?EnableAutomation@CCmdTarget@@QAEXXZ 101a7630 f   nafxcwd:oledisp1.obj
 0002:001206b0       ?GetIDispatch@CCmdTarget@@QAEPAUIDispatch@@H@Z 101a76b0 f   nafxcwd:oledisp1.obj
 0002:00120710       ?FromIDispatch@CCmdTarget@@SGPAV1@PAUIDispatch@@@Z 101a7710 f   nafxcwd:oledisp1.obj
 0002:00120770       ?IsResultExpected@CCmdTarget@@QAEHXZ 101a7770 f   nafxcwd:oledisp1.obj
 0002:001207a0       ?Disconnect@COleDispatchImpl@@UAEXXZ 101a77a0 f   nafxcwd:oledisp1.obj
 0002:001207c0       ?GetStackSize@CCmdTarget@@KGIPBEG@Z 101a77c0 f   nafxcwd:oledisp1.obj
 0002:001208a0       ?PushStackArgs@CCmdTarget@@IAEJPAEPBEPAXGPAUtagDISPPARAMS@@PAIPAUtagVARIANT@@@Z 101a78a0 f   nafxcwd:oledisp1.obj
 0002:00120e80       ?CallMemberFunc@CCmdTarget@@IAEJPBUAFX_DISPMAP_ENTRY@@GPAUtagVARIANT@@PAUtagDISPPARAMS@@PAI@Z 101a7e80 f   nafxcwd:oledisp1.obj
 0002:001214c0       ?AddRef@COleDispatchImpl@@UAGKXZ 101a84c0 f   nafxcwd:oledisp1.obj
 0002:001214e0       ?Release@COleDispatchImpl@@UAGKXZ 101a84e0 f   nafxcwd:oledisp1.obj
 0002:00121500       ?QueryInterface@COleDispatchImpl@@UAGJABU_GUID@@PAPAX@Z 101a8500 f   nafxcwd:oledisp1.obj
 0002:00121530       ?GetTypeInfoCount@COleDispatchImpl@@UAGJPAI@Z 101a8530 f   nafxcwd:oledisp1.obj
 0002:00121560       ?GetTypeInfo@COleDispatchImpl@@UAGJIKPAPAUITypeInfo@@@Z 101a8560 f   nafxcwd:oledisp1.obj
 0002:001215f0       ?GetIDsOfNames@COleDispatchImpl@@UAGJABU_GUID@@PAPA_WIKPAJ@Z 101a85f0 f   nafxcwd:oledisp1.obj
 0002:001217e0       ?Invoke@COleDispatchImpl@@UAGJJABU_GUID@@KGPAUtagDISPPARAMS@@PAUtagVARIANT@@PAUtagEXCEPINFO@@PAI@Z 101a87e0 f   nafxcwd:oledisp1.obj
 0002:00122050       ??1COleDispatchException@@UAE@XZ 101a9050 f   nafxcwd:oledisp1.obj
 0002:00122090       ?Process@COleDispatchException@@SGXPAUtagEXCEPINFO@@PBVCException@@@Z 101a9090 f   nafxcwd:oledisp1.obj
 0002:001224d0       ??0COleDispatchException@@QAE@PBDIG@Z 101a94d0 f   nafxcwd:oledisp1.obj
 0002:001225b0       ?GetErrorMessage@COleDispatchException@@UAEHPADIPAI@Z 101a95b0 f   nafxcwd:oledisp1.obj
 0002:00122620       ?AfxThrowOleDispatchException@@YGXGPBDI@Z 101a9620 f   nafxcwd:oledisp1.obj
 0002:001226e0       ?AfxThrowOleDispatchException@@YGXGII@Z 101a96e0 f   nafxcwd:oledisp1.obj
 0002:00123250       ??0COleDispatchImpl@@QAE@XZ 101aa250 f i nafxcwd:oledisp1.obj
 0002:00123280       ??4COleDispatchImpl@@QAEAAV0@ABV0@@Z 101aa280 f i nafxcwd:oledisp1.obj
 0002:001232b0       ??4IDispatch@@QAEAAU0@ABU0@@Z 101aa2b0 f i nafxcwd:oledisp1.obj
 0002:001232e0       ??4IUnknown@@QAEAAU0@ABU0@@Z 101aa2e0 f i nafxcwd:oledisp1.obj
 0002:00123300       ??_GCOleDispatchException@@UAEPAXI@Z 101aa300 f i nafxcwd:oledisp1.obj
 0002:00123300       ??_ECOleDispatchException@@UAEPAXI@Z 101aa300 f i nafxcwd:oledisp1.obj
 0002:00123340       __AfxDispatchCall@12       101aa340 f   nafxcwd:olecall.obj
 0002:00124370       ?_AfxAbortProc@@YGHPAUHDC__@@H@Z 101ab370 f   nafxcwd:viewprnt.obj
 0002:001243d0       ?OnInitDialog@CPrintingDialog@@UAEHXZ 101ab3d0 f   nafxcwd:viewprnt.obj
 0002:00124400       ?OnCancel@CPrintingDialog@@UAEXXZ 101ab400 f   nafxcwd:viewprnt.obj
 0002:00124430       ?DoPreparePrinting@CView@@QAEHPAUCPrintInfo@@@Z 101ab430 f   nafxcwd:viewprnt.obj
 0002:00124640       ?OnFilePrint@CView@@IAEXXZ 101ab640 f   nafxcwd:viewprnt.obj
 0002:00125160       ??0CPrintInfo@@QAE@XZ      101ac160 f   nafxcwd:viewprnt.obj
 0002:00125290       ??1CPrintInfo@@QAE@XZ      101ac290 f   nafxcwd:viewprnt.obj
 0002:00125730       ??0CPrintingDialog@@QAE@PAVCWnd@@@Z 101ac730 f i nafxcwd:viewprnt.obj
 0002:001257c0       ??1CPrintingDialog@@UAE@XZ 101ac7c0 f i nafxcwd:viewprnt.obj
 0002:001257f0       ??_ECPrintingDialog@@UAEPAXI@Z 101ac7f0 f i nafxcwd:viewprnt.obj
 0002:001257f0       ??_GCPrintingDialog@@UAEPAXI@Z 101ac7f0 f i nafxcwd:viewprnt.obj
 0002:00125830       ??B?$CProcessLocal@V_AFX_WIN_STATE@@@@QAEPAV_AFX_WIN_STATE@@XZ 101ac830 f i nafxcwd:viewprnt.obj
 0002:00125850       ??C?$CProcessLocal@V_AFX_WIN_STATE@@@@QAEPAV_AFX_WIN_STATE@@XZ 101ac850 f i nafxcwd:viewprnt.obj
 0002:00125870       ?GetData@?$CProcessLocal@V_AFX_WIN_STATE@@@@QAEPAV_AFX_WIN_STATE@@XZ 101ac870 f i nafxcwd:viewprnt.obj
 0002:001258c0       ?CreateObject@?$CProcessLocal@V_AFX_WIN_STATE@@@@SGPAVCNoTrackObject@@XZ 101ac8c0 f i nafxcwd:viewprnt.obj
 0002:00125900       ??0_AFX_WIN_STATE@@QAE@XZ  101ac900 f i nafxcwd:viewprnt.obj
 0002:00125930       ??_E_AFX_WIN_STATE@@UAEPAXI@Z 101ac930 f i nafxcwd:viewprnt.obj
 0002:00125930       ??_G_AFX_WIN_STATE@@UAEPAXI@Z 101ac930 f i nafxcwd:viewprnt.obj
 0002:00125970       ??1_AFX_WIN_STATE@@UAE@XZ  101ac970 f i nafxcwd:viewprnt.obj
 0002:00125990       ?GetPrinterDeviceDefaults@CWinApp@@QAEHPAUtagPDA@@@Z 101ac990 f   nafxcwd:appprnt.obj
 0002:00125a00       ?UpdatePrinterSelection@CWinApp@@IAEXH@Z 101aca00 f   nafxcwd:appprnt.obj
 0002:00125dc0       ?DoPrintDialog@CWinApp@@QAEHPAVCPrintDialog@@@Z 101acdc0 f   nafxcwd:appprnt.obj
 0002:00125f30       ?OnFilePrintSetup@CWinApp@@IAEXXZ 101acf30 f   nafxcwd:appprnt.obj
 0002:00125fb0       ?SelectPrinter@CWinApp@@QAEXPAX0H@Z 101acfb0 f   nafxcwd:appprnt.obj
 0002:00126020       ?CreatePrinterDC@CWinApp@@QAEHAAVCDC@@@Z 101ad020 f   nafxcwd:appprnt.obj
 0002:00127260       ??1CWinThread@@UAE@XZ      101ae260 f   nafxcwd:thrdcore.obj
 0002:00127300       ?AfxPostQuitMessage@@YGXH@Z 101ae300 f   nafxcwd:appcore.obj
 0002:00127350       ??1COleObjectFactory@@UAE@XZ 101ae350 f   nafxcwd:olefact.obj
 0002:001273e0       ?Revoke@COleObjectFactory@@QAEXXZ 101ae3e0 f   nafxcwd:olefact.obj
 0002:00127430       ?RevokeAll@COleObjectFactory@@SGXXZ 101ae430 f   nafxcwd:olefact.obj
 0002:001274d0       ?AfxWinTerm@@YGXXZ         101ae4d0 f   nafxcwd:appterm.obj
 0002:00127650       ??1AUX_DATA@@QAE@XZ        101ae650 f   nafxcwd:auxdata.obj
 0002:00127670       ??1CDocManager@@UAE@XZ     101ae670 f   nafxcwd:docmgr.obj
 0003:0000001c       ?messageMap@CColorStatic@@1UAFX_MSGMAP@@B 101b801c     ColorControls.obj
 0003:00000028       ?_messageEntries@CColorStatic@@0QBUAFX_MSGMAP_ENTRY@@B 101b8028     ColorControls.obj
 0003:00000064       ?messageMap@CColorEdit@@1UAFX_MSGMAP@@B 101b8064     ColorControls.obj
 0003:00000070       ?_messageEntries@CColorEdit@@0QBUAFX_MSGMAP_ENTRY@@B 101b8070     ColorControls.obj
 0003:000000b0       ??_7CColorEdit@@6B@        101b80b0     ColorControls.obj
 0003:00000230       ??_7CColorStatic@@6B@      101b8230     ColorControls.obj
 0003:000003b0       ??_7CINI@@6B@              101b83b0     INI.obj
 0003:000003b4       ??_C@_00CNPNBAHC@?$AA@     101b83b4     INI.obj
 0003:000003b8       ??_C@_0FB@BCKJDECD@c?3?2program?5files?2microsoft?5visua@ 101b83b8     INI.obj
 0003:0000041c       ??_C@_0BI@GIMJKKKN@AtlIsValidString?$CI?5psz?5?$CJ?$AA@ 101b841c     INI.obj
 0003:00000438       ??_C@_0FD@JDCNPMMG@c?3?2program?5files?2microsoft?5visua@ 101b8438     INI.obj
 0003:0000049c       ??_C@_0L@OIIMFBNE@nRefs?5?$CB?$DN?50?$AA@ 101b849c     INI.obj
 0003:000004ac       ??_C@_0CJ@FJEKGMMD@Warning?3?5implicit?5LoadString?$CI?$CFu?$CJ@ 101b84ac     INI.obj
 0003:000004e0       ??_C@_0BA@GOIMFHNK@pStringMgr?5?$CB?$DN?50?$AA@ 101b84e0     INI.obj
 0003:000004f4       ??_C@_0BA@GNIEOBOF@nNewLength?5?$DO?$DN?50?$AA@ 101b84f4     INI.obj
 0003:00000508       ??_C@_0CD@EEFFJEGJ@nLength?5?$DM?$DN?5GetData?$CI?$CJ?9?$DOnAllocLeng@ 101b8508     INI.obj
 0003:00000534       ??_C@_0N@ILOMLJGA@nLength?5?$DO?$DN?50?$AA@ 101b8534     INI.obj
 0003:00000548       ??_C@_0FC@IPKABFFL@c?3?2program?5files?2microsoft?5visua@ 101b8548     INI.obj
 0003:000005ac       ??_C@_0BF@IAAKIJDJ@AtlThrow?3?5hr?5?$DN?50x?$CFx?6?$AA@ 101b85ac     INI.obj
 0003:000005c8       ??_C@_09EEBKLCFA@nRefs?5?$DO?50?$AA@ 101b85c8     INI.obj
 0003:000005d4       ??_C@_0CB@GFHAPKDK@pOldData?9?$DOnAllocLength?5?$DM?5nLength@ 101b85d4     INI.obj
 0003:000005fc       ?classCDialogThread@CDialogThread@@2UCRuntimeClass@@B 101b85fc     MiniXAPI.obj
 0003:00000620       ??_C@_0O@CMHFEINO@CDialogThread?$AA@ 101b8620     MiniXAPI.obj
 0003:00000630       ??_7CDialogThread@@6B@     101b8630     MiniXAPI.obj
 0003:000006d0       ??_C@_0P@LAPPBJPK@mxmReserved?5?$DN?5?$AA@ 101b86d0     MiniXAPI.obj
 0003:000006e4       ??_C@_05ONBKDNLK@?$CF0?43f?$AA@ 101b86e4     MiniXAPI.obj
 0003:000006ec       ??_C@_0L@DMPOLPKM@mxmHVOn?5?$DN?5?$AA@ 101b86ec     MiniXAPI.obj
 0003:000006fc       ??_C@_0BB@INLHIKAP@mxmOutOfRange?5?$DN?5?$AA@ 101b86fc     MiniXAPI.obj
 0003:00000710       ??_C@_0BA@CCHIHNLI@mxmStatusInd?5?$DN?5?$AA@ 101b8710     MiniXAPI.obj
 0003:00000724       ??_C@_0BC@ICPDEOGN@mxmEnabledCmds?5?$DN?5?$AA@ 101b8724     MiniXAPI.obj
 0003:0000073c       ??_C@_0BD@GOMNBMNC@mxmTemperatureC?5?$DN?5?$AA@ 101b873c     MiniXAPI.obj
 0003:00000754       ??_C@_0BA@PHONJODH@mxmInterLock?5?$DN?5?$AA@ 101b8754     MiniXAPI.obj
 0003:00000768       ??_C@_0BA@ODLLOAPA@mxmRefreshed?5?$DN?5?$AA@ 101b8768     MiniXAPI.obj
 0003:0000077c       ??_C@_02DPKJAMEF@?$CFd?$AA@ 101b877c     MiniXAPI.obj
 0003:00000780       ??_C@_0P@OHHHEDOP@mxmPower_mW?5?$DN?5?$AA@ 101b8780     MiniXAPI.obj
 0003:00000794       ??_C@_05OPFMIDOD@?$CF0?40f?$AA@ 101b8794     MiniXAPI.obj
 0003:0000079c       ??_C@_0BB@MIKDILOB@mxmCurrent_uA?5?$DN?5?$AA@ 101b879c     MiniXAPI.obj
 0003:000007b0       ??_C@_02PCIJFNDE@?$AN?6?$AA@ 101b87b0     MiniXAPI.obj
 0003:000007b4       ??_C@_0BF@JPAAKJBJ@mxmHighVoltage_kV?5?$DN?5?$AA@ 101b87b4     MiniXAPI.obj
 0003:000007d0       ??_C@_05OOJOOJNE@?$CF0?41f?$AA@ 101b87d0     MiniXAPI.obj
 0003:000007d8       ??_C@_04GHNNFJCK@?$CF?40f?$AA@ 101b87d8     MiniXAPI.obj
 0003:000007e0       ??_C@_0BO@OBIGOAOM@AtlIsValidString?$CI?5pszFormat?5?$CJ?$AA@ 101b87e0     MiniXAPI.obj
 0003:00000804       ?messageMap@CMiniXDlg@@1UAFX_MSGMAP@@B 101b8804     MiniXDlg.obj
 0003:00000810       ?_messageEntries@CMiniXDlg@@0QBUAFX_MSGMAP_ENTRY@@B 101b8810     MiniXDlg.obj
 0003:00000a18       ?messageMap@CAboutDlg@@1UAFX_MSGMAP@@B 101b8a18     MiniXDlg.obj
 0003:00000a24       ?_messageEntries@CAboutDlg@@0QBUAFX_MSGMAP_ENTRY@@B 101b8a24     MiniXDlg.obj
 0003:00000a40       ??_7CAboutDlg@@6B@         101b8a40     MiniXDlg.obj
 0003:00000be8       ??_C@_08JOAIGNAJ@11?336?312?$AA@ 101b8be8     MiniXDlg.obj
 0003:00000bf4       ??_C@_0M@IHCFPGMG@Oct?523?52015?$AA@ 101b8bf4     MiniXDlg.obj
 0003:00000c08       __real@0000000000000000    101b8c08     MiniXDlg.obj
 0003:00000c18       ??_7CMiniXDlg@@6B@         101b8c18     MiniXDlg.obj
 0003:00000dc0       ??_C@_01GBGANLPD@0?$AA@    101b8dc0     MiniXDlg.obj
 0003:00000dc4       ??_C@_0BJ@GILKAEGC@MiniX?5application?5ready?4?$AA@ 101b8dc4     MiniXDlg.obj
 0003:00000de4       ??_C@_0DC@IEBIGPLG@Drivers?5not?5loaded?0?5please?5insta@ 101b8de4     MiniXDlg.obj
 0003:00000e20       ??_C@_0BN@CONKELPE@?$DO?$DO?$DO?5MONITOR?5OUT?5OF?5RANGE?5?$DM?$DM?$DM?$AA@ 101b8e20     MiniXDlg.obj
 0003:00000e44       ??_C@_0BG@LDAKJALD@?6High?5Voltage?5Enabled?$AA@ 101b8e44     MiniXDlg.obj
 0003:00000e60       ??_C@_0BG@JEBJEPMF@?6Monitor?5Mini?9X?5Ready?$AA@ 101b8e60     MiniXDlg.obj
 0003:00000e7c       ??_C@_0BN@CLPGNFCB@Error?3?5Can?8t?5Find?5FT_EE_Read?$AA@ 101b8e7c     MiniXDlg.obj
 0003:00000ea0       ??_C@_0L@DLKIINHB@FT_EE_Read?$AA@ 101b8ea0     MiniXDlg.obj
 0003:00000eb0       ??_C@_0CA@FEJICIPI@Error?3?5Can?8t?5Find?5FT_EE_Program?$AA@ 101b8eb0     MiniXDlg.obj
 0003:00000ed8       ??_C@_0O@MGJFKNPH@FT_EE_Program?$AA@ 101b8ed8     MiniXDlg.obj
 0003:00000ee8       ??_C@_0CI@EACCJOEC@Error?3?5Can?8t?5Find?5FT_GetLatencyT@ 101b8ee8     MiniXDlg.obj
 0003:00000f18       ??_C@_0BD@HAGJMAGI@FT_GetLatencyTimer?$AA@ 101b8f18     MiniXDlg.obj
 0003:00000f30       ??_C@_0CI@LKAIKIKK@Error?3?5Can?8t?5Find?5FT_SetLatencyT@ 101b8f30     MiniXDlg.obj
 0003:00000f60       ??_C@_0BD@ECHPLCHB@FT_SetLatencyTimer?$AA@ 101b8f60     MiniXDlg.obj
 0003:00000f78       ??_C@_0CA@IIGEMFOA@Error?3?5Can?8t?5Find?5FT_SetBitMode?$AA@ 101b8f78     MiniXDlg.obj
 0003:00000fa0       ??_C@_0O@BKGJEAOP@FT_SetBitMode?$AA@ 101b8fa0     MiniXDlg.obj
 0003:00000fb0       ??_C@_0CE@MNLBBEIA@Error?3?5Can?8t?5Find?5FT_GetQueueSta@ 101b8fb0     MiniXDlg.obj
 0003:00000fdc       ??_C@_0BC@NJIDFBJI@FT_GetQueueStatus?$AA@ 101b8fdc     MiniXDlg.obj
 0003:00000ff4       ??_C@_0CB@JHLCDAII@Error?3?5Can?8t?5Find?5FT_SetTimeouts@ 101b8ff4     MiniXDlg.obj
 0003:0000101c       ??_C@_0P@HJPCAJM@FT_SetTimeouts?$AA@ 101b901c     MiniXDlg.obj
 0003:00001030       ??_C@_0BL@IFFMPMLF@Error?3?5Can?8t?5Find?5FT_Purge?$AA@ 101b9030     MiniXDlg.obj
 0003:00001050       ??_C@_08BJBHLIKG@FT_Purge?$AA@ 101b9050     MiniXDlg.obj
 0003:0000105c       ??_C@_0CB@BINEPGEM@Error?3?5Can?8t?5Find?5FT_ResetDevice@ 101b905c     MiniXDlg.obj
 0003:00001084       ??_C@_0P@IIPJOGFI@FT_ResetDevice?$AA@ 101b9084     MiniXDlg.obj
 0003:00001098       ??_C@_0BL@NELCPNJN@Error?3?5Can?8t?5Find?5FT_Close?$AA@ 101b9098     MiniXDlg.obj
 0003:000010b8       ??_C@_08EIPJLJIO@FT_Close?$AA@ 101b90b8     MiniXDlg.obj
 0003:000010c4       ??_C@_0CB@LAABDEGJ@Error?3?5Can?8t?5Find?5FT_ListDevices@ 101b90c4     MiniXDlg.obj
 0003:000010ec       ??_C@_0P@CACMCEHN@FT_ListDevices?$AA@ 101b90ec     MiniXDlg.obj
 0003:00001100       ??_C@_0BM@KLGNHGN@Error?3?5Can?8t?5Find?5FT_OpenEx?$AA@ 101b9100     MiniXDlg.obj
 0003:00001124       ??_C@_09IOJENNPH@FT_OpenEx?$AA@ 101b9124     MiniXDlg.obj
 0003:00001130       ??_C@_0BK@BJNBAGFI@Error?3?5Can?8t?5Find?5FT_Open?$AA@ 101b9130     MiniXDlg.obj
 0003:00001150       ??_C@_07FLJDLMJM@FT_Open?$AA@ 101b9150     MiniXDlg.obj
 0003:0000115c       ??_C@_0BK@BLIALCJA@Error?3?5Can?8t?5Find?5FT_Read?$AA@ 101b915c     MiniXDlg.obj
 0003:0000117c       ??_C@_07FJMCAIFE@FT_Read?$AA@ 101b917c     MiniXDlg.obj
 0003:00001188       ??_C@_0BL@LDABNNKK@Error?3?5Can?8t?5Find?5FT_Write?$AA@ 101b9188     MiniXDlg.obj
 0003:000011a8       ??_C@_08CPEKJJLJ@FT_Write?$AA@ 101b91a8     MiniXDlg.obj
 0003:000011b4       ??_C@_0L@OJIGMKML@Ftd2xx?4dll?$AA@ 101b91b4     MiniXDlg.obj
 0003:000011c4       ??_C@_0BJ@LDBMODNJ@FT_EE_Read?5is?5not?5valid?$CB?$AA@ 101b91c4     MiniXDlg.obj
 0003:000011e4       ??_C@_0BM@LDACBBPJ@FT_EE_Program?5is?5not?5valid?$CB?$AA@ 101b91e4     MiniXDlg.obj
 0003:00001208       ??_C@_0CB@LPDBNLPE@FT_GetLatencyTimer?5is?5not?5valid?$CB@ 101b9208     MiniXDlg.obj
 0003:00001230       ??_C@_0CB@DOFOGLNG@FT_SetLatencyTimer?5is?5not?5valid?$CB@ 101b9230     MiniXDlg.obj
 0003:00001258       ??_C@_0BM@ELJOHFHN@FT_SetBitMode?5is?5not?5valid?$CB?$AA@ 101b9258     MiniXDlg.obj
 0003:0000127c       ??_C@_0BG@INEDMIPI@FT_Read?5is?5not?5valid?$CB?$AA@ 101b927c     MiniXDlg.obj
 0003:00001298       ??_C@_0BH@IMLAADIO@FT_Write?5is?5not?5valid?$CB?$AA@ 101b9298     MiniXDlg.obj
 0003:000012b4       ??_C@_0BG@OEMIMDNB@FT_Open?5is?5not?5valid?$CB?$AA@ 101b92b4     MiniXDlg.obj
 0003:000012d0       ??_C@_0BI@PONINJLI@FT_OpenEx?5is?5not?5valid?$CB?$AA@ 101b92d0     MiniXDlg.obj
 0003:000012ec       ??_C@_0BN@ODHOABOO@FT_ListDevices?5is?5not?5valid?$CB?$AA@ 101b92ec     MiniXDlg.obj
 0003:00001310       ??_C@_0BH@ILEKKOKA@FT_Close?5is?5not?5valid?$CB?$AA@ 101b9310     MiniXDlg.obj
 0003:0000132c       ??_C@_0BN@FIKDAPFN@FT_ResetDevice?5is?5not?5valid?$CB?$AA@ 101b932c     MiniXDlg.obj
 0003:00001350       ??_C@_0BH@LAHFMDNJ@FT_Purge?5is?5not?5valid?$CB?$AA@ 101b9350     MiniXDlg.obj
 0003:0000136c       ??_C@_0BN@BNLBPLIF@FT_SetTimeouts?5is?5not?5valid?$CB?$AA@ 101b936c     MiniXDlg.obj
 0003:00001390       ??_C@_0CA@DHEELCFP@FT_GetQueueStatus?5is?5not?5valid?$CB?$AA@ 101b9390     MiniXDlg.obj
 0003:000013b8       ??_C@_0CO@HMNHHPEF@Device?5selection?5List?5Devices?5co@ 101b93b8     MiniXDlg.obj
 0003:000013f0       ??_C@_0BD@MFMNHDBK@No?5device?5selected?$AA@ 101b93f0     MiniXDlg.obj
 0003:00001408       ??_C@_0BC@DIGILMPP@?$CFs?5failed?5to?5open?$AA@ 101b9408     MiniXDlg.obj
 0003:00001420       ??_C@_08BJHDOGIA@?$CFs?5ready?$AA@ 101b9420     MiniXDlg.obj
 0003:0000142c       ??_C@_0M@NLNFFHBN@?$CFs?5Ready?4?4?4?$AA@ 101b942c     MiniXDlg.obj
 0003:0000143c       ??_C@_0M@BMGNNGND@?$CFs?5selected?$AA@ 101b943c     MiniXDlg.obj
 0003:0000144c       ??_C@_02DKCKIIND@?$CFs?$AA@ 101b944c     MiniXDlg.obj
 0003:00001450       ??_C@_0BE@BAPCKIFP@No?5devices?5attached?$AA@ 101b9450     MiniXDlg.obj
 0003:00001468       ??_C@_0BN@HAOHNDNC@List?5Devices?5command?5failed?4?$AA@ 101b9468     MiniXDlg.obj
 0003:0000148c       ??_C@_0M@DBNOKLEF@Port?5CLOSED?$AA@ 101b948c     MiniXDlg.obj
 0003:0000149c       ??_C@_0DC@POAPNAKP@No?5drivers?5loaded?$CB?5?5Please?5insta@ 101b949c     MiniXDlg.obj
 0003:000014d8       ??_C@_0BG@BLNKAKFI@Mini?9X?5Serial?5Number?5?$AA@ 101b94d8     MiniXDlg.obj
 0003:000014f4       ??_C@_0BO@DKBPMBGE@Error?5initializing?5I?1O?5lines?4?$AA@ 101b94f4     MiniXDlg.obj
 0003:00001518       ??_C@_0O@NMPDMFBL@MPSSE?5enabled?$AA@ 101b9518     MiniXDlg.obj
 0003:00001528       ??_C@_01CLKCMJKC@?5?$AA@   101b9528     MiniXDlg.obj
 0003:0000152c       ??_C@_0DC@PHLCPDLL@MPSSE?5enable?5failed?4?5Check?5contr@ 101b952c     MiniXDlg.obj
 0003:00001568       ??_C@_0ED@KINPOMHD@Error?5enabling?5serial?5engine?5?$CIMP@ 101b9568     MiniXDlg.obj
 0003:000015b8       ??_C@_0BD@KLIMFCFH@No?5drivers?5loaded?$CB?$AA@ 101b95b8     MiniXDlg.obj
 0003:000015d0       ??_C@_0P@CDLJONEF@MPSSE?5disabled?$AA@ 101b95d0     MiniXDlg.obj
 0003:000015e4       ??_C@_08JGILNPHN@Disabled?$AA@ 101b95e4     MiniXDlg.obj
 0003:000015f0       ??_C@_0BF@PJOGPCMA@MPSSE?5disable?5failed?$AA@ 101b95f0     MiniXDlg.obj
 0003:0000160c       ??_C@_0CH@GEBDCOB@Error?5disabling?5serial?5engine?5?$CIM@ 101b960c     MiniXDlg.obj
 0003:0000163c       ??_C@_0BO@OLANOKBG@HV?5DAC?5error?5setting?5voltage?4?$AA@ 101b963c     MiniXDlg.obj
 0003:00001660       ??_C@_06DFENOIBG@0x?$CF?44X?$AA@ 101b9660     MiniXDlg.obj
 0003:00001668       ??_C@_0EA@FOLENHFJ@Requested?5voltage?5out?5of?5range?4?5@ 101b9668     MiniXDlg.obj
 0003:000016b8       __real@3fef333333333333    101b96b8     MiniXDlg.obj
 0003:000016c8       __real@3ff0666666666666    101b96c8     MiniXDlg.obj
 0003:000016d4       ??_C@_0BO@IEPKFFNP@uA?5DAC?5error?5setting?5current?4?$AA@ 101b96d4     MiniXDlg.obj
 0003:000016f8       ??_C@_0EA@NDGPOPBK@Requested?5current?5out?5of?5range?4?5@ 101b96f8     MiniXDlg.obj
 0003:00001744       ??_C@_05LIFPHJAK@?$CF?44fV?$AA@ 101b9744     MiniXDlg.obj
 0003:0000174c       ??_C@_0CE@MDEDELNF@HV?5ADC?5too?5few?5data?5bytes?5return@ 101b974c     MiniXDlg.obj
 0003:00001778       ??_C@_0BP@LMEBFBEL@HV?5ADC?5read?5data?5status?5error?4?$AA@ 101b9778     MiniXDlg.obj
 0003:000017a0       ??_C@_0BM@CKHBGAAE@HV?5ADC?5write?5command?5error?4?$AA@ 101b97a0     MiniXDlg.obj
 0003:000017c4       ??_C@_0CE@KKMCPPKM@uA?5ADC?5too?5few?5data?5bytes?5return@ 101b97c4     MiniXDlg.obj
 0003:000017f0       ??_C@_0BP@NCDKFIBN@uA?5ADC?5read?5data?5status?5error?4?$AA@ 101b97f0     MiniXDlg.obj
 0003:00001818       ??_C@_0BM@IBPNBOCG@uA?5ADC?5write?5command?5error?4?$AA@ 101b9818     MiniXDlg.obj
 0003:0000183c       ??_C@_0CF@GPONPCLL@Port?5IO?5too?5few?5data?5bytes?5retur@ 101b983c     MiniXDlg.obj
 0003:00001868       ??_C@_0CA@NEIONKHL@Port?5IO?5read?5data?5status?5error?4?$AA@ 101b9868     MiniXDlg.obj
 0003:00001890       ??_C@_0BN@GOGNMGNI@Port?5IO?5write?5command?5error?4?$AA@ 101b9890     MiniXDlg.obj
 0003:000018b8       ??_C@_0GO@DPNLKPCF@Port0?3?$CF01?41d?$CF01?41d?$CF01?41d?$CF01?41d?$CF0@ 101b98b8     MiniXDlg.obj
 0003:0000193c       ??_C@_06FGFHJIJL@?$CD32770?$AA@ 101b993c     MiniXDlg.obj
 0003:00001944       ??_C@_09NJFAJAIE@MiniXCtrl?$AA@ 101b9944     MiniXDlg.obj
 0003:00001950       __real@401c000000000000    101b9950     MiniXDlg.obj
 0003:00001960       __real@3ff199999999999a    101b9960     MiniXDlg.obj
 0003:00001970       __real@408f400000000000    101b9970     MiniXDlg.obj
 0003:0000197c       ??_C@_06PLOELPOK@?$CF?41fuA?$AA@ 101b997c     MiniXDlg.obj
 0003:00001984       ??_C@_06MGIEJGFK@?$CF?40fuA?$AA@ 101b9984     MiniXDlg.obj
 0003:0000198c       ??_C@_06OINPLFAG@?$CF?41fkV?$AA@ 101b998c     MiniXDlg.obj
 0003:00001994       ??_C@_06NFLPJMLG@?$CF?40fkV?$AA@ 101b9994     MiniXDlg.obj
 0003:000019a0       __real@3e112e0be826d695    101b99a0     MiniXDlg.obj
 0003:000019ac       ??_C@_04GANEPBPG@?$CF?44f?$AA@ 101b99ac     MiniXDlg.obj
 0003:000019b8       __real@3ee4f8b588e368f1    101b99b8     MiniXDlg.obj
 0003:000019c4       ??_C@_0CM@DNLBDKMI@Error?5setting?5high?5voltage?5enabl@ 101b99c4     MiniXDlg.obj
 0003:000019f8       ??_C@_0CL@NLFAKIAO@Error?5setting?5high?5voltage?5enabl@ 101b99f8     MiniXDlg.obj
 0003:00001a2c       ??_C@_0BM@HIIOAEFK@Turn?5X?9RAY?5High?5Voltage?5ON?$DP?$AA@ 101b9a2c     MiniXDlg.obj
 0003:00001a50       ??_C@_06EKGPBJOA@Mini?9X?$AA@ 101b9a50     MiniXDlg.obj
 0003:00001a58       ??_C@_0BC@PALHBLKH@Mini?9X?5Controller?$AA@ 101b9a58     MiniXDlg.obj
 0003:00001a70       ??_C@_07HHOLBPLL@MX50?410?$AA@ 101b9a70     MiniXDlg.obj
 0003:00001a7c       ??_C@_0BH@GOFEDOIP@MX50?410?5USB?5Controller?$AA@ 101b9a7c     MiniXDlg.obj
 0003:00001a98       ??_C@_04GKOBKCNP@MX50?$AA@ 101b9a98     MiniXDlg.obj
 0003:00001aa0       ??_C@_0BE@JBKBEPDG@MX50?5USB?5Controller?$AA@ 101b9aa0     MiniXDlg.obj
 0003:00001ab8       ??_C@_04GJGFHGLB@MX70?$AA@ 101b9ab8     MiniXDlg.obj
 0003:00001ac0       ??_C@_0BE@JEHFCELF@MX70?5USB?5Controller?$AA@ 101b9ac0     MiniXDlg.obj
 0003:00001ad8       ??_C@_0CE@LIMKMCAM@Connecting?5to?5MiniX?4?5Please?5wait@ 101b9ad8     MiniXDlg.obj
 0003:00001b04       ??_C@_0DE@MOLKPGHE@Please?5shut?5down?5high?5voltage?5be@ 101b9b04     MiniXDlg.obj
 0003:00001b48       __real@3fa999999999999a    101b9b48     MiniXDlg.obj
 0003:00001b58       __real@4010000000000000    101b9b58     MiniXDlg.obj
 0003:00001b68       __real@40b0000000000000    101b9b68     MiniXDlg.obj
 0003:00001b78       __real@4010624dd2f1a9fc    101b9b78     MiniXDlg.obj
 0003:00001b88       __real@4049000000000000    101b9b88     MiniXDlg.obj
 0003:00001b98       __real@4069000000000000    101b9b98     MiniXDlg.obj
 0003:00001ba8       __real@4013ffffbce4217d    101b9ba8     MiniXDlg.obj
 0003:00001bb8       __real@4024000000000000    101b9bb8     MiniXDlg.obj
 0003:00001bc8       __real@4044000000000000    101b9bc8     MiniXDlg.obj
 0003:00001bd8       __real@4023ffffde7210bf    101b9bd8     MiniXDlg.obj
 0003:00001be8       __real@402e000000000000    101b9be8     MiniXDlg.obj
 0003:00001bf4       ??_C@_0BD@PDLMCFGC@Generic?5X?9Ray?5Tube?$AA@ 101b9bf4     MiniXDlg.obj
 0003:00001c10       __real@4029000000000000    101b9c10     MiniXDlg.obj
 0003:00001c20       __real@4061e00000000000    101b9c20     MiniXDlg.obj
 0003:00001c30       __real@4034000000000000    101b9c30     MiniXDlg.obj
 0003:00001c40       __real@4051800000000000    101b9c40     MiniXDlg.obj
 0003:00001c50       __real@40417ffff79c8430    101b9c50     MiniXDlg.obj
 0003:00001c60       __real@4046800000000000    101b9c60     MiniXDlg.obj
 0003:00001c6c       ??_C@_0BN@ONLJOLN@Error?5setting?5clock?5divisor?4?$AA@ 101b9c6c     MiniXDlg.obj
 0003:00001c90       ??_C@_0N@IIGMFIEK@Mini?9X?5Ready?$AA@ 101b9c90     MiniXDlg.obj
 0003:00001ca0       __real@3ff0000000000000    101b9ca0     MiniXDlg.obj
 0003:00001cac       ??_C@_0CC@BPCMKGMB@Updating?5settings?4?5Please?5wait?4?4@ 101b9cac     MiniXDlg.obj
 0003:00001cd8       __real@3fb999999999999a    101b9cd8     MiniXDlg.obj
 0003:00001ce4       ??_C@_0BF@BMMKJAIJ@?$CFs?5?9?5MiniX?5Started?$AN?6?$AA@ 101b9ce4     MiniXDlg.obj
 0003:00001d00       ??_C@_0N@MECLJICD@MiniXLog?4txt?$AA@ 101b9d00     MiniXDlg.obj
 0003:00001d10       ??_C@_01NOFIACDB@w?$AA@    101b9d10     MiniXDlg.obj
 0003:00001d14       ??_C@_01MCMALHOG@a?$AA@    101b9d14     MiniXDlg.obj
 0003:00001d18       ??_C@_0BK@NLILDEMP@?$CF04d?$CF02d?$CF02d_?$CF02d?$CF02d?$CF02d?$AA@ 101b9d18     MiniXDlg.obj
 0003:00001d38       ??_C@_09KOADELOO@?$CFs?5?9?5?$CFs?$AN?6?$AA@ 101b9d38     MiniXDlg.obj
 0003:00001d44       ??_C@_0L@LOHGNHNB@0x?$CF?42X?$CF?42X?$AA@ 101b9d44     MiniXDlg.obj
 0003:00001d54       ??_C@_06GDNGKAHD@?$CF?40f?$LAC?$AA@ 101b9d54     MiniXDlg.obj
 0003:00001d5c       ??_C@_0DA@EGBLPNKD@Temperature?5Sensor?5too?5few?5data?5@ 101b9d5c     MiniXDlg.obj
 0003:00001d98       ??_C@_0CL@NFJKMPKH@Temperature?5Sensor?5read?5data?5sta@ 101b9d98     MiniXDlg.obj
 0003:00001dcc       ??_C@_0CI@JKCLDFDF@Temperature?5Sensor?5write?5command@ 101b9dcc     MiniXDlg.obj
 0003:00001dfc       ??_C@_0CA@OGBALBCE@Temperature?5Sensor?5setup?5error?4?$AA@ 101b9dfc     MiniXDlg.obj
 0003:00001e28       __real@4040000000000000    101b9e28     MiniXDlg.obj
 0003:00001e38       __real@4014000000000000    101b9e38     MiniXDlg.obj
 0003:00001e48       __real@4022000000000000    101b9e48     MiniXDlg.obj
 0003:00001e58       __real@3fb0000000000000    101b9e58     MiniXDlg.obj
 0003:00001e68       __real@405edd2f1a9fbe77    101b9e68     MiniXDlg.obj
 0003:00001e74       ?messageMap@CMiniXDLLApp@@1UAFX_MSGMAP@@B 101b9e74     MiniXDLL.obj
 0003:00001e80       ?_messageEntries@CMiniXDLLApp@@0QBUAFX_MSGMAP_ENTRY@@B 101b9e80     MiniXDLL.obj
 0003:00001ea0       ??_7CMiniXDLLApp@@6B@      101b9ea0     MiniXDLL.obj
 0003:00001f88       ?pmField@?$CVarTypeInfo@PATtagCY@@@ATL@@2QQtagVARIANT@@PATtagCY@@Q3@ 101b9f88     stdafx.obj
 0003:00001f8c       ?VT@?$CVarTypeInfo@PATtagCY@@@ATL@@2GB 101b9f8c     stdafx.obj
 0003:00001f90       ?pmField@?$CVarTypeInfo@TtagCY@@@ATL@@2QQtagVARIANT@@TtagCY@@Q3@ 101b9f90     stdafx.obj
 0003:00001f94       ?VT@?$CVarTypeInfo@TtagCY@@@ATL@@2GB 101b9f94     stdafx.obj
 0003:00001f98       ?pmField@?$CVarTypeInfo@PAPAUIDispatch@@@ATL@@2QQtagVARIANT@@PAPAUIDispatch@@Q3@ 101b9f98     stdafx.obj
 0003:00001f9c       ?VT@?$CVarTypeInfo@PAPAUIDispatch@@@ATL@@2GB 101b9f9c     stdafx.obj
 0003:00001fa0       ?pmField@?$CVarTypeInfo@PAUIDispatch@@@ATL@@2QQtagVARIANT@@PAUIDispatch@@Q3@ 101b9fa0     stdafx.obj
 0003:00001fa4       ?VT@?$CVarTypeInfo@PAUIDispatch@@@ATL@@2GB 101b9fa4     stdafx.obj
 0003:00001fa8       ?pmField@?$CVarTypeInfo@PAPAUIUnknown@@@ATL@@2QQtagVARIANT@@PAPAUIUnknown@@Q3@ 101b9fa8     stdafx.obj
 0003:00001fac       ?VT@?$CVarTypeInfo@PAPAUIUnknown@@@ATL@@2GB 101b9fac     stdafx.obj
 0003:00001fb0       ?pmField@?$CVarTypeInfo@PAUIUnknown@@@ATL@@2QQtagVARIANT@@PAUIUnknown@@Q3@ 101b9fb0     stdafx.obj
 0003:00001fb4       ?VT@?$CVarTypeInfo@PAUIUnknown@@@ATL@@2GB 101b9fb4     stdafx.obj
 0003:00001fb8       ?pmField@?$CVarTypeInfo@PAPA_W@ATL@@2QQtagVARIANT@@PAPA_WQ3@ 101b9fb8     stdafx.obj
 0003:00001fbc       ?VT@?$CVarTypeInfo@PAPA_W@ATL@@2GB 101b9fbc     stdafx.obj
 0003:00001fc0       ?pmField@?$CVarTypeInfo@PA_W@ATL@@2QQtagVARIANT@@PA_WQ3@ 101b9fc0     stdafx.obj
 0003:00001fc4       ?VT@?$CVarTypeInfo@PA_W@ATL@@2GB 101b9fc4     stdafx.obj
 0003:00001fc8       ?VT@?$CVarTypeInfo@UtagVARIANT@@@ATL@@2GB 101b9fc8     stdafx.obj
 0003:00001fcc       ?pmField@?$CVarTypeInfo@PAN@ATL@@2QQtagVARIANT@@PANQ3@ 101b9fcc     stdafx.obj
 0003:00001fd0       ?VT@?$CVarTypeInfo@PAN@ATL@@2GB 101b9fd0     stdafx.obj
 0003:00001fd4       ?pmField@?$CVarTypeInfo@N@ATL@@2QQtagVARIANT@@NQ3@ 101b9fd4     stdafx.obj
 0003:00001fd8       ?VT@?$CVarTypeInfo@N@ATL@@2GB 101b9fd8     stdafx.obj
 0003:00001fdc       ?pmField@?$CVarTypeInfo@PAM@ATL@@2QQtagVARIANT@@PAMQ3@ 101b9fdc     stdafx.obj
 0003:00001fe0       ?VT@?$CVarTypeInfo@PAM@ATL@@2GB 101b9fe0     stdafx.obj
 0003:00001fe4       ?pmField@?$CVarTypeInfo@M@ATL@@2QQtagVARIANT@@MQ3@ 101b9fe4     stdafx.obj
 0003:00001fe8       ?VT@?$CVarTypeInfo@M@ATL@@2GB 101b9fe8     stdafx.obj
 0003:00001fec       ?pmField@?$CVarTypeInfo@PA_K@ATL@@2QQtagVARIANT@@PA_KQ3@ 101b9fec     stdafx.obj
 0003:00001ff0       ?VT@?$CVarTypeInfo@PA_K@ATL@@2GB 101b9ff0     stdafx.obj
 0003:00001ff4       ?pmField@?$CVarTypeInfo@_K@ATL@@2QQtagVARIANT@@_KQ3@ 101b9ff4     stdafx.obj
 0003:00001ff8       ?VT@?$CVarTypeInfo@_K@ATL@@2GB 101b9ff8     stdafx.obj
 0003:00001ffc       ?pmField@?$CVarTypeInfo@PA_J@ATL@@2QQtagVARIANT@@PA_JQ3@ 101b9ffc     stdafx.obj
 0003:00002000       ?VT@?$CVarTypeInfo@PA_J@ATL@@2GB 101ba000     stdafx.obj
 0003:00002004       ?pmField@?$CVarTypeInfo@_J@ATL@@2QQtagVARIANT@@_JQ3@ 101ba004     stdafx.obj
 0003:00002008       ?VT@?$CVarTypeInfo@_J@ATL@@2GB 101ba008     stdafx.obj
 0003:0000200c       ?pmField@?$CVarTypeInfo@PAK@ATL@@2QQtagVARIANT@@PAKQ3@ 101ba00c     stdafx.obj
 0003:00002010       ?VT@?$CVarTypeInfo@PAK@ATL@@2GB 101ba010     stdafx.obj
 0003:00002014       ?pmField@?$CVarTypeInfo@K@ATL@@2QQtagVARIANT@@KQ3@ 101ba014     stdafx.obj
 0003:00002018       ?VT@?$CVarTypeInfo@K@ATL@@2GB 101ba018     stdafx.obj
 0003:0000201c       ?pmField@?$CVarTypeInfo@PAJ@ATL@@2QQtagVARIANT@@PAJQ3@ 101ba01c     stdafx.obj
 0003:00002020       ?VT@?$CVarTypeInfo@PAJ@ATL@@2GB 101ba020     stdafx.obj
 0003:00002024       ?pmField@?$CVarTypeInfo@J@ATL@@2QQtagVARIANT@@JQ3@ 101ba024     stdafx.obj
 0003:00002028       ?VT@?$CVarTypeInfo@J@ATL@@2GB 101ba028     stdafx.obj
 0003:0000202c       ?pmField@?$CVarTypeInfo@PAI@ATL@@2QQtagVARIANT@@PAIQ3@ 101ba02c     stdafx.obj
 0003:00002030       ?VT@?$CVarTypeInfo@PAI@ATL@@2GB 101ba030     stdafx.obj
 0003:00002034       ?pmField@?$CVarTypeInfo@I@ATL@@2QQtagVARIANT@@IQ3@ 101ba034     stdafx.obj
 0003:00002038       ?VT@?$CVarTypeInfo@I@ATL@@2GB 101ba038     stdafx.obj
 0003:0000203c       ?pmField@?$CVarTypeInfo@PAH@ATL@@2QQtagVARIANT@@PAHQ3@ 101ba03c     stdafx.obj
 0003:00002040       ?VT@?$CVarTypeInfo@PAH@ATL@@2GB 101ba040     stdafx.obj
 0003:00002044       ?pmField@?$CVarTypeInfo@H@ATL@@2QQtagVARIANT@@HQ3@ 101ba044     stdafx.obj
 0003:00002048       ?VT@?$CVarTypeInfo@H@ATL@@2GB 101ba048     stdafx.obj
 0003:0000204c       ?pmField@?$CVarTypeInfo@PAG@ATL@@2QQtagVARIANT@@PAGQ3@ 101ba04c     stdafx.obj
 0003:00002050       ?VT@?$CVarTypeInfo@PAG@ATL@@2GB 101ba050     stdafx.obj
 0003:00002054       ?pmField@?$CVarTypeInfo@G@ATL@@2QQtagVARIANT@@GQ3@ 101ba054     stdafx.obj
 0003:00002058       ?VT@?$CVarTypeInfo@G@ATL@@2GB 101ba058     stdafx.obj
 0003:0000205c       ?pmField@?$CVarTypeInfo@PAF@ATL@@2QQtagVARIANT@@PAFQ3@ 101ba05c     stdafx.obj
 0003:00002060       ?VT@?$CVarTypeInfo@PAF@ATL@@2GB 101ba060     stdafx.obj
 0003:00002064       ?pmField@?$CVarTypeInfo@F@ATL@@2QQtagVARIANT@@FQ3@ 101ba064     stdafx.obj
 0003:00002068       ?VT@?$CVarTypeInfo@F@ATL@@2GB 101ba068     stdafx.obj
 0003:0000206c       ?pmField@?$CVarTypeInfo@PAE@ATL@@2QQtagVARIANT@@PAEQ3@ 101ba06c     stdafx.obj
 0003:00002070       ?VT@?$CVarTypeInfo@PAE@ATL@@2GB 101ba070     stdafx.obj
 0003:00002074       ?pmField@?$CVarTypeInfo@PAD@ATL@@2QQtagVARIANT@@PADQ3@ 101ba074     stdafx.obj
 0003:00002078       ?VT@?$CVarTypeInfo@PAD@ATL@@2GB 101ba078     stdafx.obj
 0003:0000207c       ?pmField@?$CVarTypeInfo@E@ATL@@2QQtagVARIANT@@EQ3@ 101ba07c     stdafx.obj
 0003:00002080       ?VT@?$CVarTypeInfo@E@ATL@@2GB 101ba080     stdafx.obj
 0003:00002084       ?pmField@?$CVarTypeInfo@D@ATL@@2QQtagVARIANT@@DQ3@ 101ba084     stdafx.obj
 0003:00002088       ?VT@?$CVarTypeInfo@D@ATL@@2GB 101ba088     stdafx.obj
 0003:0000208c       ?szInvalidDateTimeSpan@ATL@@3QBDB 101ba08c     stdafx.obj
 0003:00002090       ??_C@_0BF@GPPHKJFN@Invalid?5DateTimeSpan?$AA@ 101ba090     stdafx.obj
 0003:000020ac       ?szInvalidDateTime@ATL@@3QBDB 101ba0ac     stdafx.obj
 0003:000020b0       ??_C@_0BB@KEKMKJPM@Invalid?5DateTime?$AA@ 101ba0b0     stdafx.obj
 0003:000020c8       ?Week@CFileTime@ATL@@2_KB  101ba0c8     stdafx.obj
 0003:000020d8       ?Day@CFileTime@ATL@@2_KB   101ba0d8     stdafx.obj
 0003:000020e8       ?Hour@CFileTime@ATL@@2_KB  101ba0e8     stdafx.obj
 0003:000020f8       ?Minute@CFileTime@ATL@@2_KB 101ba0f8     stdafx.obj
 0003:00002108       ?Second@CFileTime@ATL@@2_KB 101ba108     stdafx.obj
 0003:00002118       ?Millisecond@CFileTime@ATL@@2_KB 101ba118     stdafx.obj
 0003:00002121       ?c_bIsMFCDLLTraits@?$_MFCDLLTraitsCheck@DV?$StrTraitMFC@DV?$ChTraitsCRT@D@ATL@@@@@_CSTRING_IMPL_@ATL@@2_NB 101ba121     stdafx.obj
 0003:00002124       ??_C@_0BA@CLMJJCOM@nSize?5?$DO?$DN?5nSizeW?$AA@ 101ba124     stdafx.obj
 0003:00002148       ??_C@_08DMHHBMMN@lpa?5?$CB?$DN?50?$AA@ 101ba148     stdafx.obj
 0003:00002158       ??_C@_0FA@KKCDAKCB@c?3?2program?5files?2microsoft?5visua@ 101ba158     stdafx.obj
 0003:000021b8       ??_C@_08DIHJLFDJ@lpw?5?$CB?$DN?50?$AA@ 101ba1b8     stdafx.obj
 0003:000021c8       ??_C@_0FB@KPHLOKHB@c?3?2program?5files?2microsoft?5visua@ 101ba1c8     stdafx.obj
 0003:0000222c       ??_C@_08GPODJFIN@m_p?5?$DN?$DN?50?$AA@ 101ba22c     stdafx.obj
 0003:00002238       ?messageMap@CSXButton@@1UAFX_MSGMAP@@B 101ba238     Sxbutton.obj
 0003:00002244       ?_messageEntries@CSXButton@@0QBUAFX_MSGMAP_ENTRY@@B 101ba244     Sxbutton.obj
 0003:00002260       ??_7CSXButton@@6B@         101ba260     Sxbutton.obj
 0003:000023e0       ??_C@_04EEHPFMA@?4EXE?$AA@ 101ba3e0     VersionInfo.obj
 0003:000023e8       ??_7CVersionInfo@@6B@      101ba3e8     VersionInfo.obj
 0003:000023ec       ??_C@_0M@MNPNDAHP@ProductName?$AA@ 101ba3ec     VersionInfo.obj
 0003:000023fc       ??_C@_0P@PLANDJKO@ProductVersion?$AA@ 101ba3fc     VersionInfo.obj
 0003:00002410       ??_C@_0M@DHIAIDA@CompanyName?$AA@ 101ba410     VersionInfo.obj
 0003:00002420       ??_C@_0P@GPLMJBMD@LegalCopyright?$AA@ 101ba420     VersionInfo.obj
 0003:00002434       ??_C@_08HEOIMFJB@Comments?$AA@ 101ba434     VersionInfo.obj
 0003:00002440       ??_C@_0BA@IMJFJNNG@FileDescription?$AA@ 101ba440     VersionInfo.obj
 0003:00002454       ??_C@_0M@OBEGHOED@FileVersion?$AA@ 101ba454     VersionInfo.obj
 0003:00002464       ??_C@_0N@HNKBDBI@InternalName?$AA@ 101ba464     VersionInfo.obj
 0003:00002474       ??_C@_0BA@JBPOOKDG@LegalTrademarks?$AA@ 101ba474     VersionInfo.obj
 0003:00002488       ??_C@_0N@COOCEFHM@PrivateBuild?$AA@ 101ba488     VersionInfo.obj
 0003:00002498       ??_C@_0N@KOJFLHMC@SpecialBuild?$AA@ 101ba498     VersionInfo.obj
 0003:000024a8       ??_C@_08NCIOJHEK@?$CF04x?$CF04x?$AA@ 101ba4a8     VersionInfo.obj
 0003:000024b4       ??_C@_0BJ@KPNNKBCP@?2VarFileInfo?2Translation?$AA@ 101ba4b4     VersionInfo.obj
 0003:000024d4       ??_C@_0BG@GNPADPKA@?2StringFileInfo?2?$CFs?2?$CFs?$AA@ 101ba4d4     VersionInfo.obj
 0003:0000258c       ?classCWnd@CWnd@@2UCRuntimeClass@@B 101ba58c     nafxcwd:wincore.obj
 0003:00002844       ?_afxWnd@@3QBDB            101ba844     nafxcwd:wincore.obj
 0003:00002850       ?_afxWndControlBar@@3QBDB  101ba850     nafxcwd:wincore.obj
 0003:00002864       ?_afxWndMDIFrame@@3QBDB    101ba864     nafxcwd:wincore.obj
 0003:00002874       ?_afxWndFrameOrView@@3QBDB 101ba874     nafxcwd:wincore.obj
 0003:00002888       ?_afxWndOleControl@@3QBDB  101ba888     nafxcwd:wincore.obj
 0003:000038a8       ?interfaceMap@CWnd@@1UAFX_INTERFACEMAP@@B 101bb8a8     nafxcwd:wincore.obj
 0003:000038b4       ?_interfaceEntries@CWnd@@0QBUAFX_INTERFACEMAP_ENTRY@@B 101bb8b4     nafxcwd:wincore.obj
 0003:000038c0       ?messageMap@CWnd@@1UAFX_MSGMAP@@B 101bb8c0     nafxcwd:wincore.obj
 0003:000038d0       ?_messageEntries@CWnd@@0QBUAFX_MSGMAP_ENTRY@@B 101bb8d0     nafxcwd:wincore.obj
 0003:00003c30       ?_afxOldWndProc@@3QBDB     101bbc30     nafxcwd:wincore.obj
 0003:00003c4c       ??_7CWnd@@6B@              101bbc4c     nafxcwd:wincore.obj
 0003:00003dcc       ??_7XAccessible@CWnd@@6B@  101bbdcc     nafxcwd:wincore.obj
 0003:00003e58       ??_7XAccessibleServer@CWnd@@6B@ 101bbe58     nafxcwd:wincore.obj
 0003:00003e7c       ??_7_AFX_HTMLHELP_STATE@@6B@ 101bbe7c     nafxcwd:wincore.obj
 0003:00003e88       ??_7CNoTrackObject@@6B@    101bbe88     nafxcwd:wincore.obj
 0003:00003e94       ??_7CTestCmdUI@@6B@        101bbe94     nafxcwd:wincore.obj
 0003:00003ea8       __GUID_618736e0_3c3d_11cf_810c_00aa00389b71 101bbea8     nafxcwd:wincore.obj
 0003:00003ebc       ??_C@_0DL@DFNCKILC@f?3?2vs70builds?23077?2vc?2MFCATL?2shi@ 101bbebc     nafxcwd:wincore.obj
 0003:00003f04       ??_C@_0M@FDAIEFCG@wincore?4cpp?$AA@ 101bbf04     nafxcwd:wincore.obj
 0003:00003f14       ??_C@_07MEKCDCMA@pp?5?$CB?$DN?50?$AA@ 101bbf14     nafxcwd:wincore.obj
 0003:00003f20       ??_C@_0DN@NBCOGALN@f?3?2vs70builds?23077?2vc?2MFCATL?2shi@ 101bbf20     nafxcwd:wincore.obj
 0003:00003f6c       ??_C@_04DBLLIIGB@p?$DN?$DN0?$AA@ 101bbf6c     nafxcwd:wincore.obj
 0003:00003f74       ??_C@_04CLHEGAEG@p?$CB?$DN0?$AA@ 101bbf74     nafxcwd:wincore.obj
 0003:00003f80       ??_7?$CMFCComObject@VCAccessibleProxy@ATL@@@@6B@ 101bbf80     nafxcwd:wincore.obj
 0003:00003f9c       ??_7?$CMFCComObject@VCAccessibleProxy@ATL@@@@6BIAccessibleProxy@@@ 101bbf9c     nafxcwd:wincore.obj
 0003:00003fb4       ??_7?$CMFCComObject@VCAccessibleProxy@ATL@@@@6BIAccessible@@@ 101bbfb4     nafxcwd:wincore.obj
 0003:00004044       ??_7?$IAccessibleProxyImpl@VCAccessibleProxy@ATL@@@ATL@@6BIAccessibleProxy@@@ 101bc044     nafxcwd:wincore.obj
 0003:0000405c       ??_7?$IAccessibleProxyImpl@VCAccessibleProxy@ATL@@@ATL@@6BIAccessible@@@ 101bc05c     nafxcwd:wincore.obj
 0003:000040e4       __GUID_00000114_0000_0000_c000_000000000046 101bc0e4     nafxcwd:wincore.obj
 0003:000040f8       __GUID_00020400_0000_0000_c000_000000000046 101bc0f8     nafxcwd:wincore.obj
 0003:0000410c       __GUID_7a7d9dcf_b7a1_4019_9031_258268846980 101bc10c     nafxcwd:wincore.obj
 0003:00004120       ??_C@_0BB@HFIGCLPO@CAccessibleProxy?$AA@ 101bc120     nafxcwd:wincore.obj
 0003:00004138       ?_entries@?1??_GetEntries@CAccessibleProxy@ATL@@SGPBU_ATL_INTMAP_ENTRY@3@XZ@4QBU43@B 101bc138     nafxcwd:wincore.obj
 0003:00004190       ??_C@_0DC@BBKMJDPM@pEntries?9?$DOpFunc?5?$DN?$DN?5?$CI?$CIATL?3?3_ATL_C@ 101bc190     nafxcwd:wincore.obj
 0003:000041cc       ??_C@_0L@DBHNDLKF@pThis?5?$CB?$DN?50?$AA@ 101bc1cc     nafxcwd:wincore.obj
 0003:000041dc       ??_C@_0DK@JDMDKNHC@f?3?2vs70builds?23077?2vc?2MFCATL?2shi@ 101bc1dc     nafxcwd:wincore.obj
 0003:00004224       ??_C@_0P@BMHEGBAP@ppvObject?5?$CB?$DN?50?$AA@ 101bc224     nafxcwd:wincore.obj
 0003:00004238       ??_C@_0N@JELNCKOF@m_dwRef?5?$DN?$DN?50?$AA@ 101bc238     nafxcwd:wincore.obj
 0003:00004248       ??_C@_0P@IDNKKMJE@m_dwRef?5?$CB?$DN?5?91L?$AA@ 101bc248     nafxcwd:wincore.obj
 0003:00004260       ??_C@_0EC@FOHBGNDM@0?5?$CG?$CG?5?$CCRelease?5called?5on?5a?5pointe@ 101bc260     nafxcwd:wincore.obj
 0003:000042b0       ??_C@_0DO@IFJLNMNK@f?3?2vs70builds?23077?2vc?2MFCATL?2shi@ 101bc2b0     nafxcwd:wincore.obj
 0003:000042fc       ??_C@_0DN@FFEPEMIE@f?3?2vs70builds?23077?2vc?2MFCATL?2shi@ 101bc2fc     nafxcwd:wincore.obj
 0003:00004348       ?classCScrollBar@CScrollBar@@2UCRuntimeClass@@B 101bc348     nafxcwd:winctrl1.obj
 0003:0000458c       ?classCEdit@CEdit@@2UCRuntimeClass@@B 101bc58c     nafxcwd:winctrl1.obj
 0003:000045b0       ?classCComboBox@CComboBox@@2UCRuntimeClass@@B 101bc5b0     nafxcwd:winctrl1.obj
 0003:000045d4       ?classCListBox@CListBox@@2UCRuntimeClass@@B 101bc5d4     nafxcwd:winctrl1.obj
 0003:000045f8       ?classCButton@CButton@@2UCRuntimeClass@@B 101bc5f8     nafxcwd:winctrl1.obj
 0003:0000461c       ?classCStatic@CStatic@@2UCRuntimeClass@@B 101bc61c     nafxcwd:winctrl1.obj
 0003:00004644       ??_7CStatic@@6B@           101bc644     nafxcwd:winctrl1.obj
 0003:000047cc       ??_7CButton@@6B@           101bc7cc     nafxcwd:winctrl1.obj
 0003:00004954       ??_7CListBox@@6B@          101bc954     nafxcwd:winctrl1.obj
 0003:00004af4       ??_7CComboBox@@6B@         101bcaf4     nafxcwd:winctrl1.obj
 0003:00004c8c       ??_7CEdit@@6B@             101bcc8c     nafxcwd:winctrl1.obj
 0003:00004e0c       ??_7CScrollBar@@6B@        101bce0c     nafxcwd:winctrl1.obj
 0003:0000a2dc       ??_7CCheckListBox@@6B@     101c22dc     nafxcwd:afxinl3.obj
 0003:0000a47c       ?classCCmdTarget@CCmdTarget@@2UCRuntimeClass@@B 101c247c     nafxcwd:cmdtarg.obj
 0003:0000a680       ?_messageEntries@CCmdTarget@@0QBUAFX_MSGMAP_ENTRY@@B 101c2680     nafxcwd:cmdtarg.obj
 0003:0000a698       ?messageMap@CCmdTarget@@1UAFX_MSGMAP@@B 101c2698     nafxcwd:cmdtarg.obj
 0003:0000a6a0       ?_dispatchEntries@CCmdTarget@@0QBUAFX_DISPMAP_ENTRY@@B 101c26a0     nafxcwd:cmdtarg.obj
 0003:0000a6c0       ?dispatchMap@CCmdTarget@@1UAFX_DISPMAP@@B 101c26c0     nafxcwd:cmdtarg.obj
 0003:0000a6d0       ?_eventsinkEntries@CCmdTarget@@0QBUAFX_EVENTSINKMAP_ENTRY@@B 101c26d0     nafxcwd:cmdtarg.obj
 0003:0000a6f8       ?eventsinkMap@CCmdTarget@@1UAFX_EVENTSINKMAP@@B 101c26f8     nafxcwd:cmdtarg.obj
 0003:0000a704       ?_interfaceEntries@CCmdTarget@@0QBUAFX_INTERFACEMAP_ENTRY@@B 101c2704     nafxcwd:cmdtarg.obj
 0003:0000a714       ?interfaceMap@CCmdTarget@@1UAFX_INTERFACEMAP@@B 101c2714     nafxcwd:cmdtarg.obj
 0003:0000a71c       ?_connectionEntries@CCmdTarget@@0QBUAFX_CONNECTIONMAP_ENTRY@@B 101c271c     nafxcwd:cmdtarg.obj
 0003:0000a724       ?connectionMap@CCmdTarget@@1UAFX_CONNECTIONMAP@@B 101c2724     nafxcwd:cmdtarg.obj
 0003:0000a72c       ?_commandEntries@CCmdTarget@@0QBUAFX_OLECMDMAP_ENTRY@@B 101c272c     nafxcwd:cmdtarg.obj
 0003:0000a738       ?commandMap@CCmdTarget@@1UAFX_OLECMDMAP@@B 101c2738     nafxcwd:cmdtarg.obj
 0003:0000aa28       ?_afxDot@@3QBEB            101c2a28     nafxcwd:cmdtarg.obj
 0003:0000aa34       ??_7CCmdTarget@@6B@        101c2a34     nafxcwd:cmdtarg.obj
 0003:0000aaa4       ??_7CCmdUI@@6B@            101c2aa4     nafxcwd:cmdtarg.obj
 0003:0000c394       ??_7CObject@@6B@           101c4394     nafxcwd:afxinl1.obj
 0003:0000c3b0       ??_7CException@@6B@        101c43b0     nafxcwd:afxinl1.obj
 0003:0000c3d8       ??_7CSimpleException@@6B@  101c43d8     nafxcwd:afxinl1.obj
 0003:0000c400       ??_7CMemoryException@@6B@  101c4400     nafxcwd:afxinl1.obj
 0003:0000c428       ??_7CNotSupportedException@@6B@ 101c4428     nafxcwd:afxinl1.obj
 0003:0000c450       ??_7CInvalidArgException@@6B@ 101c4450     nafxcwd:afxinl1.obj
 0003:0000c478       ??_7CArchiveException@@6B@ 101c4478     nafxcwd:afxinl1.obj
 0003:0000c4a0       ??_7CFileException@@6B@    101c44a0     nafxcwd:afxinl1.obj
 0003:0000c4cc       ??_7CCommonDialog@@6B@     101c44cc     nafxcwd:afxinl1.obj
 0003:0000c678       ??_7CRectTracker@@6B@      101c4678     nafxcwd:afxinl1.obj
 0003:0000c69c       ??_7CBitmapButton@@6B@     101c469c     nafxcwd:afxinl1.obj
 0003:0000c81c       ??_C@_0DM@JNEIDLEI@f?3?2vs70builds?23077?2vc?2MFCATL?2shi@ 101c481c     nafxcwd:afxinl1.obj
 0003:00011198       ??_7CResourceException@@6B@ 101c9198     nafxcwd:afxinl2.obj
 0003:000111c0       ??_7CUserException@@6B@    101c91c0     nafxcwd:afxinl2.obj
 0003:000111e8       ??_7CGdiObject@@6B@        101c91e8     nafxcwd:afxinl2.obj
 0003:00011204       ??_7CPen@@6B@              101c9204     nafxcwd:afxinl2.obj
 0003:00011220       ??_7CBrush@@6B@            101c9220     nafxcwd:afxinl2.obj
 0003:0001123c       ??_7CFont@@6B@             101c923c     nafxcwd:afxinl2.obj
 0003:00011258       ??_7CBitmap@@6B@           101c9258     nafxcwd:afxinl2.obj
 0003:00011274       ??_7CPalette@@6B@          101c9274     nafxcwd:afxinl2.obj
 0003:00011290       ??_7CRgn@@6B@              101c9290     nafxcwd:afxinl2.obj
 0003:000112ac       ??_7CMenu@@6B@             101c92ac     nafxcwd:afxinl2.obj
 0003:000112d0       ?_pfnUninitialized@@3Q6AHI@ZA 101c92d0     nafxcwd:afxmem.obj
 0003:00011f7c       ?classCRgn@CRgn@@2UCRuntimeClass@@B 101c9f7c     nafxcwd:wingdi.obj
 0003:00011fa0       ?classCPalette@CPalette@@2UCRuntimeClass@@B 101c9fa0     nafxcwd:wingdi.obj
 0003:00011fc4       ?classCBitmap@CBitmap@@2UCRuntimeClass@@B 101c9fc4     nafxcwd:wingdi.obj
 0003:00011fe8       ?classCFont@CFont@@2UCRuntimeClass@@B 101c9fe8     nafxcwd:wingdi.obj
 0003:0001200c       ?classCBrush@CBrush@@2UCRuntimeClass@@B 101ca00c     nafxcwd:wingdi.obj
 0003:00012030       ?classCPen@CPen@@2UCRuntimeClass@@B 101ca030     nafxcwd:wingdi.obj
 0003:00012054       ?classCGdiObject@CGdiObject@@2UCRuntimeClass@@B 101ca054     nafxcwd:wingdi.obj
 0003:00012078       ?classCPaintDC@CPaintDC@@2UCRuntimeClass@@B 101ca078     nafxcwd:wingdi.obj
 0003:0001209c       ?classCWindowDC@CWindowDC@@2UCRuntimeClass@@B 101ca09c     nafxcwd:wingdi.obj
 0003:000120c0       ?classCClientDC@CClientDC@@2UCRuntimeClass@@B 101ca0c0     nafxcwd:wingdi.obj
 0003:000120e4       ?classCDC@CDC@@2UCRuntimeClass@@B 101ca0e4     nafxcwd:wingdi.obj
 0003:00012108       ?classCUserException@CUserException@@2UCRuntimeClass@@B 101ca108     nafxcwd:wingdi.obj
 0003:0001212c       ?classCResourceException@CResourceException@@2UCRuntimeClass@@B 101ca12c     nafxcwd:wingdi.obj
 0003:00012154       ??_7CDC@@6B@               101ca154     nafxcwd:wingdi.obj
 0003:000121f4       ??_7CClientDC@@6B@         101ca1f4     nafxcwd:wingdi.obj
 0003:00012294       ??_7CWindowDC@@6B@         101ca294     nafxcwd:wingdi.obj
 0003:00012334       ??_7CPaintDC@@6B@          101ca334     nafxcwd:wingdi.obj
 0003:000126dc       ??_7CStringList@@6B@       101ca6dc     nafxcwd:list_s.obj
 0003:000126f4       ??_C@_0DM@CAJKOFBK@f?3?2vs70builds?23077?2vc?2MFCATL?2shi@ 101ca6f4     nafxcwd:list_s.obj
 0003:00012923       ?c_bIsMFCDLLTraits@?$_MFCDLLTraitsCheck@_WV?$StrTraitMFC@_WV?$ChTraitsCRT@_W@ATL@@@@@_CSTRING_IMPL_@ATL@@2_NB 101ca923     nafxcwd:strcore.obj
 0003:00012924       ??_C@_0DL@COLCJOPN@f?3?2vs70builds?23077?2vc?2MFCATL?2shi@ 101ca924     nafxcwd:strcore.obj
 0003:00012970       ??_7CAfxStringMgr@@6B@     101ca970     nafxcwd:strcore.obj
 0003:00012988       ??_C@_0BA@MLJMCNFJ@pStringMgr?5?$DN?$DN?50?$AA@ 101ca988     nafxcwd:strcore.obj
 0003:0001299c       ?classCOleException@COleException@@2UCRuntimeClass@@B 101ca99c     nafxcwd:olemisc.obj
 0003:00015580       ??_C@_0BA@FHEEPEEM@lpDevModeW?5?$CB?$DN?50?$AA@ 101cd580     nafxcwd:olemisc.obj
 0003:00015594       ??_C@_0BA@FDEKFNLI@lpDevModeA?5?$CB?$DN?50?$AA@ 101cd594     nafxcwd:olemisc.obj
 0003:00015640       ?classCInvalidArgException@CInvalidArgException@@2UCRuntimeClass@@B 101cd640     nafxcwd:except.obj
 0003:00015664       ?classCNotSupportedException@CNotSupportedException@@2UCRuntimeClass@@B 101cd664     nafxcwd:except.obj
 0003:00015688       ?classCMemoryException@CMemoryException@@2UCRuntimeClass@@B 101cd688     nafxcwd:except.obj
 0003:000156ac       ?classCException@CException@@2UCRuntimeClass@@B 101cd6ac     nafxcwd:except.obj
 0003:000156d0       ?classCWinThread@CWinThread@@2UCRuntimeClass@@B 101cd6d0     nafxcwd:thrdcore.obj
 0003:00015d84       ??_7CWinThread@@6B@        101cdd84     nafxcwd:thrdcore.obj
 0003:00015e24       ?classCDialog@CDialog@@2UCRuntimeClass@@B 101cde24     nafxcwd:dlgcore.obj
 0003:0001667c       ?messageMap@CDialog@@1UAFX_MSGMAP@@B 101ce67c     nafxcwd:dlgcore.obj
 0003:00016688       ?_messageEntries@CDialog@@0QBUAFX_MSGMAP_ENTRY@@B 101ce688     nafxcwd:dlgcore.obj
 0003:00016774       ??_7CDialog@@6B@           101ce774     nafxcwd:dlgcore.obj
 0003:00016ed4       ?classCWinApp@CWinApp@@2UCRuntimeClass@@B 101ceed4     nafxcwd:appcore.obj
 0003:00017558       ?messageMap@CWinApp@@1UAFX_MSGMAP@@B 101cf558     nafxcwd:appcore.obj
 0003:00017568       ?_messageEntries@CWinApp@@0QBUAFX_MSGMAP_ENTRY@@B 101cf568     nafxcwd:appcore.obj
 0003:000175dc       ?_afxPreviewEntry@@3QBDB   101cf5dc     nafxcwd:appcore.obj
 0003:000175ec       ?_afxPreviewSection@@3QBDB 101cf5ec     nafxcwd:appcore.obj
 0003:000175f8       ?_afxFileEntry@@3QBDB      101cf5f8     nafxcwd:appcore.obj
 0003:00017600       ?_afxFileSection@@3QBDB    101cf600     nafxcwd:appcore.obj
 0003:0001761c       ??_7CWinApp@@6B@           101cf61c     nafxcwd:appcore.obj
 0003:00017708       ??_7CCommandLineInfo@@6B@  101cf708     nafxcwd:appcore.obj
 0003:00017728       ??_C@_0DK@IDMMGDHN@f?3?2vs70builds?23077?2vc?2MFCATL?2shi@ 101cf728     nafxcwd:appcore.obj
 0003:00017928       ?classCOleObjectFactory@COleObjectFactory@@2UCRuntimeClass@@B 101cf928     nafxcwd:olefact.obj
 0003:00017c74       ?interfaceMap@COleObjectFactory@@1UAFX_INTERFACEMAP@@B 101cfc74     nafxcwd:olefact.obj
 0003:00017c80       ?_interfaceEntries@COleObjectFactory@@0QBUAFX_INTERFACEMAP_ENTRY@@B 101cfc80     nafxcwd:olefact.obj
 0003:00017ca4       ??_7COleObjectFactory@@6B@ 101cfca4     nafxcwd:olefact.obj
 0003:00017d34       ??_7XClassFactory@COleObjectFactory@@6B@ 101cfd34     nafxcwd:olefact.obj
 0003:00017e70       ??_7CThreadData@@6B@       101cfe70     nafxcwd:afxtls.obj
 0003:00017e78       ??_C@_0L@FHLGAMKL@afxtls?4cpp?$AA@ 101cfe78     nafxcwd:afxtls.obj
 0003:00017ff8       ??_7CHandleMap@@6B@        101cfff8     nafxcwd:winhand.obj
 0003:000181a4       ??_7_AFX_THREAD_STATE@@6B@ 101d01a4     nafxcwd:afxstate.obj
 0003:000181b0       ??_7AFX_MODULE_STATE@@6B@  101d01b0     nafxcwd:afxstate.obj
 0003:000181bc       ??_7AFX_MODULE_THREAD_STATE@@6B@ 101d01bc     nafxcwd:afxstate.obj
 0003:000181c8       ??_7_AFX_BASE_MODULE_STATE@@6B@ 101d01c8     nafxcwd:afxstate.obj
 0003:000183e8       ?classCObject@CObject@@2UCRuntimeClass@@B 101d03e8     nafxcwd:objcore.obj
 0003:00018674       ?cbNeverDelete@CRegParser@ATL@@1HB 101d0674     nafxcwd:objcore.obj
 0003:00018678       ?rgszNeverDelete@CRegParser@ATL@@1QBQBDB 101d0678     nafxcwd:objcore.obj
 0003:000186b4       ?MAX_TYPE@CRegParser@ATL@@1HB 101d06b4     nafxcwd:objcore.obj
 0003:000186b8       ?MAX_VALUE@CRegParser@ATL@@1HB 101d06b8     nafxcwd:objcore.obj
 0003:000186bc       _CLSID_StdGlobalInterfaceTable 101d06bc     nafxcwd:objcore.obj
 0003:000186d0       _IID_IAxWinAmbientDispatchEx 101d06d0     nafxcwd:objcore.obj
 0003:000186e4       _IID_IAxWinHostWindowLic   101d06e4     nafxcwd:objcore.obj
 0003:000186f8       _IID_IDocHostUIHandlerDispatch 101d06f8     nafxcwd:objcore.obj
 0003:0001870c       _IID_IInternalConnection   101d070c     nafxcwd:objcore.obj
 0003:00018720       _IID_IAxWinAmbientDispatch 101d0720     nafxcwd:objcore.obj
 0003:00018734       _IID_IAxWinHostWindow      101d0734     nafxcwd:objcore.obj
 0003:00018748       _IID_IRegistrar            101d0748     nafxcwd:objcore.obj
 0003:0001875c       _CLSID_Registrar           101d075c     nafxcwd:objcore.obj
 0003:00018770       _LIBID_ATLLib              101d0770     nafxcwd:objcore.obj
 0003:00018784       ??_C@_0DP@FPLCGHAI@f?3?2vs70builds?23077?2vc?2MFCATL?2shi@ 101d0784     nafxcwd:objcore.obj
 0003:000187d0       ??_C@_0CA@CLKCNBMB@nIndex?5?$DO?$DN?50?5?$CG?$CG?5nIndex?5?$DM?5m_nSize?$AA@ 101d07d0     nafxcwd:objcore.obj
 0003:0001a20c       ??_C@_0CD@HFEEKIIE@mbstr?5?$DN?$DN?50?5?$HM?$HM?5result?5?$DM?$DN?5?$CIint?$CJcou@ 101d220c     nafxcwd:dumpcont.obj
 0003:0001a238       ?classCMenu@CMenu@@2UCRuntimeClass@@B 101d2238     nafxcwd:winmenu.obj
 0003:0001a354       ??_7CChevronOwnerDrawMenu@@6B@ 101d2354     nafxcwd:winmenu.obj
 0003:0001a378       ?classCMapPtrToPtr@CMapPtrToPtr@@2UCRuntimeClass@@B 101d2378     nafxcwd:map_pp.obj
 0003:0001a4fc       ??_7CMapPtrToPtr@@6B@      101d24fc     nafxcwd:map_pp.obj
 0003:0001a918       ??_7CInnerUnknown@@6B@     101d2918     nafxcwd:oleunk.obj
 0003:0001a92c       ??_7COleException@@6B@     101d292c     nafxcwd:oleunk.obj
 0003:0001a950       ?classCPtrList@CPtrList@@2UCRuntimeClass@@B 101d2950     nafxcwd:list_p.obj
 0003:0001abd8       ??_7CPtrList@@6B@          101d2bd8     nafxcwd:list_p.obj
 0003:0001abf0       ?classCCheckListBox@CCheckListBox@@2UCRuntimeClass@@B 101d2bf0     nafxcwd:winctrl3.obj
 0003:0001aea0       ?messageMap@CCheckListBox@@1UAFX_MSGMAP@@B 101d2ea0     nafxcwd:winctrl3.obj
 0003:0001aeb0       ?_messageEntries@CCheckListBox@@0QBUAFX_MSGMAP_ENTRY@@B 101d2eb0     nafxcwd:winctrl3.obj
 0003:0001b064       ??_7_AFX_CHECKLIST_STATE@@6B@ 101d3064     nafxcwd:winctrl3.obj
 0003:0001b06c       ??_C@_0M@IHIFIOMA@IsAppThemed?$AA@ 101d306c     nafxcwd:winctrl3.obj
 0003:0001b07c       ??_C@_0M@FLDEFIHJ@UxTheme?4dll?$AA@ 101d307c     nafxcwd:winctrl3.obj
 0003:0001b08c       ??_C@_0O@ENCOPDIF@OpenThemeData?$AA@ 101d308c     nafxcwd:winctrl3.obj
 0003:0001b09c       ??_C@_0P@HCLGHJBF@CloseThemeData?$AA@ 101d309c     nafxcwd:winctrl3.obj
 0003:0001b0b0       ??_C@_0BE@PPLLOBHO@DrawThemeBackground?$AA@ 101d30b0     nafxcwd:winctrl3.obj
 0003:0001b0c8       ??_C@_0BB@PPCKKHF@GetThemePartSize?$AA@ 101d30c8     nafxcwd:winctrl3.obj
 0003:0001b0dc       ??_C@_0N@OGEBEC@comctl32?4dll?$AA@ 101d30dc     nafxcwd:winctrl3.obj
 0003:0001b0ec       ??_C@_0DL@GIBDFPHL@f?3?2vs70builds?23077?2vc?2MFCATL?2shi@ 101d30ec     nafxcwd:winctrl3.obj
 0003:0001b138       ??_C@_0FH@DJAHKCPC@?$CB?3?3IsBadWritePtr?$CIpdwMajor?0?5sizeo@ 101d3138     nafxcwd:winctrl3.obj
 0003:0001b1a0       ??_C@_0O@OGDGDABE@DllGetVersion?$AA@ 101d31a0     nafxcwd:winctrl3.obj
 0003:0001b1b0       ??_C@_0DK@FCBCGFPF@?$CB?3?3IsBadWritePtr?$CIpDllVersionInfo@ 101d31b0     nafxcwd:winctrl3.obj
 0003:0001b208       ?classCArchiveException@CArchiveException@@2UCRuntimeClass@@B 101d3208     nafxcwd:arcex.obj
 0003:0001b358       ?classCFileException@CFileException@@2UCRuntimeClass@@B 101d3358     nafxcwd:filex.obj
 0003:0001bd40       ??_7CByteArray@@6B@        101d3d40     nafxcwd:array_b.obj
 0003:0001bfd4       ??_7CWordArray@@6B@        101d3fd4     nafxcwd:array_w.obj
 0003:0001c26c       ??_7CDWordArray@@6B@       101d426c     nafxcwd:array_d.obj
 0003:0001c284       ?classCUIntArray@CUIntArray@@2UCRuntimeClass@@B 101d4284     nafxcwd:array_u.obj
 0003:0001c4fc       ??_7CUIntArray@@6B@        101d44fc     nafxcwd:array_u.obj
 0003:0001c514       ?classCPtrArray@CPtrArray@@2UCRuntimeClass@@B 101d4514     nafxcwd:array_p.obj
 0003:0001c788       ??_7CPtrArray@@6B@         101d4788     nafxcwd:array_p.obj
 0003:0001ca1c       ??_7CObArray@@6B@          101d4a1c     nafxcwd:array_o.obj
 0003:0001cd44       ??_7CStringArray@@6B@      101d4d44     nafxcwd:array_s.obj
 0003:0001cd5c       ?classCMapWordToPtr@CMapWordToPtr@@2UCRuntimeClass@@B 101d4d5c     nafxcwd:map_wp.obj
 0003:0001cee0       ??_7CMapWordToPtr@@6B@     101d4ee0     nafxcwd:map_wp.obj
 0003:0001cef8       ?classCMapPtrToWord@CMapPtrToWord@@2UCRuntimeClass@@B 101d4ef8     nafxcwd:map_pw.obj
 0003:0001d07c       ??_7CMapPtrToWord@@6B@     101d507c     nafxcwd:map_pw.obj
 0003:0001d22c       ??_7CMapWordToOb@@6B@      101d522c     nafxcwd:map_wo.obj
 0003:0001d244       ?classCMapStringToPtr@CMapStringToPtr@@2UCRuntimeClass@@B 101d5244     nafxcwd:map_sp.obj
 0003:0001d3d8       ??_7CMapStringToPtr@@6B@   101d53d8     nafxcwd:map_sp.obj
 0003:0001d5e0       ??_7CMapStringToOb@@6B@    101d55e0     nafxcwd:map_so.obj
 0003:0001d8f0       ??_7CMapStringToString@@6B@ 101d58f0     nafxcwd:map_ss.obj
 0003:0001da68       ?messageMap@CCommonDialog@@1UAFX_MSGMAP@@B 101d5a68     nafxcwd:dlgcomm.obj
 0003:0001da78       ?_messageEntries@CCommonDialog@@0QBUAFX_MSGMAP_ENTRY@@B 101d5a78     nafxcwd:dlgcomm.obj
 0003:0001dad0       ?classCFileDialog@CFileDialog@@2UCRuntimeClass@@B 101d5ad0     nafxcwd:dlgfile.obj
 0003:0001ded4       ??_7CFileDialog@@6B@       101d5ed4     nafxcwd:dlgfile.obj
 0003:0001e09c       ?classCPropertySheet@CPropertySheet@@2UCRuntimeClass@@B 101d609c     nafxcwd:dlgprop.obj
 0003:0001e814       ?classCPropertyPage@CPropertyPage@@2UCRuntimeClass@@B 101d6814     nafxcwd:dlgprop.obj
 0003:0001e838       ?_afxPropSheetIDs@@3QBHB   101d6838     nafxcwd:dlgprop.obj
 0003:0001e84c       ?messageMap@CPropertySheet@@1UAFX_MSGMAP@@B 101d684c     nafxcwd:dlgprop.obj
 0003:0001e858       ?_messageEntries@CPropertySheet@@0QBUAFX_MSGMAP_ENTRY@@B 101d6858     nafxcwd:dlgprop.obj
 0003:0001e95c       ?messageMap@CPropertyPage@@1UAFX_MSGMAP@@B 101d695c     nafxcwd:dlgprop.obj
 0003:0001e968       ?_messageEntries@CPropertyPage@@0QBUAFX_MSGMAP_ENTRY@@B 101d6968     nafxcwd:dlgprop.obj
 0003:0001e9ac       ??_7CPropertyPage@@6B@     101d69ac     nafxcwd:dlgprop.obj
 0003:0001eb84       ??_7CPropertySheet@@6B@    101d6b84     nafxcwd:dlgprop.obj
 0003:0001ef78       ?messageMap@CControlBar@@1UAFX_MSGMAP@@B 101d6f78     nafxcwd:barcore.obj
 0003:0001ef88       ?_messageEntries@CControlBar@@0QBUAFX_MSGMAP_ENTRY@@B 101d6f88     nafxcwd:barcore.obj
 0003:0001f17c       ??_7CControlBar@@6B@       101d717c     nafxcwd:barcore.obj
 0003:0001f334       ?classCToolBar@CToolBar@@2UCRuntimeClass@@B 101d7334     nafxcwd:bartool.obj
 0003:0001f9f8       ?messageMap@CToolBar@@1UAFX_MSGMAP@@B 101d79f8     nafxcwd:bartool.obj
 0003:0001fa08       ?_messageEntries@CToolBar@@0QBUAFX_MSGMAP_ENTRY@@B 101d7a08     nafxcwd:bartool.obj
 0003:0001fb80       ?_afxSysColorMap@@3QBUAFX_COLORMAP@@B 101d7b80     nafxcwd:bartool.obj
 0003:0001fbac       ??_7CToolBar@@6B@          101d7bac     nafxcwd:bartool.obj
 0003:0001fd74       ??_7CToolCmdUI@@6B@        101d7d74     nafxcwd:bartool.obj
 0003:0001fef4       ?_afxRectInfo@@3QBUAFX_RECTINFO@@B 101d7ef4     nafxcwd:trckrect.obj
 0003:0001ff20       ?_afxHandleInfo@@3QBUAFX_HANDLEINFO@@B 101d7f20     nafxcwd:trckrect.obj
 0003:0002007c       ?classCBitmapButton@CBitmapButton@@2UCRuntimeClass@@B 101d807c     nafxcwd:winbtn.obj
 0003:000208f0       __real@4030000000000000    101d88f0     nafxcwd:olevar.obj
 0003:000208fc       __real@41800000            101d88fc     nafxcwd:olevar.obj
 0003:00020900       ??_C@_0DO@CHBDLLID@f?3?2vs70builds?23077?2vc?2MFCATL?2shi@ 101d8900     nafxcwd:olevar.obj
 0003:0002094c       ??_C@_0CM@BIONNIHF@?6COleDateTime?5VarDateFromStr?5cal@ 101d894c     nafxcwd:olevar.obj
 0003:00020980       __real@bff0000000000000    101d8980     nafxcwd:olevar.obj
 0003:00020a10       ??_C@_0DN@GJFGPEOL@f?3?2vs70builds?23077?2vc?2MFCATL?2shi@ 101d8a10     nafxcwd:olecnvrt.obj
 0003:00020a5c       ??_C@_09BBJEMDLA@nRet?5?$CB?$DN?50?$AA@ 101d8a5c     nafxcwd:olecnvrt.obj
 0003:00020bdc       ?classCControlBar@CControlBar@@2UCRuntimeClass@@B 101d8bdc     nafxcwd:winfrm.obj
 0003:00021558       ?classCView@CView@@2UCRuntimeClass@@B 101d9558     nafxcwd:winfrm.obj
 0003:0002157c       ?classCFrameWnd@CFrameWnd@@2UCRuntimeClass@@B 101d957c     nafxcwd:winfrm.obj
 0003:000215a0       ?messageMap@CFrameWnd@@1UAFX_MSGMAP@@B 101d95a0     nafxcwd:winfrm.obj
 0003:000215b0       ?_messageEntries@CFrameWnd@@0QBUAFX_MSGMAP_ENTRY@@B 101d95b0     nafxcwd:winfrm.obj
 0003:00021b1c       ??_7CFrameWnd@@6B@         101d9b1c     nafxcwd:winfrm.obj
 0003:00021ce0       ??_C@_0CD@JADEDFCN@wcstr?5?$DN?$DN?50?5?$HM?$HM?5result?5?$DM?$DN?5?$CIint?$CJcou@ 101d9ce0     nafxcwd:winfrm.obj
 0003:00021d0c       ??_C@_0DL@PCLIANN@f?3?2vs70builds?23077?2vc?2MFCATL?2shi@ 101d9d0c     nafxcwd:winfrm.obj
 0003:00021f60       ??_C@_0CH@KENCKLIF@?$CIiChar?5?$DO?$DN?50?$CJ?5?$CG?$CG?5?$CIiChar?5?$DM?$DN?5GetLen@ 101d9f60     nafxcwd:appui3.obj
 0003:000221c0       ??_7CRecentFileList@@6B@   101da1c0     nafxcwd:filelist.obj
 0003:000221e4       ?classCDocTemplate@CDocTemplate@@2UCRuntimeClass@@B 101da1e4     nafxcwd:doctempl.obj
 0003:0002281c       ??_7CDocTemplate@@6B@      101da81c     nafxcwd:doctempl.obj
 0003:000228ec       ?classCFile@CFile@@2UCRuntimeClass@@B 101da8ec     nafxcwd:filecore.obj
 0003:00022910       ?hFileNull@CFile@@2QAXA    101da910     nafxcwd:filecore.obj
 0003:00022e5c       _afxIID_IShellLinkA        101dae5c     nafxcwd:filecore.obj
 0003:00022e70       _afxCLSID_ShellLink        101dae70     nafxcwd:filecore.obj
 0003:00022e8c       ??_7CFile@@6B@             101dae8c     nafxcwd:filecore.obj
 0003:00022efc       ?classCDocManager@CDocManager@@2UCRuntimeClass@@B 101daefc     nafxcwd:docmgr.obj
 0003:00023368       ?messageMap@CNewTypeDlg@@1UAFX_MSGMAP@@B 101db368     nafxcwd:docmgr.obj
 0003:00023374       ?_messageEntries@CNewTypeDlg@@0QBUAFX_MSGMAP_ENTRY@@B 101db374     nafxcwd:docmgr.obj
 0003:000233ad       ?_afxShellNewValue@@3QBDB  101db3ad     nafxcwd:docmgr.obj
 0003:000233b0       ?_afxShellNewValueName@@3QBDB 101db3b0     nafxcwd:docmgr.obj
 0003:000233bc       ?_afxDDEPrintTo@@3QBDB     101db3bc     nafxcwd:docmgr.obj
 0003:000233e4       ?_afxDDEPrint@@3QBDB       101db3e4     nafxcwd:docmgr.obj
 0003:000233f4       ?_afxDDEOpen@@3QBDB        101db3f4     nafxcwd:docmgr.obj
 0003:00023404       ?_afxDDEExec@@3QBDB        101db404     nafxcwd:docmgr.obj
 0003:00023410       ?_afxDDEArg@@3QBDB         101db410     nafxcwd:docmgr.obj
 0003:00023418       ?_afxPrintToArg@@3QBDB     101db418     nafxcwd:docmgr.obj
 0003:00023438       ?_afxPrintArg@@3QBDB       101db438     nafxcwd:docmgr.obj
 0003:00023444       ?_afxOpenArg@@3QBDB        101db444     nafxcwd:docmgr.obj
 0003:0002344c       ?_afxCommand@@3QBDB        101db44c     nafxcwd:docmgr.obj
 0003:00023458       ?_afxIconIndexFmt@@3QBDB   101db458     nafxcwd:docmgr.obj
 0003:0002345c       ?_afxShellNewFmt@@3QBDB    101db45c     nafxcwd:docmgr.obj
 0003:0002346c       ?_afxDefaultIconFmt@@3QBDB 101db46c     nafxcwd:docmgr.obj
 0003:00023480       ?_afxShellPrintToFmt@@3QBDB 101db480     nafxcwd:docmgr.obj
 0003:00023498       ?_afxShellPrintFmt@@3QBDB  101db498     nafxcwd:docmgr.obj
 0003:000234b0       ?_afxShellOpenFmt@@3QBDB   101db4b0     nafxcwd:docmgr.obj
 0003:000234cc       ??_7CDocManager@@6B@       101db4cc     nafxcwd:docmgr.obj
 0003:00023524       ??_7CNewTypeDlg@@6B@       101db524     nafxcwd:docmgr.obj
 0003:000236cc       ??_C@_0M@GOJCFFEC@iStart?5?$DO?$DN?50?$AA@ 101db6cc     nafxcwd:docmgr.obj
 0003:000236dc       ??_C@_0CG@FPGHCJFK@?$CIiChar?5?$DO?$DN?50?$CJ?5?$CG?$CG?5?$CIiChar?5?$DM?5GetLeng@ 101db6dc     nafxcwd:docmgr.obj
 0003:0002370c       ??_C@_0DC@KJIHKHDE@?$CInCount?5?$DN?$DN?50?$CJ?5?$HM?$HM?5?$CI?$CIiFirst?$CLnCount@ 101db70c     nafxcwd:docmgr.obj
 0003:0002418c       ?classCColorDialog@CColorDialog@@2UCRuntimeClass@@B 101dc18c     nafxcwd:dlgclr.obj
 0003:000242fc       ??_7_AFX_COLOR_STATE@@6B@  101dc2fc     nafxcwd:dlgclr.obj
 0003:0002430c       ??_7CColorDialog@@6B@      101dc30c     nafxcwd:dlgclr.obj
 0003:00024524       ??_7_AFX_PROPPAGEFONTINFO@@6B@ 101dc524     nafxcwd:ccdata.obj
 0003:0002452c       ?classCRichEditCtrl@CRichEditCtrl@@2UCRuntimeClass@@B 101dc52c     nafxcwd:winctrl2.obj
 0003:0002a930       ?classCImageList@CImageList@@2UCRuntimeClass@@B 101e2930     nafxcwd:winctrl2.obj
 0003:0002a954       ?classCStatusBarCtrl@CStatusBarCtrl@@2UCRuntimeClass@@B 101e2954     nafxcwd:winctrl2.obj
 0003:0002a978       ?classCToolBarCtrl@CToolBarCtrl@@2UCRuntimeClass@@B 101e2978     nafxcwd:winctrl2.obj
 0003:0002a99c       ?classCListCtrl@CListCtrl@@2UCRuntimeClass@@B 101e299c     nafxcwd:winctrl2.obj
 0003:0002a9c0       ?classCTreeCtrl@CTreeCtrl@@2UCRuntimeClass@@B 101e29c0     nafxcwd:winctrl2.obj
 0003:0002a9e4       ?classCTabCtrl@CTabCtrl@@2UCRuntimeClass@@B 101e29e4     nafxcwd:winctrl2.obj
 0003:0002aa08       ?classCAnimateCtrl@CAnimateCtrl@@2UCRuntimeClass@@B 101e2a08     nafxcwd:winctrl2.obj
 0003:0002aa2c       ?classCHotKeyCtrl@CHotKeyCtrl@@2UCRuntimeClass@@B 101e2a2c     nafxcwd:winctrl2.obj
 0003:0002aa50       ?classCHeaderCtrl@CHeaderCtrl@@2UCRuntimeClass@@B 101e2a50     nafxcwd:winctrl2.obj
 0003:0002aa74       ?classCComboBoxEx@CComboBoxEx@@2UCRuntimeClass@@B 101e2a74     nafxcwd:winctrl2.obj
 0003:0002aa98       ?classCProgressCtrl@CProgressCtrl@@2UCRuntimeClass@@B 101e2a98     nafxcwd:winctrl2.obj
 0003:0002aabc       ?classCSliderCtrl@CSliderCtrl@@2UCRuntimeClass@@B 101e2abc     nafxcwd:winctrl2.obj
 0003:0002aae0       ?classCSpinButtonCtrl@CSpinButtonCtrl@@2UCRuntimeClass@@B 101e2ae0     nafxcwd:winctrl2.obj
 0003:0002ab04       ?classCDragListBox@CDragListBox@@2UCRuntimeClass@@B 101e2b04     nafxcwd:winctrl2.obj
 0003:0002ab28       ?messageMap@CTabCtrl@@1UAFX_MSGMAP@@B 101e2b28     nafxcwd:winctrl2.obj
 0003:0002ab34       ?_messageEntries@CTabCtrl@@0QBUAFX_MSGMAP_ENTRY@@B 101e2b34     nafxcwd:winctrl2.obj
 0003:0002ab70       ?messageMap@CTreeCtrl@@1UAFX_MSGMAP@@B 101e2b70     nafxcwd:winctrl2.obj
 0003:0002ab7c       ?_messageEntries@CTreeCtrl@@0QBUAFX_MSGMAP_ENTRY@@B 101e2b7c     nafxcwd:winctrl2.obj
 0003:0002abb8       ?messageMap@CListCtrl@@1UAFX_MSGMAP@@B 101e2bb8     nafxcwd:winctrl2.obj
 0003:0002abc4       ?_messageEntries@CListCtrl@@0QBUAFX_MSGMAP_ENTRY@@B 101e2bc4     nafxcwd:winctrl2.obj
 0003:0002ac00       ?messageMap@CToolBarCtrl@@1UAFX_MSGMAP@@B 101e2c00     nafxcwd:winctrl2.obj
 0003:0002ac0c       ?_messageEntries@CToolBarCtrl@@0QBUAFX_MSGMAP_ENTRY@@B 101e2c0c     nafxcwd:winctrl2.obj
 0003:0002ac4c       ??_7CDragListBox@@6B@      101e2c4c     nafxcwd:winctrl2.obj
 0003:0002ae04       ??_7CToolBarCtrl@@6B@      101e2e04     nafxcwd:winctrl2.obj
 0003:0002af8c       ??_7CStatusBarCtrl@@6B@    101e2f8c     nafxcwd:winctrl2.obj
 0003:0002b11c       ??_7CListCtrl@@6B@         101e311c     nafxcwd:winctrl2.obj
 0003:0002b2ac       ??_7CTreeCtrl@@6B@         101e32ac     nafxcwd:winctrl2.obj
 0003:0002b434       ??_7CSpinButtonCtrl@@6B@   101e3434     nafxcwd:winctrl2.obj
 0003:0002b5bc       ??_7CSliderCtrl@@6B@       101e35bc     nafxcwd:winctrl2.obj
 0003:0002b744       ??_7CProgressCtrl@@6B@     101e3744     nafxcwd:winctrl2.obj
 0003:0002b8cc       ??_7CHeaderCtrl@@6B@       101e38cc     nafxcwd:winctrl2.obj
 0003:0002ba5c       ??_7CHotKeyCtrl@@6B@       101e3a5c     nafxcwd:winctrl2.obj
 0003:0002bbe4       ??_7CTabCtrl@@6B@          101e3be4     nafxcwd:winctrl2.obj
 0003:0002bd74       ??_7CAnimateCtrl@@6B@      101e3d74     nafxcwd:winctrl2.obj
 0003:0002befc       ??_7CRichEditCtrl@@6B@     101e3efc     nafxcwd:winctrl2.obj
 0003:0002c080       ??_7CImageList@@6B@        101e4080     nafxcwd:winctrl2.obj
 0003:0002c098       ?classCToolTipCtrl@CToolTipCtrl@@2UCRuntimeClass@@B 101e4098     nafxcwd:tooltip.obj
 0003:0002c2d0       ?messageMap@CToolTipCtrl@@1UAFX_MSGMAP@@B 101e42d0     nafxcwd:tooltip.obj
 0003:0002c2e0       ?_messageEntries@CToolTipCtrl@@0QBUAFX_MSGMAP_ENTRY@@B 101e42e0     nafxcwd:tooltip.obj
 0003:0002c374       ??_7CToolTipCtrl@@6B@      101e4374     nafxcwd:tooltip.obj
 0003:0002c66c       ??_7CDockContext@@6B@      101e466c     nafxcwd:dockcont.obj
 0003:0002c6e4       ??_7CArchiveStream@@6B@    101e46e4     nafxcwd:arcstrm.obj
 0003:0002c728       ?classCLinkCtrl@CLinkCtrl@@2UCRuntimeClass@@B 101e4728     nafxcwd:winctrl6.obj
 0003:0002f53c       ?classCReBarCtrl@CReBarCtrl@@2UCRuntimeClass@@B 101e753c     nafxcwd:winctrl6.obj
 0003:0002f560       ?classCIPAddressCtrl@CIPAddressCtrl@@2UCRuntimeClass@@B 101e7560     nafxcwd:winctrl6.obj
 0003:0002f58c       ??_7CIPAddressCtrl@@6B@    101e758c     nafxcwd:winctrl6.obj
 0003:0002f714       ??_7CComboBoxEx@@6B@       101e7714     nafxcwd:winctrl6.obj
 0003:0002f8ac       ??_7CReBarCtrl@@6B@        101e78ac     nafxcwd:winctrl6.obj
 0003:0002fa2c       ?classCReBar@CReBar@@2UCRuntimeClass@@B 101e7a2c     nafxcwd:barcool.obj
 0003:0002fba8       ?messageMap@CReBar@@1UAFX_MSGMAP@@B 101e7ba8     nafxcwd:barcool.obj
 0003:0002fbb8       ?_messageEntries@CReBar@@0QBUAFX_MSGMAP_ENTRY@@B 101e7bb8     nafxcwd:barcool.obj
 0003:0002fcdc       ??_7CReBar@@6B@            101e7cdc     nafxcwd:barcool.obj
 0003:0002fe98       ?classCDocument@CDocument@@2UCRuntimeClass@@B 101e7e98     nafxcwd:doccore.obj
 0003:00030494       ?messageMap@CDocument@@1UAFX_MSGMAP@@B 101e8494     nafxcwd:doccore.obj
 0003:000304a0       ?_messageEntries@CDocument@@0QBUAFX_MSGMAP_ENTRY@@B 101e84a0     nafxcwd:doccore.obj
 0003:0003051c       ??_7CDocument@@6B@         101e851c     nafxcwd:doccore.obj
 0003:00030604       ??_7CMirrorFile@@6B@       101e8604     nafxcwd:doccore.obj
 0003:00030674       ??_C@_0BP@FDHNHANE@AtlIsValidString?$CI?5pszCharSet?5?$CJ?$AA@ 101e8674     nafxcwd:doccore.obj
 0003:00030940       ??_7_AFX_DEBUG_STATE@@6B@  101e8940     nafxcwd:dumpinit.obj
 0003:00030948       ?classCOleDispatchException@COleDispatchException@@2UCRuntimeClass@@B 101e8948     nafxcwd:oledisp1.obj
 0003:00030e58       ?_afxRetVal@@3QBIB         101e8e58     nafxcwd:oledisp1.obj
 0003:00030ec8       ?_afxByRef@@3QBIB          101e8ec8     nafxcwd:oledisp1.obj
 0003:00030f38       ?_afxByValue@@3QBIB        101e8f38     nafxcwd:oledisp1.obj
 0003:00030fa8       ??_7COleDispatchImpl@@6B@  101e8fa8     nafxcwd:oledisp1.obj
 0003:00030fd4       ??_7COleDispatchException@@6B@ 101e8fd4     nafxcwd:oledisp1.obj
 0003:00031248       ??_7_AFX_RICHEDIT_STATE@@6B@ 101e9248     nafxcwd:winctrl4.obj
 0003:00031250       ?classCMiniDockFrameWnd@CMiniDockFrameWnd@@2UCRuntimeClass@@B 101e9250     nafxcwd:bardock.obj
 0003:0003152c       ?classCDockBar@CDockBar@@2UCRuntimeClass@@B 101e952c     nafxcwd:bardock.obj
 0003:00031550       ?messageMap@CMiniDockFrameWnd@@1UAFX_MSGMAP@@B 101e9550     nafxcwd:bardock.obj
 0003:00031560       ?_messageEntries@CMiniDockFrameWnd@@0QBUAFX_MSGMAP_ENTRY@@B 101e9560     nafxcwd:bardock.obj
 0003:000315f0       ?messageMap@CDockBar@@1UAFX_MSGMAP@@B 101e95f0     nafxcwd:bardock.obj
 0003:00031600       ?_messageEntries@CDockBar@@0QBUAFX_MSGMAP_ENTRY@@B 101e9600     nafxcwd:bardock.obj
 0003:000316b4       ??_7CDockBar@@6B@          101e96b4     nafxcwd:bardock.obj
 0003:0003187c       ??_7CMiniDockFrameWnd@@6B@ 101e987c     nafxcwd:bardock.obj
 0003:00031a50       ?classCMiniFrameWnd@CMiniFrameWnd@@2UCRuntimeClass@@B 101e9a50     nafxcwd:winmini.obj
 0003:00031aec       ?messageMap@CMiniFrameWnd@@1UAFX_MSGMAP@@B 101e9aec     nafxcwd:winmini.obj
 0003:00031af8       ?_messageEntries@CMiniFrameWnd@@0QBUAFX_MSGMAP_ENTRY@@B 101e9af8     nafxcwd:winmini.obj
 0003:00031be4       ??_7CMiniFrameWnd@@6B@     101e9be4     nafxcwd:winmini.obj
 0003:00031db4       ?dwDockBarMap@CFrameWnd@@1QAY01$$CBKA 101e9db4     nafxcwd:winfrm2.obj
 0003:000320d4       ??_7CTypeLibCacheMap@@6B@  101ea0d4     nafxcwd:oletyplb.obj
 0003:000320f4       ?classCEditView@CEditView@@2UCRuntimeClass@@B 101ea0f4     nafxcwd:viewedit.obj
 0003:0003212c       ?dwStyleDefault@CEditView@@2KB 101ea12c     nafxcwd:viewedit.obj
 0003:00032130       ?nMaxSize@CEditView@@2IB   101ea130     nafxcwd:viewedit.obj
 0003:00032d98       ?messageMap@CEditView@@1UAFX_MSGMAP@@B 101ead98     nafxcwd:viewedit.obj
 0003:00032da8       ?_messageEntries@CEditView@@0QBUAFX_MSGMAP_ENTRY@@B 101eada8     nafxcwd:viewedit.obj
 0003:00033098       ??_7_AFX_EDIT_STATE@@6B@   101eb098     nafxcwd:viewedit.obj
 0003:000330a4       ??_7CEditView@@6B@         101eb0a4     nafxcwd:viewedit.obj
 0003:00033294       ?classCCtrlView@CCtrlView@@2UCRuntimeClass@@B 101eb294     nafxcwd:viewcore.obj
 0003:00033534       ?classCSplitterWnd@CSplitterWnd@@2UCRuntimeClass@@B 101eb534     nafxcwd:viewcore.obj
 0003:00033558       ?messageMap@CCtrlView@@1UAFX_MSGMAP@@B 101eb558     nafxcwd:viewcore.obj
 0003:00033564       ?_messageEntries@CCtrlView@@0QBUAFX_MSGMAP_ENTRY@@B 101eb564     nafxcwd:viewcore.obj
 0003:000335a0       ?messageMap@CView@@1UAFX_MSGMAP@@B 101eb5a0     nafxcwd:viewcore.obj
 0003:000335b0       ?_messageEntries@CView@@0QBUAFX_MSGMAP_ENTRY@@B 101eb5b0     nafxcwd:viewcore.obj
 0003:00033714       ??_7CView@@6B@             101eb714     nafxcwd:viewcore.obj
 0003:000338f4       ??_7CCtrlView@@6B@         101eb8f4     nafxcwd:viewcore.obj
 0003:00033acc       ??_C@_0DL@KOLNEMLJ@f?3?2vs70builds?23077?2vc?2mfcatl?2shi@ 101ebacc     nafxcwd:viewcore.obj
 0003:00033bd4       ??_7CPrintingDialog@@6B@   101ebbd4     nafxcwd:viewprnt.obj
 0003:00033d80       ??_7_AFX_WIN_STATE@@6B@    101ebd80     nafxcwd:viewprnt.obj
 0003:00033d88       ?classCFindReplaceDialog@CFindReplaceDialog@@2UCRuntimeClass@@B 101ebd88     nafxcwd:dlgfr.obj
 0003:00033f44       ??_7CFindReplaceDialog@@6B@ 101ebf44     nafxcwd:dlgfr.obj
 0003:000340f0       ?classCPageSetupDialog@CPageSetupDialog@@2UCRuntimeClass@@B 101ec0f0     nafxcwd:dlgprnt.obj
 0003:0003458c       ?classCPrintDialog@CPrintDialog@@2UCRuntimeClass@@B 101ec58c     nafxcwd:dlgprnt.obj
 0003:000345b0       ?messageMap@CPrintDialog@@1UAFX_MSGMAP@@B 101ec5b0     nafxcwd:dlgprnt.obj
 0003:000345bc       ?_messageEntries@CPrintDialog@@0QBUAFX_MSGMAP_ENTRY@@B 101ec5bc     nafxcwd:dlgprnt.obj
 0003:000345fc       ??_7CPageSetupDialog@@6B@  101ec5fc     nafxcwd:dlgprnt.obj
 0003:000347b4       ??_7CPrintDialog@@6B@      101ec7b4     nafxcwd:dlgprnt.obj
 0003:0003499c       ??_C@_0BB@NAGLCMLI@Assertion?5Failed?$AA@ 101ec99c     libcmtd:dbgrpt.obj
 0003:000349b0       ??_C@_05NAOIJFC@Error?$AA@ 101ec9b0     libcmtd:dbgrpt.obj
 0003:000349b8       ??_C@_07KGMMFLDN@Warning?$AA@ 101ec9b8     libcmtd:dbgrpt.obj
 0003:000349c4       ??_C@_08ODMAMGBE@dbgrpt?4c?$AA@ 101ec9c4     libcmtd:dbgrpt.obj
 0003:000349e0       ??_C@_0M@IPILFDFN@?$CFs?$CI?$CFd?$CJ?5?3?5?$CFs?$AA@ 101ec9e0     libcmtd:dbgrpt.obj
 0003:000349f0       ??_C@_01EEMJAFIK@?6?$AA@   101ec9f0     libcmtd:dbgrpt.obj
 0003:000349f4       ??_C@_01LIIJDEN@?$AN?$AA@  101ec9f4     libcmtd:dbgrpt.obj
 0003:000349f8       ??_C@_0BC@LAIDCHCH@Assertion?5failed?$CB?$AA@ 101ec9f8     libcmtd:dbgrpt.obj
 0003:00034a10       ??_C@_0BD@CAENFOHP@Assertion?5failed?3?5?$AA@ 101eca10     libcmtd:dbgrpt.obj
 0003:00034a28       ??_C@_0CL@EACFGMNB@_CrtDbgReport?3?5String?5too?5long?5o@ 101eca28     libcmtd:dbgrpt.obj
 0003:00034a5c       ??_C@_0DC@HLHDIIKH@Second?5Chance?5Assertion?5Failed?3?5@ 101eca5c     libcmtd:dbgrpt.obj
 0003:00034a98       ??_C@_09FOPFMPEJ@wsprintfA?$AA@ 101eca98     libcmtd:dbgrpt.obj
 0003:00034aa4       ??_C@_0L@GMPLCCII@user32?4dll?$AA@ 101ecaa4     libcmtd:dbgrpt.obj
 0003:00034ac8       ??_C@_0CD@EBCGLDDL@Microsoft?5Visual?5C?$CL?$CL?5Debug?5Libra@ 101ecac8     libcmtd:dbgrpt.obj
 0003:00034af8       ??_C@_0FD@IIKNDPHJ@Debug?5?$CFs?$CB?6?6Program?3?5?$CFs?$CFs?$CFs?$CFs?$CFs?$CFs@ 101ecaf8     libcmtd:dbgrpt.obj
 0003:00034b5c       ??_C@_09OFBFHMBK@?6Module?3?5?$AA@ 101ecb5c     libcmtd:dbgrpt.obj
 0003:00034b68       ??_C@_07OPHPPLBG@?6File?3?5?$AA@ 101ecb68     libcmtd:dbgrpt.obj
 0003:00034b74       ??_C@_07DBMPPHDI@?6Line?3?5?$AA@ 101ecb74     libcmtd:dbgrpt.obj
 0003:00034b80       ??_C@_02PHMGELLB@?6?6?$AA@ 101ecb80     libcmtd:dbgrpt.obj
 0003:00034b84       ??_C@_0N@MEECIJGN@Expression?3?5?$AA@ 101ecb84     libcmtd:dbgrpt.obj
 0003:00034b98       ??_C@_0HD@GNBNFCCL@?6?6For?5information?5on?5how?5your?5pr@ 101ecb98     libcmtd:dbgrpt.obj
 0003:00034c24       ??_C@_03KHICJKCI@?4?4?4?$AA@ 101ecc24     libcmtd:dbgrpt.obj
 0003:00034c28       ??_C@_0BH@DNAGHKFM@?$DMprogram?5name?5unknown?$DO?$AA@ 101ecc28     libcmtd:dbgrpt.obj
 0003:00034c44       ??_C@_0BG@IHOEIIEJ@szUserMessage?5?$CB?$DN?5NULL?$AA@ 101ecc44     libcmtd:dbgrpt.obj
 0003:00034c60       ??_C@_0P@NFGNABCI@string?5?$CB?$DN?5NULL?$AA@ 101ecc60     libcmtd:vsprintf.obj
 0003:00034c74       ??_C@_0L@MDILGHEC@vsprintf?4c?$AA@ 101ecc74     libcmtd:vsprintf.obj
 0003:00034c84       ??_C@_0P@NHGFNCDP@format?5?$CB?$DN?5NULL?$AA@ 101ecc84     libcmtd:vsprintf.obj
 0003:00034c98       ??_C@_08BDNGOBJJ@fclose?4c?$AA@ 101ecc98     libcmtd:fclose.obj
 0003:00034ca4       ??_C@_0P@FELNCIKG@stream?5?$CB?$DN?5NULL?$AA@ 101ecca4     libcmtd:fclose.obj
 0003:00034cc8       ??_C@_0M@CMNAFCJK@str?5?$CB?$DN?5NULL?$AA@ 101eccc8     libcmtd:fclose.obj
 0003:00034cd8       ??_C@_09JMJGGMME@fprintf?4c?$AA@ 101eccd8     libcmtd:fprintf.obj
 0003:00034cf8       ??_C@_0BC@LDFCGPMK@?$CKmode?5?$CB?$DN?5_T?$CI?8?20?8?$CJ?$AA@ 101eccf8     libcmtd:fopen.obj
 0003:00034d10       ??_C@_0N@HDDIJGHA@mode?5?$CB?$DN?5NULL?$AA@ 101ecd10     libcmtd:fopen.obj
 0003:00034d20       ??_C@_0BC@JKMANOLD@?$CKfile?5?$CB?$DN?5_T?$CI?8?20?8?$CJ?$AA@ 101ecd20     libcmtd:fopen.obj
 0003:00034d38       ??_C@_07MKNJDOE@fopen?4c?$AA@ 101ecd38     libcmtd:fopen.obj
 0003:00034d44       ??_C@_0N@MBAPGNHG@file?5?$CB?$DN?5NULL?$AA@ 101ecd44     libcmtd:fopen.obj
 0003:00034d78       ??_C@_08GNMOIKDK@onexit?4c?$AA@ 101ecd78     libcmtd:onexit.obj
 0003:00034d84       ??_C@_06PJIGMIJB@Client?$AA@ 101ecd84     libcmtd:dbgheap.obj
 0003:00034d8c       ??_C@_06KMEJCCGM@Ignore?$AA@ 101ecd8c     libcmtd:dbgheap.obj
 0003:00034d94       ??_C@_03OGPFLFLO@CRT?$AA@  101ecd94     libcmtd:dbgheap.obj
 0003:00034d98       ??_C@_06EFAGIKOH@Normal?$AA@ 101ecd98     libcmtd:dbgheap.obj
 0003:00034da0       ??_C@_04HJMOFLDF@Free?$AA@ 101ecda0     libcmtd:dbgheap.obj
 0003:00034db8       ??_C@_0DC@JEMAGEKG@Error?3?5memory?5allocation?3?5bad?5me@ 101ecdb8     libcmtd:dbgheap.obj
 0003:00034df4       ??_C@_0CF@BICKFLAF@Invalid?5allocation?5size?3?5?$CFIu?5byt@ 101ecdf4     libcmtd:dbgheap.obj
 0003:00034e20       ??_C@_0CB@CCLOLAHO@Client?5hook?5allocation?5failure?4?6@ 101ece20     libcmtd:dbgheap.obj
 0003:00034e48       ??_C@_0DF@BBEGIFEK@Client?5hook?5allocation?5failure?5a@ 101ece48     libcmtd:dbgheap.obj
 0003:00034e88       ??_C@_09DPMMACIH@dbgheap?4c?$AA@ 101ece88     libcmtd:dbgheap.obj
 0003:00034e94       ??_C@_0BC@FKEPGOPH@_CrtCheckMemory?$CI?$CJ?$AA@ 101ece94     libcmtd:dbgheap.obj
 0003:00034ec0       ??_C@_0BK@DJDKJKNJ@_pFirstBlock?5?$DN?$DN?5pOldBlock?$AA@ 101ecec0     libcmtd:dbgheap.obj
 0003:00034ee0       ??_C@_0BJ@PGMLBCKP@_pLastBlock?5?$DN?$DN?5pOldBlock?$AA@ 101ecee0     libcmtd:dbgheap.obj
 0003:00034f00       ??_C@_0DC@LIEEBBFH@fRealloc?5?$HM?$HM?5?$CI?$CBfRealloc?5?$CG?$CG?5pNewBl@ 101ecf00     libcmtd:dbgheap.obj
 0003:00034f40       ??_C@_0EF@BKJNHFDP@pOldBlock?9?$DOnLine?5?$DN?$DN?5IGNORE_LINE?5@ 101ecf40     libcmtd:dbgheap.obj
 0003:00034f94       ??_C@_0CC@MCCNOMLK@_CrtIsValidHeapPointer?$CIpUserData@ 101ecf94     libcmtd:dbgheap.obj
 0003:00034fc0       ??_C@_0EM@LGFLMAGJ@The?5Block?5at?50x?$CFp?5was?5allocated?5@ 101ecfc0     libcmtd:dbgheap.obj
 0003:0003501c       ??_C@_0CO@KPNFNEPA@Allocation?5too?5large?5or?5negative@ 101ed01c     libcmtd:dbgheap.obj
 0003:00035054       ??_C@_0CE@DOFMDOL@Client?5hook?5re?9allocation?5failur@ 101ed054     libcmtd:dbgheap.obj
 0003:00035080       ??_C@_0DI@KKJPDPGM@Client?5hook?5re?9allocation?5failur@ 101ed080     libcmtd:dbgheap.obj
 0003:000350e8       ??_C@_0BG@JDINNDDC@_pFirstBlock?5?$DN?$DN?5pHead?$AA@ 101ed0e8     libcmtd:dbgheap.obj
 0003:00035104       ??_C@_0BF@LMGMGAEG@_pLastBlock?5?$DN?$DN?5pHead?$AA@ 101ed104     libcmtd:dbgheap.obj
 0003:00035120       ??_C@_0BO@LGCGBMOH@pHead?9?$DOnBlockUse?5?$DN?$DN?5nBlockUse?$AA@ 101ed120     libcmtd:dbgheap.obj
 0003:00035144       ??_C@_0DN@GKKPDMLN@pHead?9?$DOnLine?5?$DN?$DN?5IGNORE_LINE?5?$CG?$CG?5p@ 101ed144     libcmtd:dbgheap.obj
 0003:00035190       ??_C@_0CI@CMGHMNIC@DAMAGE?3?5after?5?$CFhs?5block?5?$CI?$CD?$CFd?$CJ?5at@ 101ed190     libcmtd:dbgheap.obj
 0003:000351c0       ??_C@_0CJ@OHOOBLKI@DAMAGE?3?5before?5?$CFhs?5block?5?$CI?$CD?$CFd?$CJ?5a@ 101ed1c0     libcmtd:dbgheap.obj
 0003:000351f4       ??_C@_0CH@IAGMNLOM@_BLOCK_TYPE_IS_VALID?$CIpHead?9?$DOnBlo@ 101ed1f4     libcmtd:dbgheap.obj
 0003:00035224       ??_C@_0BL@KEIPLFAC@Client?5hook?5free?5failure?4?6?$AA@ 101ed224     libcmtd:dbgheap.obj
 0003:00035248       ??_C@_0EJ@HEIBCIMJ@The?5Block?5at?50x?$CFp?5was?5allocated?5@ 101ed248     libcmtd:dbgheap.obj
 0003:000352c0       ??_C@_0CI@JMLBEDHJ@?$CFhs?5located?5at?50x?$CFp?5is?5?$CFIu?5bytes@ 101ed2c0     libcmtd:dbgheap.obj
 0003:000352f0       ??_C@_0CA@FGFAGAOM@?$CFhs?5allocated?5at?5file?5?$CFhs?$CI?$CFd?$CJ?4?6?$AA@ 101ed2f0     libcmtd:dbgheap.obj
 0003:00035318       ??_C@_0CH@JKKAOBEK@DAMAGE?3?5on?5top?5of?5Free?5block?5at?5@ 101ed318     libcmtd:dbgheap.obj
 0003:00035348       ??_C@_07OHKEFPKJ@DAMAGED?$AA@ 101ed348     libcmtd:dbgheap.obj
 0003:00035354       ??_C@_0CL@HNNNMKMJ@_heapchk?5fails?5with?5unknown?5retu@ 101ed354     libcmtd:dbgheap.obj
 0003:00035388       ??_C@_0CC@MFFCHFHO@_heapchk?5fails?5with?5_HEAPBADPTR?4@ 101ed388     libcmtd:dbgheap.obj
 0003:000353b0       ??_C@_0CC@MJGLGBDG@_heapchk?5fails?5with?5_HEAPBADEND?4@ 101ed3b0     libcmtd:dbgheap.obj
 0003:000353d8       ??_C@_0CD@CPKEAPBD@_heapchk?5fails?5with?5_HEAPBADNODE@ 101ed3d8     libcmtd:dbgheap.obj
 0003:00035404       ??_C@_0CE@MKKHMBMK@_heapchk?5fails?5with?5_HEAPBADBEGI@ 101ed404     libcmtd:dbgheap.obj
 0003:00035470       ??_C@_0CB@EAAIGELO@Bad?5memory?5block?5found?5at?50x?$CFp?4?6@ 101ed470     libcmtd:dbgheap.obj
 0003:00035498       ??_C@_0CI@KDKEAJEJ@_CrtMemCheckPoint?3?5NULL?5state?5po@ 101ed498     libcmtd:dbgheap.obj
 0003:000354d8       ??_C@_0CI@ENCLCMLG@_CrtMemDifference?3?5NULL?5state?5po@ 101ed4d8     libcmtd:dbgheap.obj
 0003:00035508       ??_C@_0BH@GFGKJDCO@Object?5dump?5complete?4?6?$AA@ 101ed508     libcmtd:dbgheap.obj
 0003:00035524       ??_C@_0DA@MDLBNIBM@crt?5block?5at?50x?$CFp?0?5subtype?5?$CFx?0?5?$CF@ 101ed524     libcmtd:dbgheap.obj
 0003:00035560       ??_C@_0CH@FAGDDGPN@normal?5block?5at?50x?$CFp?0?5?$CFIu?5bytes?5@ 101ed560     libcmtd:dbgheap.obj
 0003:00035590       ??_C@_0DD@GHNAAKBB@client?5block?5at?50x?$CFp?0?5subtype?5?$CFx@ 101ed590     libcmtd:dbgheap.obj
 0003:000355d0       ??_C@_06PKLGBFGM@?$HL?$CFld?$HN?5?$AA@ 101ed5d0     libcmtd:dbgheap.obj
 0003:000355d8       ??_C@_0L@JMEFFCCJ@?$CFhs?$CI?$CFd?$CJ?5?3?5?$AA@ 101ed5d8     libcmtd:dbgheap.obj
 0003:000355e8       ??_C@_0BE@OIEFNFL@?$CDFile?5Error?$CD?$CI?$CFd?$CJ?5?3?5?$AA@ 101ed5e8     libcmtd:dbgheap.obj
 0003:00035600       ??_C@_0BE@KCIPKCIA@Dumping?5objects?5?9?$DO?6?$AA@ 101ed600     libcmtd:dbgheap.obj
 0003:00035628       ??_C@_0BA@HJBKCELP@?5Data?3?5?$DM?$CFs?$DO?5?$CFs?6?$AA@ 101ed628     libcmtd:dbgheap.obj
 0003:0003563c       ??_C@_05MKKEDADM@?$CF?42X?5?$AA@ 101ed63c     libcmtd:dbgheap.obj
 0003:00035644       ??_C@_0BI@JBFPOEJA@Detected?5memory?5leaks?$CB?6?$AA@ 101ed644     libcmtd:dbgheap.obj
 0003:00035660       ??_C@_0BP@DEDHGGGI@Total?5allocations?3?5?$CFId?5bytes?4?6?$AA@ 101ed660     libcmtd:dbgheap.obj
 0003:00035688       ??_C@_0CB@BLHDAFNE@Largest?5number?5used?3?5?$CFId?5bytes?4?6@ 101ed688     libcmtd:dbgheap.obj
 0003:000356b0       ??_C@_0BO@DACNIABB@?$CFId?5bytes?5in?5?$CFId?5?$CFhs?5Blocks?4?6?$AA@ 101ed6b0     libcmtd:dbgheap.obj
 0003:000356d4       ??_C@_0CC@GFBJAAAH@?$CI?$CCoffset?5must?5be?5within?5size?$CC?0?50@ 101ed6d4     libcmtd:dbgheap.obj
 0003:000356fc       ??_C@_0CF@PGBEDOC@?$CI?$CCalignment?5must?5be?5a?5power?5of?52@ 101ed6fc     libcmtd:dbgheap.obj
 0003:00035728       ??_C@_0DL@PGHMMKNE@Damage?5before?50x?$CFp?5which?5was?5all@ 101ed728     libcmtd:dbgheap.obj
 0003:00035770       ??_C@_0EI@NDNJMAJK@The?5block?5at?50x?$CFp?5was?5not?5alloca@ 101ed770     libcmtd:dbgheap.obj
 0003:000357c8       ??_C@_0EF@PGELACII@The?5block?5at?50x?$CFp?5was?5not?5alloca@ 101ed7c8     libcmtd:dbgheap.obj
 0003:0003581c       ??_C@_09IFKEODFF@dllcrt0?4c?$AA@ 101ed81c     libcmtd:dllcrt0.obj
 0003:0003584c       ??_7type_info@@6B@         101ed84c     libcmtd:typinfo.obj
 0003:00035890       ??_C@_09FNBBCGGI@sprintf?4c?$AA@ 101ed890     libcmtd:sprintf.obj
 0003:0003589c       ??_C@_0L@LLDHGLHK@swprintf?4c?$AA@ 101ed89c     libcmtd:swprintf.obj
 0003:000358ac       ??_C@_0L@GDBDEHLH@threadex?4c?$AA@ 101ed8ac     libcmtd:threadex.obj
 0003:000358d0       ??_C@_08MPLNDKMI@sscanf?4c?$AA@ 101ed8d0     libcmtd:sscanf.obj
 0003:000358dc       ??_C@_0CP@PEILCOHB@f?3?2vs70builds?23077?2vc?2crtbld?2crt@ 101ed8dc     libcmtd:snprintf.obj
 0003:00035928       ??_C@_0P@MIGLKIOC@CorExitProcess?$AA@ 101ed928     libcmtd:crt0dat.obj
 0003:0003593c       ??_C@_0M@MBOPBNBK@mscoree?4dll?$AA@ 101ed93c     libcmtd:crt0dat.obj
 0003:00035980       ??_C@_09KJLOAKHC@mbctype?4c?$AA@ 101ed980     libcmtd:mbctype.obj
 0003:000359b0       ??_C@_0DA@KHEJFFIK@f?3?2vs70builds?23077?2vc?2crtbld?2crt@ 101ed9b0     libcmtd:vsnprint.obj
 0003:00035a70       ??_C@_0L@JKCACIOJ@tidtable?4c?$AA@ 101eda70     libcmtd:tidtable.obj
 0003:00035a80       ??_C@_07PEJMOBNF@FlsFree?$AA@ 101eda80     libcmtd:tidtable.obj
 0003:00035a8c       ??_C@_0M@JCPCPOEF@FlsSetValue?$AA@ 101eda8c     libcmtd:tidtable.obj
 0003:00035a9c       ??_C@_0M@GDNOONDI@FlsGetValue?$AA@ 101eda9c     libcmtd:tidtable.obj
 0003:00035aac       ??_C@_08KNHFBNJ@FlsAlloc?$AA@ 101edaac     libcmtd:tidtable.obj
 0003:00035ab8       ??_C@_0N@MDJJJHMB@kernel32?4dll?$AA@ 101edab8     libcmtd:tidtable.obj
 0003:00035b20       ??_C@_0BO@GNIAFIKK@Unknown?5Runtime?5Check?5Error?6?$AN?$AA@ 101edb20     libcmtd:error.obj
 0003:00035b44       ??_C@_0DG@HKJMLLLP@A?5local?5variable?5was?5used?5before@ 101edb44     libcmtd:error.obj
 0003:00035b84       ??_C@_0BN@FFOINMNJ@Stack?5memory?5was?5corrupted?6?$AN?$AA@ 101edb84     libcmtd:error.obj
 0003:00035ba8       ??_C@_0BBN@GPMLNJCF@A?5cast?5to?5a?5smaller?5data?5type?5ha@ 101edba8     libcmtd:error.obj
 0003:00035d00       ??_C@_0NN@NGPKDKPD@The?5value?5of?5ESP?5was?5not?5properl@ 101edd00     libcmtd:error.obj
 0003:00035e0c       ??_C@_0CA@IODNCDPG@Run?9Time?5Check?5Failure?5?$CD?$CFd?5?9?5?$CFs?$AA@ 101ede0c     libcmtd:error.obj
 0003:00035e58       ??_C@_0L@CJCNHJJG@?6?$ANModule?3?7?$AA@ 101ede58     libcmtd:error.obj
 0003:00035e68       ??_C@_08GJEJCAJD@?6?$ANLine?3?7?$AA@ 101ede68     libcmtd:error.obj
 0003:00035e74       ??_C@_0CI@INCLAPNB@Invalid?5pointer?5was?5assigned?5at?6@ 101ede74     libcmtd:error.obj
 0003:00035ea4       ??_C@_0BB@JEGFEAAM@?8?5was?5corrupted?4?$AA@ 101edea4     libcmtd:error.obj
 0003:00035eb8       ??_C@_0BM@FGFAMDLF@Stack?5around?5the?5variable?5?8?$AA@ 101edeb8     libcmtd:error.obj
 0003:00035edc       ??_C@_0DA@BEGFPCGG@A?5variable?5is?5being?5used?5without@ 101ededc     libcmtd:error.obj
 0003:00035f18       ??_C@_0CH@LOIIHGKM@?8?5is?5being?5used?5without?5being?5de@ 101edf18     libcmtd:error.obj
 0003:00035f48       ??_C@_0P@HLKMHJCG@The?5variable?5?8?$AA@ 101edf48     libcmtd:error.obj
 0003:00035f5c       ??_C@_0BC@KNBMEBEO@IsDebuggerPresent?$AA@ 101edf5c     libcmtd:error.obj
 0003:00035f74       ??_C@_0N@HAOHNMDE@Kernel32?4dll?$AA@ 101edf74     libcmtd:error.obj
 0003:00035f84       ??_C@_0CK@CNLNOEPB@Local?5variable?5used?5before?5initi@ 101edf84     libcmtd:userapi.obj
 0003:00035fb8       ??_C@_0BI@CIGMDCBH@Stack?5memory?5corruption?$AA@ 101edfb8     libcmtd:userapi.obj
 0003:00035fd4       ??_C@_0CK@FEGOIOPB@Cast?5to?5smaller?5type?5causing?5los@ 101edfd4     libcmtd:userapi.obj
 0003:00036008       ??_C@_0BJ@HEGAHDFO@Stack?5pointer?5corruption?$AA@ 101ee008     libcmtd:userapi.obj
 0003:00036028       ??_C@_0O@NJIIDJEH@i386?2chkesp?4c?$AA@ 101ee028     libcmtd:chkesp.obj
 0003:00036038       ??_C@_0NM@DNEDKLDF@The?5value?5of?5ESP?5was?5not?5properl@ 101ee038     libcmtd:chkesp.obj
 0003:00036140       ??_C@_07CKDBCAPD@mlock?4c?$AA@ 101ee140     libcmtd:mlock.obj
 0003:00036160       ??_C@_08FKHPDPAC@winsig?4c?$AA@ 101ee160     libcmtd:winsig.obj
 0003:000361a0       ??_C@_0BI@DFKBFLJE@GetProcessWindowStation?$AA@ 101ee1a0     libcmtd:crtmbox.obj
 0003:000361bc       ??_C@_0BK@CIDNPOGP@GetUserObjectInformationA?$AA@ 101ee1bc     libcmtd:crtmbox.obj
 0003:000361dc       ??_C@_0BD@HHGDFDBJ@GetLastActivePopup?$AA@ 101ee1dc     libcmtd:crtmbox.obj
 0003:000361f4       ??_C@_0BA@HNOPNCHB@GetActiveWindow?$AA@ 101ee1f4     libcmtd:crtmbox.obj
 0003:00036208       ??_C@_0M@CHKKJDAI@MessageBoxA?$AA@ 101ee208     libcmtd:crtmbox.obj
 0003:00036218       __real@4150017ec0000000    101ee218     libcmtd:testfdiv.obj
 0003:00036228       __real@4147ffff80000000    101ee228     libcmtd:testfdiv.obj
 0003:00036234       ??_C@_0BK@NHEOCAHP@IsProcessorFeaturePresent?$AA@ 101ee234     libcmtd:testfdiv.obj
 0003:00036254       ??_C@_08CPNIBGIE@KERNEL32?$AA@ 101ee254     libcmtd:testfdiv.obj
 0003:00036260       ??_C@_05KLBDPFGC@e?$CL000?$AA@ 101ee260     libcmtd:cvt.obj
 0003:00036268       ??_C@_0DP@FICHPIPH@?$CI?$CCinconsistent?5IOB?5fields?$CC?0?5stre@ 101ee268     libcmtd:_flsbuf.obj
 0003:000362b4       ??_C@_09DHJHPHJP@_flsbuf?4c?$AA@ 101ee2b4     libcmtd:_flsbuf.obj
 0003:000362c0       ___lookuptable             101ee2c0     libcmtd:output.obj
 0003:0003632c       ??_C@_1O@CEDCILHN@?$AA?$CI?$AAn?$AAu?$AAl?$AAl?$AA?$CJ?$AA?$AA@ 101ee32c     libcmtd:output.obj
 0003:0003633c       ??_C@_06OJHGLDPL@?$CInull?$CJ?$AA@ 101ee33c     libcmtd:output.obj
 0003:00036344       ??_C@_08MEPFMIND@output?4c?$AA@ 101ee344     libcmtd:output.obj
 0003:00036350       ??_C@_0P@LGFCLPDP@ch?5?$CB?$DN?5_T?$CI?8?20?8?$CJ?$AA@ 101ee350     libcmtd:output.obj
 0003:00036364       ??_C@_09BLOOPMDK@isctype?4c?$AA@ 101ee364     libcmtd:isctype.obj
 0003:00036370       ??_C@_0BJ@IAKBGELC@?$CIunsigned?$CJ?$CIc?5?$CL?51?$CJ?5?$DM?$DN?5256?$AA@ 101ee370     libcmtd:isctype.obj
 0003:0003655c       ??_C@_07LCBHPJJN@LC_TIME?$AA@ 101ee55c     libcmtd:setlocal.obj
 0003:00036568       ??_C@_0L@DLHIECNL@LC_NUMERIC?$AA@ 101ee568     libcmtd:setlocal.obj
 0003:00036578       ??_C@_0M@MIENIKLA@LC_MONETARY?$AA@ 101ee578     libcmtd:setlocal.obj
 0003:00036588       ??_C@_08EADHIDAD@LC_CTYPE?$AA@ 101ee588     libcmtd:setlocal.obj
 0003:00036594       ??_C@_0L@KFJHEKIK@LC_COLLATE?$AA@ 101ee594     libcmtd:setlocal.obj
 0003:000365a4       ??_C@_06NEFDFEKB@LC_ALL?$AA@ 101ee5a4     libcmtd:setlocal.obj
 0003:000365c0       ??_C@_0L@LEECJGMI@setlocal?4c?$AA@ 101ee5c0     libcmtd:setlocal.obj
 0003:000365e0       ??_C@_01ICJEACDI@?$DL?$AA@ 101ee5e0     libcmtd:setlocal.obj
 0003:000365e4       ??_C@_02BALPLPBG@?$DN?$DL?$AA@ 101ee5e4     libcmtd:setlocal.obj
 0003:000365e8       ??_C@_01NEMOKFLO@?$DN?$AA@ 101ee5e8     libcmtd:setlocal.obj
 0003:000365ec       ??_C@_03EGDHDPFD@_?4?0?$AA@ 101ee5ec     libcmtd:setlocal.obj
 0003:000365f0       ??_C@_01LFCBOECM@?4?$AA@   101ee5f0     libcmtd:setlocal.obj
 0003:000365f4       ??_C@_01IDAFKMJL@_?$AA@    101ee5f4     libcmtd:setlocal.obj
 0003:000365f8       ??_C@_07PNHPCIEC@_file?4c?$AA@ 101ee5f8     libcmtd:_file.obj
 0003:00036618       ??_C@_0L@CKFHAPLH@_freebuf?4c?$AA@ 101ee618     libcmtd:_freebuf.obj
 0003:00036654       ??_C@_09IFKHNCOH@_sftbuf?4c?$AA@ 101ee654     libcmtd:_sftbuf.obj
 0003:00036660       ??_C@_0BH@HIGALIFJ@flag?5?$DN?$DN?50?5?$HM?$HM?5flag?5?$DN?$DN?51?$AA@ 101ee660     libcmtd:_sftbuf.obj
 0003:0003667c       ??_C@_07JGCPNLLC@_open?4c?$AA@ 101ee67c     libcmtd:_open.obj
 0003:00036688       ??_C@_0BB@KFELMOAG@filename?5?$CB?$DN?5NULL?$AA@ 101ee688     libcmtd:_open.obj
 0003:0003669c       ??_C@_08MKBBPGGN@stream?4c?$AA@ 101ee69c     libcmtd:stream.obj
 0003:00036708       ??_C@_08MAFBHINM@ioinit?4c?$AA@ 101ee708     libcmtd:ioinit.obj
 0003:00036714       ??_C@_09HCDLHOJP@stdenvp?4c?$AA@ 101ee714     libcmtd:stdenvp.obj
 0003:00036720       ??_C@_09IKILHJIC@stdargv?4c?$AA@ 101ee720     libcmtd:stdargv.obj
 0003:0003672c       ??_C@_07BPGNOCOG@a_env?4c?$AA@ 101ee72c     libcmtd:a_env.obj
 0003:00036758       ??_C@_0P@GGKDKEEG@runtime?5error?5?$AA@ 101ee758     libcmtd:crt0msg.obj
 0003:0003676c       ??_C@_0O@MJNIPGOH@TLOSS?5error?$AN?6?$AA@ 101ee76c     libcmtd:crt0msg.obj
 0003:0003677c       ??_C@_0N@BONNPDHF@SING?5error?$AN?6?$AA@ 101ee77c     libcmtd:crt0msg.obj
 0003:0003678c       ??_C@_0P@MBDAJNE@DOMAIN?5error?$AN?6?$AA@ 101ee78c     libcmtd:crt0msg.obj
 0003:000367a0       ??_C@_0KC@BDDGGBEJ@R6029?$AN?6?9?5This?5application?5cannot@ 101ee7a0     libcmtd:crt0msg.obj
 0003:00036864       ??_C@_0CF@KJDAIALP@R6028?$AN?6?9?5unable?5to?5initialize?5he@ 101ee864     libcmtd:crt0msg.obj
 0003:00036890       ??_C@_0DF@GAKBPDFP@R6027?$AN?6?9?5not?5enough?5space?5for?5lo@ 101ee890     libcmtd:crt0msg.obj
 0003:000368d0       ??_C@_0DF@IBLNNAIG@R6026?$AN?6?9?5not?5enough?5space?5for?5st@ 101ee8d0     libcmtd:crt0msg.obj
 0003:00036910       ??_C@_0CG@IOHKGFNJ@R6025?$AN?6?9?5pure?5virtual?5function?5c@ 101ee910     libcmtd:crt0msg.obj
 0003:00036940       ??_C@_0DF@JIJJFJDC@R6024?$AN?6?9?5not?5enough?5space?5for?5_o@ 101ee940     libcmtd:crt0msg.obj
 0003:00036980       ??_C@_0CJ@EGEJHFME@R6019?$AN?6?9?5unable?5to?5open?5console?5@ 101ee980     libcmtd:crt0msg.obj
 0003:000369b4       ??_C@_0CB@GNHNIELH@R6018?$AN?6?9?5unexpected?5heap?5error?$AN?6@ 101ee9b4     libcmtd:crt0msg.obj
 0003:000369dc       ??_C@_0CN@FOLDKNG@R6017?$AN?6?9?5unexpected?5multithread?5@ 101ee9dc     libcmtd:crt0msg.obj
 0003:00036a14       ??_C@_0CM@FAHFJNHO@R6016?$AN?6?9?5not?5enough?5space?5for?5th@ 101eea14     libcmtd:crt0msg.obj
 0003:00036a48       ??_C@_0JG@LBKMGKLD@?$AN?6This?5application?5has?5requested@ 101eea48     libcmtd:crt0msg.obj
 0003:00036afc       ??_C@_0CM@FLCNIPKK@R6009?$AN?6?9?5not?5enough?5space?5for?5en@ 101eeafc     libcmtd:crt0msg.obj
 0003:00036b30       ??_C@_0CK@KMMJOAPP@R6008?$AN?6?9?5not?5enough?5space?5for?5ar@ 101eeb30     libcmtd:crt0msg.obj
 0003:00036b64       ??_C@_0CF@HOHMHDEK@R6002?$AN?6?9?5floating?5point?5not?5load@ 101eeb64     libcmtd:crt0msg.obj
 0003:00036b90       ??_C@_0CF@GOGNBNAK@Microsoft?5Visual?5C?$CL?$CL?5Runtime?5Lib@ 101eeb90     libcmtd:crt0msg.obj
 0003:00036bbc       ??_C@_0BK@OFGJDLJJ@Runtime?5Error?$CB?6?6Program?3?5?$AA@ 101eebbc     libcmtd:crt0msg.obj
 0003:00036bdc       ??_C@_09KLGCKDOD@Program?3?5?$AA@ 101eebdc     libcmtd:secfail.obj
 0003:00036be8       ??_C@_0KA@JEHFIFGP@A?5buffer?5overrun?5has?5been?5detect@ 101eebe8     libcmtd:secfail.obj
 0003:00036ca8       ??_C@_0BJ@MDEKIEOJ@Buffer?5overrun?5detected?$CB?$AA@ 101eeca8     libcmtd:secfail.obj
 0003:00036cc8       ??_C@_0LB@BPLHHLFD@A?5security?5error?5of?5unknown?5caus@ 101eecc8     libcmtd:secfail.obj
 0003:00036d9c       ??_C@_0CD@GMKACBEK@Unknown?5security?5failure?5detecte@ 101eed9c     libcmtd:secfail.obj
 0003:00036dd8       ??_C@_0CO@OCFDICDP@f?3?2vs70builds?23077?2vc?2crtbld?2crt@ 101eedd8     libcmtd:woutput.obj
 0003:00036e10       ??_C@_07CMLOKKIF@input?4c?$AA@ 101eee10     libcmtd:input.obj
 0003:00036e30       ??_C@_07FEAFKIIG@a_map?4c?$AA@ 101eee30     libcmtd:a_map.obj
 0003:00036e3c       ??_C@_13NOLLCAOD@?$AA?$AA?$AA?$AA@ 101eee3c     libcmtd:a_map.obj
 0003:00036e6c       ??_C@_07GPNABLBE@a_str?4c?$AA@ 101eee6c     libcmtd:a_str.obj
 0003:00036e88       ??_C@_09JDJPONGG@asctime?4c?$AA@ 101eee88     libcmtd:asctime.obj
 0003:00036e94       ??_C@_0M@HHEBEAAO@MSPDB71?4DLL?$AA@ 101eee94     libcmtd:pdblkup.obj
 0003:00036ea4       ??_C@_01KDCPPGHE@r?$AA@    101eeea4     libcmtd:pdblkup.obj
 0003:00036ea8       ??_C@_08ONJBEOFA@PDBClose?$AA@ 101eeea8     libcmtd:pdblkup.obj
 0003:00036eb4       ??_C@_08NINFAAFA@DBIClose?$AA@ 101eeeb4     libcmtd:pdblkup.obj
 0003:00036ec0       ??_C@_08LIGPJJNA@ModClose?$AA@ 101eeec0     libcmtd:pdblkup.obj
 0003:00036ecc       ??_C@_0O@IPLOKOKN@ModQueryLines?$AA@ 101eeecc     libcmtd:pdblkup.obj
 0003:00036edc       ??_C@_0BE@GDNPNLGH@DBIQueryModFromAddr?$AA@ 101eeedc     libcmtd:pdblkup.obj
 0003:00036ef4       ??_C@_0L@KPMOCKEL@PDBOpenDBI?$AA@ 101eeef4     libcmtd:pdblkup.obj
 0003:00036f04       ??_C@_0BB@PENKIMFE@PDBOpenValidate3?$AA@ 101eef04     libcmtd:pdblkup.obj
 0003:00036f18       ??_C@_0N@KIGOLBLC@Module32Next?$AA@ 101eef18     libcmtd:pdblkup.obj
 0003:00036f28       ??_C@_0O@CNMFJJGO@Module32First?$AA@ 101eef28     libcmtd:pdblkup.obj
 0003:00036f38       ??_C@_0BF@OCLFCNKN@GetModuleInformation?$AA@ 101eef38     libcmtd:pdblkup.obj
 0003:00036f54       ??_C@_0BD@FIEJBLME@EnumProcessModules?$AA@ 101eef54     libcmtd:pdblkup.obj
 0003:00036f6c       ??_C@_09EPMADGLA@PSAPI?4DLL?$AA@ 101eef6c     libcmtd:pdblkup.obj
 0003:00036f78       ??_C@_0BJ@JEFKDHMD@CreateToolhelp32Snapshot?$AA@ 101eef78     libcmtd:pdblkup.obj
 0003:00036f98       ??_C@_0O@CHDGJGFP@ImageNtHeader?$AA@ 101eef98     libcmtd:pdblkup.obj
 0003:00036fa8       ??_C@_0N@KBGMOMJO@IMAGEHLP?4DLL?$AA@ 101eefa8     libcmtd:pdblkup.obj
 0003:00036fb8       ??_C@_0N@NHGLKGEC@KERNEL32?4DLL?$AA@ 101eefb8     libcmtd:pdblkup.obj
 0003:00036fc8       ??_C@_0BF@BMIHBHCA@EnvironmentDirectory?$AA@ 101eefc8     libcmtd:pdblkup.obj
 0003:00036fe4       ??_C@_0CN@KGLAKABH@SOFTWARE?2Microsoft?2VisualStudio?2@ 101eefe4     libcmtd:pdblkup.obj
 0003:0003701c       ??_C@_0M@HLOHPNFA@RegCloseKey?$AA@ 101ef01c     libcmtd:pdblkup.obj
 0003:0003702c       ??_C@_0BB@HHEIPGME@RegQueryValueExA?$AA@ 101ef02c     libcmtd:pdblkup.obj
 0003:00037040       ??_C@_0O@DCOGKJGG@RegOpenKeyExA?$AA@ 101ef040     libcmtd:pdblkup.obj
 0003:00037050       ??_C@_0N@JJPEKNFO@ADVAPI32?4DLL?$AA@ 101ef050     libcmtd:pdblkup.obj
 0003:00037060       ??_C@_0CG@PKBDLMEO@InitializeCriticalSectionAndSpin@ 101ef060     libcmtd:initcrit.obj
 0003:000370c0       ??_C@_09PKAEMGHJ@_getbuf?4c?$AA@ 101ef0c0     libcmtd:_getbuf.obj
 0003:000370d0       ___newctype                101ef0d0     libcmtd:ctype.obj
 0003:000373d0       __wctype                   101ef3d0     libcmtd:ctype.obj
 0003:000376d4       ??_C@_08JCCMCCIL@HH?3mm?3ss?$AA@ 101ef6d4     libcmtd:strftime.obj
 0003:000376e0       ??_C@_0BE@CKGJFCPC@dddd?0?5MMMM?5dd?0?5yyyy?$AA@ 101ef6e0     libcmtd:strftime.obj
 0003:000376f8       ??_C@_08BPBNCDIB@MM?1dd?1yy?$AA@ 101ef6f8     libcmtd:strftime.obj
 0003:00037704       ??_C@_02CJNFDJBF@PM?$AA@   101ef704     libcmtd:strftime.obj
 0003:00037708       ??_C@_02DEDBPAFC@AM?$AA@   101ef708     libcmtd:strftime.obj
 0003:0003770c       ??_C@_08EDHMEBNP@December?$AA@ 101ef70c     libcmtd:strftime.obj
 0003:00037718       ??_C@_08HCHEGEOA@November?$AA@ 101ef718     libcmtd:strftime.obj
 0003:00037724       ??_C@_07JJNFCEND@October?$AA@ 101ef724     libcmtd:strftime.obj
 0003:00037730       ??_C@_09BHHEALKD@September?$AA@ 101ef730     libcmtd:strftime.obj
 0003:0003773c       ??_C@_06LBBHFDDG@August?$AA@ 101ef73c     libcmtd:strftime.obj
 0003:00037744       ??_C@_04MIEPOIFP@July?$AA@ 101ef744     libcmtd:strftime.obj
 0003:0003774c       ??_C@_04CNLMGBGM@June?$AA@ 101ef74c     libcmtd:strftime.obj
 0003:00037754       ??_C@_05DMJDNLEJ@April?$AA@ 101ef754     libcmtd:strftime.obj
 0003:0003775c       ??_C@_05HPCKOFNC@March?$AA@ 101ef75c     libcmtd:strftime.obj
 0003:00037764       ??_C@_08GNJGEPFN@February?$AA@ 101ef764     libcmtd:strftime.obj
 0003:00037770       ??_C@_07CGJPFGJA@January?$AA@ 101ef770     libcmtd:strftime.obj
 0003:0003777c       ??_C@_03MKABNOCG@Dec?$AA@  101ef77c     libcmtd:strftime.obj
 0003:00037780       ??_C@_03JPJOFNIA@Nov?$AA@  101ef780     libcmtd:strftime.obj
 0003:00037784       ??_C@_03BMAOKBAD@Oct?$AA@  101ef784     libcmtd:strftime.obj
 0003:00037788       ??_C@_03GGCAPAJC@Sep?$AA@  101ef788     libcmtd:strftime.obj
 0003:0003778c       ??_C@_03IFJFEIGA@Aug?$AA@  101ef78c     libcmtd:strftime.obj
 0003:00037790       ??_C@_03LBGABGKK@Jul?$AA@  101ef790     libcmtd:strftime.obj
 0003:00037794       ??_C@_03IDFGHECI@Jun?$AA@  101ef794     libcmtd:strftime.obj
 0003:00037798       ??_C@_03CNMDKL@May?$AA@    101ef798     libcmtd:strftime.obj
 0003:0003779c       ??_C@_03LEOLGMJP@Apr?$AA@  101ef79c     libcmtd:strftime.obj
 0003:000377a0       ??_C@_03ODNJBKGA@Mar?$AA@  101ef7a0     libcmtd:strftime.obj
 0003:000377a4       ??_C@_03HJBDCHOM@Feb?$AA@  101ef7a4     libcmtd:strftime.obj
 0003:000377a8       ??_C@_03JIHJHPIE@Jan?$AA@  101ef7a8     libcmtd:strftime.obj
 0003:000377ac       ??_C@_08INBOOONO@Saturday?$AA@ 101ef7ac     libcmtd:strftime.obj
 0003:000377b8       ??_C@_06JECMNKMI@Friday?$AA@ 101ef7b8     libcmtd:strftime.obj
 0003:000377c0       ??_C@_08HACCIKIA@Thursday?$AA@ 101ef7c0     libcmtd:strftime.obj
 0003:000377cc       ??_C@_09DLIGFAKA@Wednesday?$AA@ 101ef7cc     libcmtd:strftime.obj
 0003:000377d8       ??_C@_07BAAGCFCM@Tuesday?$AA@ 101ef7d8     libcmtd:strftime.obj
 0003:000377e4       ??_C@_06JLEDEDGH@Monday?$AA@ 101ef7e4     libcmtd:strftime.obj
 0003:000377ec       ??_C@_06OOPIFAJ@Sunday?$AA@ 101ef7ec     libcmtd:strftime.obj
 0003:000377f4       ??_C@_03FEFJNEK@Sat?$AA@   101ef7f4     libcmtd:strftime.obj
 0003:000377f8       ??_C@_03IDIOELNC@Fri?$AA@  101ef7f8     libcmtd:strftime.obj
 0003:000377fc       ??_C@_03IOFIKPDN@Thu?$AA@  101ef7fc     libcmtd:strftime.obj
 0003:00037800       ??_C@_03MHOMLAJA@Wed?$AA@  101ef800     libcmtd:strftime.obj
 0003:00037804       ??_C@_03NAGEINEP@Tue?$AA@  101ef804     libcmtd:strftime.obj
 0003:00037808       ??_C@_03PDAGKDH@Mon?$AA@   101ef808     libcmtd:strftime.obj
 0003:0003780c       ??_C@_03KOEHGMDN@Sun?$AA@  101ef80c     libcmtd:strftime.obj
 0003:00037810       ??_C@_0L@OCEOFAIF@strftime?4c?$AA@ 101ef810     libcmtd:strftime.obj
 0003:00037820       ??_C@_0DJ@BLPIACFC@?$CI?$CCInvalid?5MBCS?5character?5sequenc@ 101ef820     libcmtd:strftime.obj
 0003:00037864       ??_C@_0DD@GLPHLKIC@?$CI?$CCZero?5length?5output?5buffer?5pass@ 101ef864     libcmtd:strftime.obj
 0003:000378a4       ??_C@_0DL@LLHFCBKO@?$CI?$CCInvalid?5MBCS?5character?5sequenc@ 101ef8a4     libcmtd:strftime.obj
 0003:000378f0       ??_C@_0EC@CJNAOFBG@?$CI?$CCInvalid?5MBCS?5character?5sequenc@ 101ef8f0     libcmtd:strftime.obj
 0003:00037940       ??_C@_03EBAPMIKO@a?1p?$AA@ 101ef940     libcmtd:strftime.obj
 0003:00037944       ??_C@_05JAMEPDIN@am?1pm?$AA@ 101ef944     libcmtd:strftime.obj
 0003:00037960       ??_C@_0L@IOJADHBB@inittime?4c?$AA@ 101ef960     libcmtd:inittime.obj
 0003:00037970       ??_C@_09MECGNAGI@initnum?4c?$AA@ 101ef970     libcmtd:initnum.obj
 0003:0003797c       ??_C@_09HKFHICAL@initmon?4c?$AA@ 101ef97c     libcmtd:initmon.obj
 0003:00037988       ??_C@_0L@GBAGBCPL@initctyp?4c?$AA@ 101ef988     libcmtd:initctyp.obj
 0003:00037998       ___rgLocInfo               101ef998     libcmtd:getqloc.obj
 0003:00037f2c       ??_C@_08PKBIPKE@Paraguay?$AA@ 101eff2c     libcmtd:getqloc.obj
 0003:00037f38       ??_C@_07GHBIBIBP@Uruguay?$AA@ 101eff38     libcmtd:getqloc.obj
 0003:00037f44       ??_C@_05HBNKAPDN@Chile?$AA@ 101eff44     libcmtd:getqloc.obj
 0003:00037f4c       ??_C@_07FEIFIPNF@Ecuador?$AA@ 101eff4c     libcmtd:getqloc.obj
 0003:00037f58       ??_C@_09PGNFPGME@Argentina?$AA@ 101eff58     libcmtd:getqloc.obj
 0003:00037f64       ??_C@_04IALPBJF@Peru?$AA@  101eff64     libcmtd:getqloc.obj
 0003:00037f6c       ??_C@_08IJPLNLKH@Colombia?$AA@ 101eff6c     libcmtd:getqloc.obj
 0003:00037f78       ??_C@_09IDMFKCN@Venezuela?$AA@ 101eff78     libcmtd:getqloc.obj
 0003:00037f84       ??_C@_0BD@DNEJOGOK@Dominican?5Republic?$AA@ 101eff84     libcmtd:getqloc.obj
 0003:00037f9c       ??_C@_0N@LPINDNDB@South?5Africa?$AA@ 101eff9c     libcmtd:getqloc.obj
 0003:00037fac       ??_C@_06BLJPEOBG@Panama?$AA@ 101effac     libcmtd:getqloc.obj
 0003:00037fb4       ??_C@_0L@BOCNDGON@Luxembourg?$AA@ 101effb4     libcmtd:getqloc.obj
 0003:00037fc4       ??_C@_0L@CONEHKA@Costa?5Rica?$AA@ 101effc4     libcmtd:getqloc.obj
 0003:00037fd4       ??_C@_0M@KGBPELAM@Switzerland?$AA@ 101effd4     libcmtd:getqloc.obj
 0003:00037fe4       ??_C@_09FJGLIMAG@Guatemala?$AA@ 101effe4     libcmtd:getqloc.obj
 0003:00037ff0       ??_C@_06ECHIPDMK@Canada?$AA@ 101efff0     libcmtd:getqloc.obj
 0003:00037ff8       ??_C@_0BG@CCEBNPGH@Spanish?5?9?5Modern?5Sort?$AA@ 101efff8     libcmtd:getqloc.obj
 0003:00038014       ??_C@_09EFGJAPAD@Australia?$AA@ 101f0014     libcmtd:getqloc.obj
 0003:00038020       ??_C@_07NEKHPBCG@English?$AA@ 101f0020     libcmtd:getqloc.obj
 0003:0003802c       ??_C@_07LKIIOGFH@Austria?$AA@ 101f002c     libcmtd:getqloc.obj
 0003:00038038       ??_C@_06EDDDIONA@German?$AA@ 101f0038     libcmtd:getqloc.obj
 0003:00038040       ??_C@_07LIIIOFOA@Belgium?$AA@ 101f0040     libcmtd:getqloc.obj
 0003:0003804c       ??_C@_06DIAOLLEH@Mexico?$AA@ 101f004c     libcmtd:getqloc.obj
 0003:00038054       ??_C@_07PFALJOGE@Spanish?$AA@ 101f0054     libcmtd:getqloc.obj
 0003:00038060       ??_C@_06FFOOPAJB@Basque?$AA@ 101f0060     libcmtd:getqloc.obj
 0003:00038068       ??_C@_06DGHNDJFJ@Sweden?$AA@ 101f0068     libcmtd:getqloc.obj
 0003:00038070       ??_C@_07OBINPKFN@Swedish?$AA@ 101f0070     libcmtd:getqloc.obj
 0003:0003807c       ??_C@_07NCOIHDGC@Iceland?$AA@ 101f007c     libcmtd:getqloc.obj
 0003:00038088       ??_C@_09JHBBDDIA@Icelandic?$AA@ 101f0088     libcmtd:getqloc.obj
 0003:00038094       ??_C@_06COBCPIFO@France?$AA@ 101f0094     libcmtd:getqloc.obj
 0003:0003809c       ??_C@_06GODMCAND@French?$AA@ 101f009c     libcmtd:getqloc.obj
 0003:000380a4       ??_C@_07MFHPMOED@Finland?$AA@ 101f00a4     libcmtd:getqloc.obj
 0003:000380b0       ??_C@_07MCEAMKOD@Finnish?$AA@ 101f00b0     libcmtd:getqloc.obj
 0003:000380bc       ??_C@_05CBHOCCK@Spain?$AA@ 101f00bc     libcmtd:getqloc.obj
 0003:000380c4       ??_C@_0BL@GIOEGDHB@Spanish?5?9?5Traditional?5Sort?$AA@ 101f00c4     libcmtd:getqloc.obj
 0003:000380e4       ___rglangidNotDefault      101f00e4     libcmtd:getqloc.obj
 0003:00038100       ___rg_country              101f0100     libcmtd:getqloc.obj
 0003:000381dc       ??_C@_0O@FMJNFNKE@united?9states?$AA@ 101f01dc     libcmtd:getqloc.obj
 0003:000381ec       ??_C@_0P@NDHFFKCA@united?9kingdom?$AA@ 101f01ec     libcmtd:getqloc.obj
 0003:00038200       ??_C@_0BC@HHDADLGF@trinidad?5?$CG?5tobago?$AA@ 101f0200     libcmtd:getqloc.obj
 0003:00038218       ??_C@_0M@IOAEBDAC@south?9korea?$AA@ 101f0218     libcmtd:getqloc.obj
 0003:00038228       ??_C@_0N@FIELFKIJ@south?9africa?$AA@ 101f0228     libcmtd:getqloc.obj
 0003:00038238       ??_C@_0M@OPNDHCMC@south?5korea?$AA@ 101f0238     libcmtd:getqloc.obj
 0003:00038248       ??_C@_0N@MDEOEPFI@south?5africa?$AA@ 101f0248     libcmtd:getqloc.obj
 0003:00038258       ??_C@_06FKAPCJLB@slovak?$AA@ 101f0258     libcmtd:getqloc.obj
 0003:00038260       ??_C@_0M@EFJANOAL@puerto?9rico?$AA@ 101f0260     libcmtd:getqloc.obj
 0003:00038270       ??_C@_08PGOJKDAI@pr?9china?$AA@ 101f0270     libcmtd:getqloc.obj
 0003:0003827c       ??_C@_08JHDOMCMI@pr?5china?$AA@ 101f027c     libcmtd:getqloc.obj
 0003:00038288       ??_C@_02JHCHFBLL@nz?$AA@   101f0288     libcmtd:getqloc.obj
 0003:0003828c       ??_C@_0M@LINHDHKP@new?9zealand?$AA@ 101f028c     libcmtd:getqloc.obj
 0003:0003829c       ??_C@_09IIIPPBDB@hong?9kong?$AA@ 101f029c     libcmtd:getqloc.obj
 0003:000382a8       ??_C@_07HJLCKBG@holland?$AA@ 101f02a8     libcmtd:getqloc.obj
 0003:000382b4       ??_C@_0O@LEHGMHAG@great?5britain?$AA@ 101f02b4     libcmtd:getqloc.obj
 0003:000382c4       ??_C@_07FACOMELA@england?$AA@ 101f02c4     libcmtd:getqloc.obj
 0003:000382d0       ??_C@_05JIHCEICB@czech?$AA@ 101f02d0     libcmtd:getqloc.obj
 0003:000382d8       ??_C@_05BBJOBLGB@china?$AA@ 101f02d8     libcmtd:getqloc.obj
 0003:000382e0       ??_C@_07GPKPHICP@britain?$AA@ 101f02e0     libcmtd:getqloc.obj
 0003:000382ec       ??_C@_07MHIPBHMG@america?$AA@ 101f02ec     libcmtd:getqloc.obj
 0003:000382f8       ___rg_language             101f02f8     libcmtd:getqloc.obj
 0003:00038568       ??_C@_03KIALPMKC@usa?$AA@  101f0568     libcmtd:getqloc.obj
 0003:0003856c       ??_C@_02FGJGKGGD@us?$AA@   101f056c     libcmtd:getqloc.obj
 0003:00038570       ??_C@_02NEINDODK@uk?$AA@   101f0570     libcmtd:getqloc.obj
 0003:00038574       ??_C@_05JMPCFJFJ@swiss?$AA@ 101f0574     libcmtd:getqloc.obj
 0003:0003857c       ??_C@_0BA@HLOCPIOD@swedish?9finland?$AA@ 101f057c     libcmtd:getqloc.obj
 0003:00038590       ??_C@_0BC@PKCNIABK@spanish?9venezuela?$AA@ 101f0590     libcmtd:getqloc.obj
 0003:000385a8       ??_C@_0BA@GBHHMIJI@spanish?9uruguay?$AA@ 101f05a8     libcmtd:getqloc.obj
 0003:000385bc       ??_C@_0BE@BHDOHPMC@spanish?9puerto?5rico?$AA@ 101f05bc     libcmtd:getqloc.obj
 0003:000385d4       ??_C@_0N@KMOIDGGN@spanish?9peru?$AA@ 101f05d4     libcmtd:getqloc.obj
 0003:000385e4       ??_C@_0BB@HMHLPGPH@spanish?9paraguay?$AA@ 101f05e4     libcmtd:getqloc.obj
 0003:000385f8       ??_C@_0P@MCPKNGFD@spanish?9panama?$AA@ 101f05f8     libcmtd:getqloc.obj
 0003:0003860c       ??_C@_0BC@IHOHGAIL@spanish?9nicaragua?$AA@ 101f060c     libcmtd:getqloc.obj
 0003:00038624       ??_C@_0P@KLMJDNFJ@spanish?9modern?$AA@ 101f0624     libcmtd:getqloc.obj
 0003:00038638       ??_C@_0BA@BPAPGBCM@spanish?9mexican?$AA@ 101f0638     libcmtd:getqloc.obj
 0003:0003864c       ??_C@_0BB@PDECHHHE@spanish?9honduras?$AA@ 101f064c     libcmtd:getqloc.obj
 0003:00038660       ??_C@_0BC@KLHKFGDB@spanish?9guatemala?$AA@ 101f0660     libcmtd:getqloc.obj
 0003:00038678       ??_C@_0BE@MFOOKJAI@spanish?9el?5salvador?$AA@ 101f0678     libcmtd:getqloc.obj
 0003:00038690       ??_C@_0BA@FCOKFPFC@spanish?9ecuador?$AA@ 101f0690     libcmtd:getqloc.obj
 0003:000386a4       ??_C@_0BL@PLMGIMOO@spanish?9dominican?5republic?$AA@ 101f06a4     libcmtd:getqloc.obj
 0003:000386c4       ??_C@_0BD@HLGDNMHB@spanish?9costa?5rica?$AA@ 101f06c4     libcmtd:getqloc.obj
 0003:000386dc       ??_C@_0BB@PKCBKCPE@spanish?9colombia?$AA@ 101f06dc     libcmtd:getqloc.obj
 0003:000386f0       ??_C@_0O@MCBIJGNE@spanish?9chile?$AA@ 101f06f0     libcmtd:getqloc.obj
 0003:00038700       ??_C@_0BA@BEFEIGJJ@spanish?9bolivia?$AA@ 101f0700     libcmtd:getqloc.obj
 0003:00038714       ??_C@_0BC@EMECMPD@spanish?9argentina?$AA@ 101f0714     libcmtd:getqloc.obj
 0003:0003872c       ??_C@_0BF@EALFLENP@portuguese?9brazilian?$AA@ 101f072c     libcmtd:getqloc.obj
 0003:00038748       ??_C@_0BC@HBLEBLNN@norwegian?9nynorsk?$AA@ 101f0748     libcmtd:getqloc.obj
 0003:00038760       ??_C@_0BB@HMACDDCK@norwegian?9bokmal?$AA@ 101f0760     libcmtd:getqloc.obj
 0003:00038774       ??_C@_09BAFFPPHE@norwegian?$AA@ 101f0774     libcmtd:getqloc.obj
 0003:00038780       ??_C@_0O@EAJFJDFG@italian?9swiss?$AA@ 101f0780     libcmtd:getqloc.obj
 0003:00038790       ??_C@_0O@CNOMPGD@irish?9english?$AA@ 101f0790     libcmtd:getqloc.obj
 0003:000387a0       ??_C@_0N@EDHBGCKG@german?9swiss?$AA@ 101f07a0     libcmtd:getqloc.obj
 0003:000387b0       ??_C@_0BC@JACMHNBP@german?9luxembourg?$AA@ 101f07b0     libcmtd:getqloc.obj
 0003:000387c8       ??_C@_0BE@HBGMGFEG@german?9lichtenstein?$AA@ 101f07c8     libcmtd:getqloc.obj
 0003:000387e0       ??_C@_0BA@HKKBIBKL@german?9austrian?$AA@ 101f07e0     libcmtd:getqloc.obj
 0003:000387f4       ??_C@_0N@GCAEPEBK@french?9swiss?$AA@ 101f07f4     libcmtd:getqloc.obj
 0003:00038804       ??_C@_0BC@DJFJJCK@french?9luxembourg?$AA@ 101f0804     libcmtd:getqloc.obj
 0003:0003881c       ??_C@_0BA@NNCEDFIC@french?9canadian?$AA@ 101f081c     libcmtd:getqloc.obj
 0003:00038830       ??_C@_0P@CMPOCLM@french?9belgian?$AA@ 101f0830     libcmtd:getqloc.obj
 0003:00038844       ??_C@_0M@GHHDJOK@english?9usa?$AA@ 101f0844     libcmtd:getqloc.obj
 0003:00038854       ??_C@_0L@PLDJKEIL@english?9us?$AA@ 101f0854     libcmtd:getqloc.obj
 0003:00038864       ??_C@_0L@HJCCDMNC@english?9uk?$AA@ 101f0864     libcmtd:getqloc.obj
 0003:00038874       ??_C@_0BK@CKLIAGJB@english?9trinidad?5y?5tobago?$AA@ 101f0874     libcmtd:getqloc.obj
 0003:00038894       ??_C@_0BF@JMJMGNNF@english?9south?5africa?$AA@ 101f0894     libcmtd:getqloc.obj
 0003:000388b0       ??_C@_0L@DKIIFDFD@english?9nz?$AA@ 101f08b0     libcmtd:getqloc.obj
 0003:000388c0       ??_C@_0BA@ONHGJCLH@english?9jamaica?$AA@ 101f08c0     libcmtd:getqloc.obj
 0003:000388d4       ??_C@_0M@HJBGHOPO@english?9ire?$AA@ 101f08d4     libcmtd:getqloc.obj
 0003:000388e4       ??_C@_0BC@LFEKMIFB@english?9caribbean?$AA@ 101f08e4     libcmtd:getqloc.obj
 0003:000388fc       ??_C@_0M@OLDPFKHI@english?9can?$AA@ 101f08fc     libcmtd:getqloc.obj
 0003:0003890c       ??_C@_0P@OMDEHBMP@english?9belize?$AA@ 101f090c     libcmtd:getqloc.obj
 0003:00038920       ??_C@_0M@KFHFPFED@english?9aus?$AA@ 101f0920     libcmtd:getqloc.obj
 0003:00038930       ??_C@_0BB@MNMBKDFE@english?9american?$AA@ 101f0930     libcmtd:getqloc.obj
 0003:00038944       ??_C@_0O@KIDLNNBA@dutch?9belgian?$AA@ 101f0944     libcmtd:getqloc.obj
 0003:00038954       ??_C@_0BE@JBKABBMH@chinese?9traditional?$AA@ 101f0954     libcmtd:getqloc.obj
 0003:0003896c       ??_C@_0BC@MJJMPKCG@chinese?9singapore?$AA@ 101f096c     libcmtd:getqloc.obj
 0003:00038984       ??_C@_0BD@FDKADDCP@chinese?9simplified?$AA@ 101f0984     libcmtd:getqloc.obj
 0003:0003899c       ??_C@_0BB@DBEFDDME@chinese?9hongkong?$AA@ 101f099c     libcmtd:getqloc.obj
 0003:000389b0       ??_C@_07DHNMFMCI@chinese?$AA@ 101f09b0     libcmtd:getqloc.obj
 0003:000389bc       ??_C@_03FNDDCHI@chi?$AA@   101f09bc     libcmtd:getqloc.obj
 0003:000389c0       ??_C@_03BMMIADDJ@chh?$AA@  101f09c0     libcmtd:getqloc.obj
 0003:000389c4       ??_C@_08OAIPJDGI@canadian?$AA@ 101f09c4     libcmtd:getqloc.obj
 0003:000389d0       ??_C@_07HBPMNPNJ@belgian?$AA@ 101f09d0     libcmtd:getqloc.obj
 0003:000389dc       ??_C@_0L@OEKOPBEL@australian?$AA@ 101f09dc     libcmtd:getqloc.obj
 0003:000389ec       ??_C@_0BB@MEIMBEDG@american?9english?$AA@ 101f09ec     libcmtd:getqloc.obj
 0003:00038a00       ??_C@_0BB@DFMDPDGB@american?5english?$AA@ 101f0a00     libcmtd:getqloc.obj
 0003:00038a14       ??_C@_08IJLOKOLL@american?$AA@ 101f0a14     libcmtd:getqloc.obj
 0003:00038a20       ??_C@_0BC@NFIEMBLL@Norwegian?9Nynorsk?$AA@ 101f0a20     libcmtd:getqloc.obj
 0003:00038a38       ??_C@_03NFKLAGEF@OCP?$AA@  101f0a38     libcmtd:getqloc.obj
 0003:00038a3c       ??_C@_03DFHEHBHG@ACP?$AA@  101f0a3c     libcmtd:getqloc.obj
 0003:00038a50       ??_C@_09MGNHMPHC@osfinfo?4c?$AA@ 101f0a50     libcmtd:osfinfo.obj
 0003:00038ad0       ??_C@_08NJPDFEGP@mbtowc?4c?$AA@ 101f0ad0     libcmtd:mbtowc.obj
 0003:00038adc       ??_C@_0DD@FIIGOHOA@ptloci?9?$DOmb_cur_max?5?$DN?$DN?51?5?$HM?$HM?5ptloc@ 101f0adc     libcmtd:mbtowc.obj
 0003:00038b1c       ??_C@_08KKFOAFAI@fputwc?4c?$AA@ 101f0b1c     libcmtd:fputwc.obj
 0003:00038b38       ??_C@_09OOOBBFNM@_filbuf?4c?$AA@ 101f0b38     libcmtd:_filbuf.obj
 0003:00038b44       ??_C@_08CJEJHOKM@ungetc?4c?$AA@ 101f0b44     libcmtd:ungetc.obj
 0003:00038b60       ??_C@_0L@KBNGFDKM@convrtcp?4c?$AA@ 101f0b60     libcmtd:convrtcp.obj
 0003:00038b80       ??_C@_06IMKFLFPG@1?$CDQNAN?$AA@ 101f0b80     libcmtd:x10fout.obj
 0003:00038b88       ??_C@_05DNEBIAHO@1?$CDINF?$AA@ 101f0b88     libcmtd:x10fout.obj
 0003:00038b90       ??_C@_05PHHOCPM@1?$CDIND?$AA@ 101f0b90     libcmtd:x10fout.obj
 0003:00038b98       ??_C@_06PGGFOGJG@1?$CDSNAN?$AA@ 101f0b98     libcmtd:x10fout.obj
 0003:00038ba0       ___dnames                  101f0ba0     libcmtd:timeset.obj
 0003:00038bb8       ___mnames                  101f0bb8     libcmtd:timeset.obj
 0003:00038c10       ??_C@_07LOOFNDIO@tzset?4c?$AA@ 101f0c10     libcmtd:tzset.obj
 0003:00038c1c       ??_C@_02CLFPBFFP@TZ?$AA@   101f0c1c     libcmtd:tzset.obj
 0003:00038c40       ??_C@_0L@DEBGKJLD@gmtime64?4c?$AA@ 101f0c40     libcmtd:gmtime64.obj
 0003:00038c60       ??_C@_0L@DILIPMN@inithelp?4c?$AA@ 101f0c60     libcmtd:inithelp.obj
 0003:00038c80       ??_C@_08EOPENFML@chsize?4c?$AA@ 101f0c80     libcmtd:chsize.obj
 0003:00038c8c       ??_C@_09OJCCCDEJ@size?5?$DO?$DN?50?$AA@ 101f0c8c     libcmtd:chsize.obj
 0003:00038ca8       ??_C@_0CP@JOANPPIG@f?3?2vs70builds?23077?2vc?2crtbld?2crt@ 101f0ca8     libcmtd:_flswbuf.obj
 0003:00038cf0       ??_C@_07NIBBAFJP@w_loc?4c?$AA@ 101f0cf0     libcmtd:w_loc.obj
 0003:00038d10       ??_C@_07GCMFDNDD@a_loc?4c?$AA@ 101f0d10     libcmtd:a_loc.obj
 0003:00038d40       ??_C@_0L@CELCHBFJ@wtombenv?4c?$AA@ 101f0d40     libcmtd:wtombenv.obj
 0003:00038d50       ??_C@_07KLPPCEPH@a_cmp?4c?$AA@ 101f0d50     libcmtd:a_cmp.obj
 0003:00038d5c       ??_C@_0DN@NFIMOOFE@cchCount1?$DN?$DN0?5?$CG?$CG?5cchCount2?$DN?$DN1?5?$HM?$HM?5@ 101f0d5c     libcmtd:a_cmp.obj
 0003:00038dc4       ??_C@_08BMJILFKN@setenv?4c?$AA@ 101f0dc4     libcmtd:setenv.obj
 0003:00038dd0       ??_C@_05MAJJAKPI@FALSE?$AA@ 101f0dd0     libcmtd:setenv.obj
 0003:00038dd8       _SID_SVersionHost          101f0dd8     uuid:ieguids.obj
 0003:00038dec       _CGID_InternetExplorer     101f0dec     uuid:ieguids.obj
 0003:00038e00       _CGID_DownloadHost         101f0e00     uuid:ieguids.obj
 0003:00038e14       _CLSID_SubscriptionThrottler 101f0e14     uuid:ieguids.obj
 0003:00038e28       _CLSID_HTMLLoadOptions     101f0e28     uuid:ieguids.obj
 0003:00038e3c       _CLSID_InternetZoneManager 101f0e3c     uuid:ieguids.obj
 0003:00038e50       _CLSID_InternetSecurityManager 101f0e50     uuid:ieguids.obj
 0003:00038e64       _CLSID_IActiveXSafetyProvider 101f0e64     uuid:ieguids.obj
 0003:00038e78       _CLSID_SoftDistExt         101f0e78     uuid:ieguids.obj
 0003:00038e8c       _NAMEDTIMER_DRAW           101f0e8c     uuid:ieguids.obj
 0003:00038ea0       _IID_IIntDitherer          101f0ea0     uuid:ieguids.obj
 0003:00038eb4       _CLSID_IntDitherer         101f0eb4     uuid:ieguids.obj
 0003:00038ec8       _BFID_GRAY_16              101f0ec8     uuid:ieguids.obj
 0003:00038edc       _BFID_GRAY_8               101f0edc     uuid:ieguids.obj
 0003:00038ef0       _BFID_RGBA_32              101f0ef0     uuid:ieguids.obj
 0003:00038f04       _BFID_RGB_32               101f0f04     uuid:ieguids.obj
 0003:00038f18       _BFID_RGB_24               101f0f18     uuid:ieguids.obj
 0003:00038f2c       _BFID_RGB_565              101f0f2c     uuid:ieguids.obj
 0003:00038f40       _BFID_RGB_555              101f0f40     uuid:ieguids.obj
 0003:00038f54       _BFID_RGB_8                101f0f54     uuid:ieguids.obj
 0003:00038f68       _BFID_RGB_4                101f0f68     uuid:ieguids.obj
 0003:00038f7c       _BFID_MONOCHROME           101f0f7c     uuid:ieguids.obj
 0003:00038f90       _SID_SHTMLEditServices     101f0f90     uuid:ieguids.obj
 0003:00038fa4       _CGID_DocHostCommandHandler 101f0fa4     uuid:ieguids.obj
 0003:00038fb8       _CLSID_HTMLPluginDocument  101f0fb8     uuid:ieguids.obj
 0003:00038fcc       _CLSID_HTMLApplication     101f0fcc     uuid:ieguids.obj
 0003:00038fe0       _CLSID_HTADocument         101f0fe0     uuid:ieguids.obj
 0003:00038ff4       _CLSID_MHTMLDocument       101f0ff4     uuid:ieguids.obj
 0003:00039008       _CGID_MSHTML               101f1008     uuid:ieguids.obj
 0003:0003901c       _CLSID_IImageDecodeFilter  101f101c     uuid:ieguids.obj
 0003:00039030       _IID_IImgCtx               101f1030     uuid:ieguids.obj
 0003:00039044       _CLSID_IImgCtx             101f1044     uuid:ieguids.obj
 0003:00039058       _CATID_DesignTimeUIActivatableControl 101f1058     uuid:ieguids.obj
 0003:0003906c       _CATID_SafeForInitializing 101f106c     uuid:ieguids.obj
 0003:00039080       _CATID_SafeForScripting    101f1080     uuid:ieguids.obj
 0003:00039094       _CATID_InternetAware       101f1094     uuid:ieguids.obj
 0003:000390a8       _CATID_PersistsToPropertyBag 101f10a8     uuid:ieguids.obj
 0003:000390bc       _CATID_PersistsToFile      101f10bc     uuid:ieguids.obj
 0003:000390d0       _CATID_PersistsToMemory    101f10d0     uuid:ieguids.obj
 0003:000390e4       _CATID_PersistsToStream    101f10e4     uuid:ieguids.obj
 0003:000390f8       _CATID_PersistsToStreamInit 101f10f8     uuid:ieguids.obj
 0003:0003910c       _CATID_PersistsToStorage   101f110c     uuid:ieguids.obj
 0003:00039120       _CATID_PersistsToMoniker   101f1120     uuid:ieguids.obj
 0003:00039134       _CATID_RequiresDataPathHost 101f1134     uuid:ieguids.obj
 0003:00039148       _CATID_Printable           101f1148     uuid:ieguids.obj
 0003:0003915c       _CATID_DocObject           101f115c     uuid:ieguids.obj
 0003:00039170       _CATID_NeverShowExt        101f1170     uuid:ieguids.obj
 0003:00039184       _CATID_IsShortcut          101f1184     uuid:ieguids.obj
 0003:00039198       _CATID_Programmable        101f1198     uuid:ieguids.obj
 0003:000391ac       _CATID_Control             101f11ac     uuid:ieguids.obj
 0003:000391c0       _CATID_Insertable          101f11c0     uuid:ieguids.obj
 0003:000391d4       _CLSID_StdComponentCategoriesMgr 101f11d4     uuid:ieguids.obj
 0003:000391e8       _ARRAYID_PathProperties    101f11e8     uuid:ieguids.obj
 0003:000391fc       _FLAGID_Internet           101f11fc     uuid:ieguids.obj
 0003:00039210       _OLE_DATAPATH_PENDATA      101f1210     uuid:ieguids.obj
 0003:00039224       _OLE_DATAPATH_PALETTE      101f1224     uuid:ieguids.obj
 0003:00039238       _OLE_DATAPATH_BIFF         101f1238     uuid:ieguids.obj
 0003:0003924c       _OLE_DATAPATH_SYLK         101f124c     uuid:ieguids.obj
 0003:00039260       _OLE_DATAPATH_DIF          101f1260     uuid:ieguids.obj
 0003:00039274       _OLE_DATAPATH_ALLTEXT      101f1274     uuid:ieguids.obj
 0003:00039288       _OLE_DATAPATH_POSTSCRIPT   101f1288     uuid:ieguids.obj
 0003:0003929c       _OLE_DATAPATH_HTML         101f129c     uuid:ieguids.obj
 0003:000392b0       _OLE_DATAPATH_RTF          101f12b0     uuid:ieguids.obj
 0003:000392c4       _OLE_DATAPATH_UNICODE      101f12c4     uuid:ieguids.obj
 0003:000392d8       _OLE_DATAPATH_ANSITEXT     101f12d8     uuid:ieguids.obj
 0003:000392ec       _OLE_DATAPATH_ALLMM        101f12ec     uuid:ieguids.obj
 0003:00039300       _OLE_DATAPATH_VIDEO        101f1300     uuid:ieguids.obj
 0003:00039314       _OLE_DATAPATH_SOUND        101f1314     uuid:ieguids.obj
 0003:00039328       _OLE_DATAPATH_RIFF         101f1328     uuid:ieguids.obj
 0003:0003933c       _OLE_DATAPATH_WAV          101f133c     uuid:ieguids.obj
 0003:00039350       _OLE_DATAPATH_MIDI         101f1350     uuid:ieguids.obj
 0003:00039364       _OLE_DATAPATH_BASICAUDIO   101f1364     uuid:ieguids.obj
 0003:00039378       _OLE_DATAPATH_QUICKTIME    101f1378     uuid:ieguids.obj
 0003:0003938c       _OLE_DATAPATH_MPEG         101f138c     uuid:ieguids.obj
 0003:000393a0       _OLE_DATAPATH_AVI          101f13a0     uuid:ieguids.obj
 0003:000393b4       _OLE_DATAPATH_ALLIMAGE     101f13b4     uuid:ieguids.obj
 0003:000393c8       _OLE_DATAPATH_COMMONIMAGE  101f13c8     uuid:ieguids.obj
 0003:000393dc       _OLE_DATAPATH_EPS          101f13dc     uuid:ieguids.obj
 0003:000393f0       _OLE_DATAPATH_CGM          101f13f0     uuid:ieguids.obj
 0003:00039404       _OLE_DATAPATH_PICT         101f1404     uuid:ieguids.obj
 0003:00039418       _OLE_DATAPATH_PCX          101f1418     uuid:ieguids.obj
 0003:0003942c       _OLE_DATAPATH_XBM          101f142c     uuid:ieguids.obj
 0003:00039440       _OLE_DATAPATH_TIFF         101f1440     uuid:ieguids.obj
 0003:00039454       _OLE_DATAPATH_JPEG         101f1454     uuid:ieguids.obj
 0003:00039468       _OLE_DATAPATH_GIF          101f1468     uuid:ieguids.obj
 0003:0003947c       _OLE_DATAPATH_ENHMF        101f147c     uuid:ieguids.obj
 0003:00039490       _OLE_DATAPATH_WMF          101f1490     uuid:ieguids.obj
 0003:000394a4       _OLE_DATAPATH_DIB          101f14a4     uuid:ieguids.obj
 0003:000394b8       _OLE_DATAPATH_BMP          101f14b8     uuid:ieguids.obj
 0003:000394cc       _CLSID_StdHlinkBrowseContext 101f14cc     uuid:ieguids.obj
 0003:000394e0       _CLSID_StdHlink            101f14e0     uuid:ieguids.obj
 0003:000394f4       _GUID_HasPathProperties    101f14f4     uuid:ieguids.obj
 0003:00039508       _GUID_PathProperty         101f1508     uuid:ieguids.obj
 0003:0003951c       _SID_SDataPathBrowser      101f151c     uuid:ieguids.obj
 0003:00039530       _SID_SContainerDispatch    101f1530     uuid:ieguids.obj
 0003:00039544       _IID_IAccessible           101f1544     uuid:ieguids.obj
 0003:00039558       _LIBID_Accessibility       101f1558     uuid:ieguids.obj
 0003:0003956c       _CLSID_ClassInstallFilter  101f156c     uuid:ieguids.obj
 0003:00039580       _CLSID_CdlProtocol         101f1580     uuid:ieguids.obj
 0003:00039594       _CLSID_DeCompMimeFilter    101f1594     uuid:ieguids.obj
 0003:000395a8       _CLSID_StdEncodingFilterFac 101f15a8     uuid:ieguids.obj
 0003:000395bc       _CLSID_NotificaitonTest4   101f15bc     uuid:ieguids.obj
 0003:000395d0       _CLSID_NotificaitonTest3   101f15d0     uuid:ieguids.obj
 0003:000395e4       _CLSID_NotificaitonTest2   101f15e4     uuid:ieguids.obj
 0003:000395f8       _CLSID_NotificaitonTest1   101f15f8     uuid:ieguids.obj
 0003:0003960c       _NOTIFICATIONTYPE_START_F  101f160c     uuid:ieguids.obj
 0003:00039620       _NOTIFICATIONTYPE_START_E  101f1620     uuid:ieguids.obj
 0003:00039634       _NOTIFICATIONTYPE_START_D  101f1634     uuid:ieguids.obj
 0003:00039648       _NOTIFICATIONTYPE_START_C  101f1648     uuid:ieguids.obj
 0003:0003965c       _NOTIFICATIONTYPE_START_B  101f165c     uuid:ieguids.obj
 0003:00039670       _NOTIFICATIONTYPE_START_A  101f1670     uuid:ieguids.obj
 0003:00039684       _NOTIFICATIONTYPE_START_9  101f1684     uuid:ieguids.obj
 0003:00039698       _NOTIFICATIONTYPE_START_8  101f1698     uuid:ieguids.obj
 0003:000396ac       _NOTIFICATIONTYPE_START_7  101f16ac     uuid:ieguids.obj
 0003:000396c0       _NOTIFICATIONTYPE_START_6  101f16c0     uuid:ieguids.obj
 0003:000396d4       _NOTIFICATIONTYPE_START_5  101f16d4     uuid:ieguids.obj
 0003:000396e8       _NOTIFICATIONTYPE_START_4  101f16e8     uuid:ieguids.obj
 0003:000396fc       _NOTIFICATIONTYPE_START_3  101f16fc     uuid:ieguids.obj
 0003:00039710       _NOTIFICATIONTYPE_START_2  101f1710     uuid:ieguids.obj
 0003:00039724       _NOTIFICATIONTYPE_START_1  101f1724     uuid:ieguids.obj
 0003:00039738       _NOTIFICATIONTYPE_START_0  101f1738     uuid:ieguids.obj
 0003:0003974c       _NOTIFICATIONTYPE_15       101f174c     uuid:ieguids.obj
 0003:00039760       _NOTIFICATIONTYPE_14       101f1760     uuid:ieguids.obj
 0003:00039774       _NOTIFICATIONTYPE_13       101f1774     uuid:ieguids.obj
 0003:00039788       _NOTIFICATIONTYPE_12       101f1788     uuid:ieguids.obj
 0003:0003979c       _NOTIFICATIONTYPE_11       101f179c     uuid:ieguids.obj
 0003:000397b0       _NOTIFICATIONTYPE_f        101f17b0     uuid:ieguids.obj
 0003:000397c4       _NOTIFICATIONTYPE_e        101f17c4     uuid:ieguids.obj
 0003:000397d8       _NOTIFICATIONTYPE_d        101f17d8     uuid:ieguids.obj
 0003:000397ec       _NOTIFICATIONTYPE_TASKS_ERROR 101f17ec     uuid:ieguids.obj
 0003:00039800       _NOTIFICATIONTYPE_TASKS_STARTED 101f1800     uuid:ieguids.obj
 0003:00039814       _NOTIFICATIONTYPE_USER_IDLE_END 101f1814     uuid:ieguids.obj
 0003:00039828       _NOTIFICATIONTYPE_USER_IDLE_BEGIN 101f1828     uuid:ieguids.obj
 0003:0003983c       _NOTIFICATIONTYPE_PROGRESS_REPORT 101f183c     uuid:ieguids.obj
 0003:00039850       _NOTIFICATIONTYPE_CONFIG_CHANGED 101f1850     uuid:ieguids.obj
 0003:00039864       _NOTIFICATIONTYPE_DISCONNECT_FROM_INTERNET 101f1864     uuid:ieguids.obj
 0003:00039878       _NOTIFICATIONTYPE_CONNECT_TO_INTERNET 101f1878     uuid:ieguids.obj
 0003:0003988c       _NOTIFICATIONTYPE_AGENT_INIT 101f188c     uuid:ieguids.obj
 0003:000398a0       _NOTIFICATIONTYPE_END_REPORT 101f18a0     uuid:ieguids.obj
 0003:000398b4       _NOTIFICATIONTYPE_BEGIN_REPORT 101f18b4     uuid:ieguids.obj
 0003:000398c8       _NOTIFICATIONTYPE_AGENT_START 101f18c8     uuid:ieguids.obj
 0003:000398dc       _NOTIFICATIONTYPE_TASKS_PROGRESS 101f18dc     uuid:ieguids.obj
 0003:000398f0       _NOTIFICATIONTYPE_TASKS_COMPLETED 101f18f0     uuid:ieguids.obj
 0003:00039904       _NOTIFICATIONTYPE_TASKS_ABORT 101f1904     uuid:ieguids.obj
 0003:00039918       _NOTIFICATIONTYPE_TASKS_RESUME 101f1918     uuid:ieguids.obj
 0003:0003992c       _NOTIFICATIONTYPE_TASKS_SUSPEND 101f192c     uuid:ieguids.obj
 0003:00039940       _NOTIFICATIONTYPE_INET_ONLINE 101f1940     uuid:ieguids.obj
 0003:00039954       _NOTIFICATIONTYPE_INET_OFFLINE 101f1954     uuid:ieguids.obj
 0003:00039968       _NOTIFICATIONTYPE_INET_IDLE 101f1968     uuid:ieguids.obj
 0003:0003997c       _NOTIFICATIONTYPE_ALERT    101f197c     uuid:ieguids.obj
 0003:00039990       _NOTIFICATIONTYPE_TASK     101f1990     uuid:ieguids.obj
 0003:000399a4       _NOTIFICATIONTYPE_ANOUNCMENT 101f19a4     uuid:ieguids.obj
 0003:000399b8       _NOTIFICATIONTYPE_NULL     101f19b8     uuid:ieguids.obj
 0003:000399cc       _NOTFCOOKIE_SCHEDULE_GROUP_MANUAL 101f19cc     uuid:ieguids.obj
 0003:000399e0       _NOTFCOOKIE_SCHEDULE_GROUP_MONTHLY 101f19e0     uuid:ieguids.obj
 0003:000399f4       _NOTFCOOKIE_SCHEDULE_GROUP_WEEKLY 101f19f4     uuid:ieguids.obj
 0003:00039a08       _NOTFCOOKIE_SCHEDULE_GROUP_DAILY 101f1a08     uuid:ieguids.obj
 0003:00039a1c       _NOTIFICATIONTYPE_iF       101f1a1c     uuid:ieguids.obj
 0003:00039a30       _NOTIFICATIONTYPE_iE       101f1a30     uuid:ieguids.obj
 0003:00039a44       _NOTIFICATIONTYPE_iD       101f1a44     uuid:ieguids.obj
 0003:00039a58       _NOTIFICATIONTYPE_iC       101f1a58     uuid:ieguids.obj
 0003:00039a6c       _NOTIFICATIONTYPE_iB       101f1a6c     uuid:ieguids.obj
 0003:00039a80       _NOTIFICATIONTYPE_iA       101f1a80     uuid:ieguids.obj
 0003:00039a94       _NOTIFICATIONTYPE_i9       101f1a94     uuid:ieguids.obj
 0003:00039aa8       _NOTIFICATIONTYPE_i8       101f1aa8     uuid:ieguids.obj
 0003:00039abc       _NOTIFICATIONTYPE_i7       101f1abc     uuid:ieguids.obj
 0003:00039ad0       _NOTIFICATIONTYPE_i6       101f1ad0     uuid:ieguids.obj
 0003:00039ae4       _NOTIFICATIONTYPE_GROUP_DONE 101f1ae4     uuid:ieguids.obj
 0003:00039af8       _NOTIFICATIONTYPE_GROUP_RESTART 101f1af8     uuid:ieguids.obj
 0003:00039b0c       _NOTIFICATIONTYPE_GROUP_START 101f1b0c     uuid:ieguids.obj
 0003:00039b20       _NOTIFICATIONTYPE_ITEM_DONE 101f1b20     uuid:ieguids.obj
 0003:00039b34       _NOTIFICATIONTYPE_ITEM_RESTART 101f1b34     uuid:ieguids.obj
 0003:00039b48       _NOTIFICATIONTYPE_ITEM_START 101f1b48     uuid:ieguids.obj
 0003:00039b5c       _CLSID_d                   101f1b5c     uuid:ieguids.obj
 0003:00039b70       _CLSID_c                   101f1b70     uuid:ieguids.obj
 0003:00039b84       _CLSID_b                   101f1b84     uuid:ieguids.obj
 0003:00039b98       _CLSID_a                   101f1b98     uuid:ieguids.obj
 0003:00039bac       _CLSID_9                   101f1bac     uuid:ieguids.obj
 0003:00039bc0       _CLSID_8                   101f1bc0     uuid:ieguids.obj
 0003:00039bd4       _CLSID_7                   101f1bd4     uuid:ieguids.obj
 0003:00039be8       _CLSID_6                   101f1be8     uuid:ieguids.obj
 0003:00039bfc       _CLSID_5                   101f1bfc     uuid:ieguids.obj
 0003:00039c10       _CLSID_4                   101f1c10     uuid:ieguids.obj
 0003:00039c24       _CLSID_3                   101f1c24     uuid:ieguids.obj
 0003:00039c38       _CLSID_2                   101f1c38     uuid:ieguids.obj
 0003:00039c4c       _CLSID_1                   101f1c4c     uuid:ieguids.obj
 0003:00039c60       _CLSID_THREAD_BROADCAST    101f1c60     uuid:ieguids.obj
 0003:00039c74       _CLSID_PROCESS_BROADCAST   101f1c74     uuid:ieguids.obj
 0003:00039c88       _CLSID_GLOBAL_BROADCAST    101f1c88     uuid:ieguids.obj
 0003:00039c9c       _IID_IOInetProtocolInfo    101f1c9c     uuid:ieguids.obj
 0003:00039cb0       _IID_IOInetPriority        101f1cb0     uuid:ieguids.obj
 0003:00039cc4       _IID_IOInetCache           101f1cc4     uuid:ieguids.obj
 0003:00039cd8       _IID_IOInetThreadSwitch    101f1cd8     uuid:ieguids.obj
 0003:00039cec       _IID_IOInetSession         101f1cec     uuid:ieguids.obj
 0003:00039d00       _IID_IOInetProtocolSink    101f1d00     uuid:ieguids.obj
 0003:00039d14       _IID_IOInetProtocol        101f1d14     uuid:ieguids.obj
 0003:00039d28       _IID_IOInetProtocolRoot    101f1d28     uuid:ieguids.obj
 0003:00039d3c       _IID_IOInetBindClient      101f1d3c     uuid:ieguids.obj
 0003:00039d50       _IID_IOInetBindInfo        101f1d50     uuid:ieguids.obj
 0003:00039d64       _IID_IOInet                101f1d64     uuid:ieguids.obj
 0003:00039d78       _IID_INotificationProcessMgr0 101f1d78     uuid:ieguids.obj
 0003:00039d8c       _IID_INotificationRunning  101f1d8c     uuid:ieguids.obj
 0003:00039da0       _IID_INotificationPing     101f1da0     uuid:ieguids.obj
 0003:00039db4       _IID_INotificationHelper   101f1db4     uuid:ieguids.obj
 0003:00039dc8       _IID_IEnumNotificationSinkItem 101f1dc8     uuid:ieguids.obj
 0003:00039ddc       _IID_IEnumScheduleGroup    101f1ddc     uuid:ieguids.obj
 0003:00039df0       _IID_IEnumNotification     101f1df0     uuid:ieguids.obj
 0003:00039e04       _IID_INotificationReport   101f1e04     uuid:ieguids.obj
 0003:00039e18       _IID_IScheduleGroup        101f1e18     uuid:ieguids.obj
 0003:00039e2c       _IID_INotificationSink     101f1e2c     uuid:ieguids.obj
 0003:00039e40       _IID_INotificationMgr      101f1e40     uuid:ieguids.obj
 0003:00039e54       _IID_INotification         101f1e54     uuid:ieguids.obj
 0003:00039e68       _IID_IPropertyMap          101f1e68     uuid:ieguids.obj
 0003:00039e7c       _IID_IEnumPropertyMap      101f1e7c     uuid:ieguids.obj
 0003:00039e90       _CLSID_WebCheckDefaultProcess 101f1e90     uuid:ieguids.obj
 0003:00039ea4       _CLSID_StdNotificationMgr  101f1ea4     uuid:ieguids.obj
 0003:00039eb8       _IID_IDebugOut             101f1eb8     uuid:ieguids.obj
 0003:00039ecc       _IID_IDebugRegister        101f1ecc     uuid:ieguids.obj
 0003:00039ee0       _IID_IBindStatusCallbackMsg 101f1ee0     uuid:ieguids.obj
 0003:00039ef4       _IID_IAsyncBindCtx         101f1ef4     uuid:ieguids.obj
 0003:00039f08       _IID_IBindStatusCallbackHolder 101f1f08     uuid:ieguids.obj
 0003:00039f1c       _IID_IAsyncMoniker         101f1f1c     uuid:ieguids.obj
 0003:00039f30       _CLSID_AboutProtocol       101f1f30     uuid:ieguids.obj
 0003:00039f44       _CLSID_ResProtocol         101f1f44     uuid:ieguids.obj
 0003:00039f58       _CLSID_UrlMkBindCtx        101f1f58     uuid:ieguids.obj
 0003:00039f6c       _CLSID_PSUrlMonProxy       101f1f6c     uuid:ieguids.obj
 0003:00039f80       _CLSID_FileProtocol        101f1f80     uuid:ieguids.obj
 0003:00039f94       _CLSID_MkProtocol          101f1f94     uuid:ieguids.obj
 0003:00039fa8       _CLSID_HttpSProtocol       101f1fa8     uuid:ieguids.obj
 0003:00039fbc       _CLSID_GopherProtocol      101f1fbc     uuid:ieguids.obj
 0003:00039fd0       _CLSID_FtpProtocol         101f1fd0     uuid:ieguids.obj
 0003:00039fe4       _CLSID_HttpProtocol        101f1fe4     uuid:ieguids.obj
 0003:00039ff8       _CLSID_StdURLProtocol      101f1ff8     uuid:ieguids.obj
 0003:0003a00c       _CLSID_StdURLMoniker       101f200c     uuid:ieguids.obj
 0003:0003a020       _IID_IPropertyBag          101f2020     uuid:oaidl_i.obj
 0003:0003a034       _IID_IErrorLog             101f2034     uuid:oaidl_i.obj
 0003:0003a048       _IID_IRecordInfo           101f2048     uuid:oaidl_i.obj
 0003:0003a05c       _IID_ITypeMarshal          101f205c     uuid:oaidl_i.obj
 0003:0003a070       _IID_ITypeFactory          101f2070     uuid:oaidl_i.obj
 0003:0003a084       _IID_ISupportErrorInfo     101f2084     uuid:oaidl_i.obj
 0003:0003a098       _IID_ICreateErrorInfo      101f2098     uuid:oaidl_i.obj
 0003:0003a0ac       _IID_IErrorInfo            101f20ac     uuid:oaidl_i.obj
 0003:0003a0c0       _IID_ITypeChangeEvents     101f20c0     uuid:oaidl_i.obj
 0003:0003a0d4       _IID_ITypeLib2             101f20d4     uuid:oaidl_i.obj
 0003:0003a0e8       _IID_ITypeLib              101f20e8     uuid:oaidl_i.obj
 0003:0003a0fc       _IID_ITypeInfo2            101f20fc     uuid:oaidl_i.obj
 0003:0003a110       _IID_ITypeInfo             101f2110     uuid:oaidl_i.obj
 0003:0003a124       _IID_ITypeComp             101f2124     uuid:oaidl_i.obj
 0003:0003a138       _IID_IEnumVARIANT          101f2138     uuid:oaidl_i.obj
 0003:0003a14c       _IID_IDispatch             101f214c     uuid:oaidl_i.obj
 0003:0003a160       _IID_ICreateTypeLib2       101f2160     uuid:oaidl_i.obj
 0003:0003a174       _IID_ICreateTypeLib        101f2174     uuid:oaidl_i.obj
 0003:0003a188       _IID_ICreateTypeInfo2      101f2188     uuid:oaidl_i.obj
 0003:0003a19c       _IID_ICreateTypeInfo       101f219c     uuid:oaidl_i.obj
 0003:0003a1b0       _GUID_DEVINTERFACE_SERENUM_BUS_ENUMERATOR 101f21b0     uuid:cguid_i.obj
 0003:0003a1c4       _GUID_DEVINTERFACE_COMPORT 101f21c4     uuid:cguid_i.obj
 0003:0003a1d8       _GUID_DEVINTERFACE_STORAGEPORT 101f21d8     uuid:cguid_i.obj
 0003:0003a1ec       _GUID_DEVINTERFACE_CDCHANGER 101f21ec     uuid:cguid_i.obj
 0003:0003a200       _GUID_DEVINTERFACE_FLOPPY  101f2200     uuid:cguid_i.obj
 0003:0003a214       _GUID_DEVINTERFACE_MEDIUMCHANGER 101f2214     uuid:cguid_i.obj
 0003:0003a228       _GUID_DEVINTERFACE_VOLUME  101f2228     uuid:cguid_i.obj
 0003:0003a23c       _GUID_DEVINTERFACE_WRITEONCEDISK 101f223c     uuid:cguid_i.obj
 0003:0003a250       _GUID_DEVINTERFACE_TAPE    101f2250     uuid:cguid_i.obj
 0003:0003a264       _GUID_DEVINTERFACE_PARTITION 101f2264     uuid:cguid_i.obj
 0003:0003a278       _GUID_DEVINTERFACE_CDROM   101f2278     uuid:cguid_i.obj
 0003:0003a28c       _GUID_DEVINTERFACE_DISK    101f228c     uuid:cguid_i.obj
 0003:0003a2a0       _GUID_DEVCLASS_FSFILTER_INFRASTRUCTURE 101f22a0     uuid:cguid_i.obj
 0003:0003a2b4       _GUID_DEVCLASS_FSFILTER_SYSTEM 101f22b4     uuid:cguid_i.obj
 0003:0003a2c8       _GUID_DEVCLASS_FSFILTER_COPYPROTECTION 101f22c8     uuid:cguid_i.obj
 0003:0003a2dc       _GUID_DEVCLASS_FSFILTER_SECURITYENHANCER 101f22dc     uuid:cguid_i.obj
 0003:0003a2f0       _GUID_DEVCLASS_FSFILTER_OPENFILEBACKUP 101f22f0     uuid:cguid_i.obj
 0003:0003a304       _GUID_DEVCLASS_FSFILTER_PHYSICALQUOTAMANAGEMENT 101f2304     uuid:cguid_i.obj
 0003:0003a318       _GUID_DEVCLASS_FSFILTER_ENCRYPTION 101f2318     uuid:cguid_i.obj
 0003:0003a32c       _GUID_DEVCLASS_FSFILTER_COMPRESSION 101f232c     uuid:cguid_i.obj
 0003:0003a340       _GUID_DEVCLASS_FSFILTER_HSM 101f2340     uuid:cguid_i.obj
 0003:0003a354       _GUID_DEVCLASS_FSFILTER_CFSMETADATASERVER 101f2354     uuid:cguid_i.obj
 0003:0003a368       _GUID_DEVCLASS_FSFILTER_SYSTEMRECOVERY 101f2368     uuid:cguid_i.obj
 0003:0003a37c       _GUID_DEVCLASS_FSFILTER_QUOTAMANAGEMENT 101f237c     uuid:cguid_i.obj
 0003:0003a390       _GUID_DEVCLASS_FSFILTER_CONTENTSCREENER 101f2390     uuid:cguid_i.obj
 0003:0003a3a4       _GUID_DEVCLASS_FSFILTER_CONTINUOUSBACKUP 101f23a4     uuid:cguid_i.obj
 0003:0003a3b8       _GUID_DEVCLASS_FSFILTER_REPLICATION 101f23b8     uuid:cguid_i.obj
 0003:0003a3cc       _GUID_DEVCLASS_FSFILTER_ANTIVIRUS 101f23cc     uuid:cguid_i.obj
 0003:0003a3e0       _GUID_DEVCLASS_FSFILTER_UNDELETE 101f23e0     uuid:cguid_i.obj
 0003:0003a3f4       _GUID_DEVCLASS_FSFILTER_ACTIVITYMONITOR 101f23f4     uuid:cguid_i.obj
 0003:0003a408       _GUID_DEVCLASS_BTRANS      101f2408     uuid:cguid_i.obj
 0003:0003a41c       _GUID_DEVCLASS_WCEUSBS     101f241c     uuid:cguid_i.obj
 0003:0003a430       _GUID_DEVCLASS_VOLUMESNAPSHOT 101f2430     uuid:cguid_i.obj
 0003:0003a444       _GUID_DEVCLASS_VOLUME      101f2444     uuid:cguid_i.obj
 0003:0003a458       _GUID_DEVCLASS_USB         101f2458     uuid:cguid_i.obj
 0003:0003a46c       _GUID_DEVCLASS_UNKNOWN     101f246c     uuid:cguid_i.obj
 0003:0003a480       _GUID_DEVCLASS_TAPEDRIVE   101f2480     uuid:cguid_i.obj
 0003:0003a494       _GUID_DEVCLASS_SYSTEM      101f2494     uuid:cguid_i.obj
 0003:0003a4a8       _GUID_DEVCLASS_SOUND       101f24a8     uuid:cguid_i.obj
 0003:0003a4bc       _GUID_DEVCLASS_SMARTCARDREADER 101f24bc     uuid:cguid_i.obj
 0003:0003a4d0       _GUID_DEVCLASS_SECURITYACCELERATOR 101f24d0     uuid:cguid_i.obj
 0003:0003a4e4       _GUID_DEVCLASS_SCSIADAPTER 101f24e4     uuid:cguid_i.obj
 0003:0003a4f8       _GUID_DEVCLASS_SBP2        101f24f8     uuid:cguid_i.obj
 0003:0003a50c       _GUID_DEVCLASS_PROCESSOR   101f250c     uuid:cguid_i.obj
 0003:0003a520       _GUID_DEVCLASS_PRINTERUPGRADE 101f2520     uuid:cguid_i.obj
 0003:0003a534       _GUID_DEVCLASS_PRINTER     101f2534     uuid:cguid_i.obj
 0003:0003a548       _GUID_DEVCLASS_PORTS       101f2548     uuid:cguid_i.obj
 0003:0003a55c       _GUID_DEVCLASS_PNPPRINTERS 101f255c     uuid:cguid_i.obj
 0003:0003a570       _GUID_DEVCLASS_PCMCIA      101f2570     uuid:cguid_i.obj
 0003:0003a584       _GUID_DEVCLASS_NODRIVER    101f2584     uuid:cguid_i.obj
 0003:0003a598       _GUID_DEVCLASS_NETTRANS    101f2598     uuid:cguid_i.obj
 0003:0003a5ac       _GUID_DEVCLASS_NETSERVICE  101f25ac     uuid:cguid_i.obj
 0003:0003a5c0       _GUID_DEVCLASS_NETCLIENT   101f25c0     uuid:cguid_i.obj
 0003:0003a5d4       _GUID_DEVCLASS_NET         101f25d4     uuid:cguid_i.obj
 0003:0003a5e8       _GUID_DEVCLASS_MULTIPORTSERIAL 101f25e8     uuid:cguid_i.obj
 0003:0003a5fc       _GUID_DEVCLASS_MULTIFUNCTION 101f25fc     uuid:cguid_i.obj
 0003:0003a610       _GUID_DEVCLASS_MTD         101f2610     uuid:cguid_i.obj
 0003:0003a624       _GUID_DEVCLASS_MOUSE       101f2624     uuid:cguid_i.obj
 0003:0003a638       _GUID_DEVCLASS_MONITOR     101f2638     uuid:cguid_i.obj
 0003:0003a64c       _GUID_DEVCLASS_MODEM       101f264c     uuid:cguid_i.obj
 0003:0003a660       _GUID_DEVCLASS_MEDIUM_CHANGER 101f2660     uuid:cguid_i.obj
 0003:0003a674       _GUID_DEVCLASS_MEDIA       101f2674     uuid:cguid_i.obj
 0003:0003a688       _GUID_DEVCLASS_LEGACYDRIVER 101f2688     uuid:cguid_i.obj
 0003:0003a69c       _GUID_DEVCLASS_KEYBOARD    101f269c     uuid:cguid_i.obj
 0003:0003a6b0       _GUID_DEVCLASS_INFRARED    101f26b0     uuid:cguid_i.obj
 0003:0003a6c4       _GUID_DEVCLASS_INFINIBAND  101f26c4     uuid:cguid_i.obj
 0003:0003a6d8       _GUID_DEVCLASS_IMAGE       101f26d8     uuid:cguid_i.obj
 0003:0003a6ec       _GUID_DEVCLASS_HIDCLASS    101f26ec     uuid:cguid_i.obj
 0003:0003a700       _GUID_DEVCLASS_HDC         101f2700     uuid:cguid_i.obj
 0003:0003a714       _GUID_DEVCLASS_GPS         101f2714     uuid:cguid_i.obj
 0003:0003a728       _GUID_DEVCLASS_FLOPPYDISK  101f2728     uuid:cguid_i.obj
 0003:0003a73c       _GUID_DEVCLASS_FDC         101f273c     uuid:cguid_i.obj
 0003:0003a750       _GUID_DEVCLASS_ENUM1394    101f2750     uuid:cguid_i.obj
 0003:0003a764       _GUID_DEVCLASS_DOT4PRINT   101f2764     uuid:cguid_i.obj
 0003:0003a778       _GUID_DEVCLASS_DOT4        101f2778     uuid:cguid_i.obj
 0003:0003a78c       _GUID_DEVCLASS_DISPLAY     101f278c     uuid:cguid_i.obj
 0003:0003a7a0       _GUID_DEVCLASS_DISKDRIVE   101f27a0     uuid:cguid_i.obj
 0003:0003a7b4       _GUID_DEVCLASS_DECODER     101f27b4     uuid:cguid_i.obj
 0003:0003a7c8       _GUID_DEVCLASS_COMPUTER    101f27c8     uuid:cguid_i.obj
 0003:0003a7dc       _GUID_DEVCLASS_CDROM       101f27dc     uuid:cguid_i.obj
 0003:0003a7f0       _GUID_DEVCLASS_BLUETOOTH   101f27f0     uuid:cguid_i.obj
 0003:0003a804       _GUID_DEVCLASS_BATTERY     101f2804     uuid:cguid_i.obj
 0003:0003a818       _GUID_DEVCLASS_AVC         101f2818     uuid:cguid_i.obj
 0003:0003a82c       _GUID_DEVCLASS_APMSUPPORT  101f282c     uuid:cguid_i.obj
 0003:0003a840       _GUID_DEVCLASS_ADAPTER     101f2840     uuid:cguid_i.obj
 0003:0003a854       _GUID_DEVCLASS_61883       101f2854     uuid:cguid_i.obj
 0003:0003a868       _GUID_DEVCLASS_1394DEBUG   101f2868     uuid:cguid_i.obj
 0003:0003a87c       _GUID_DEVCLASS_1394        101f287c     uuid:cguid_i.obj
 0003:0003a890       _CLSID_ThumbnailUpdater    101f2890     uuid:cguid_i.obj
 0003:0003a8a4       _CLSID_ThumbnailFCNHandler 101f28a4     uuid:cguid_i.obj
 0003:0003a8b8       _CLSID_GblComponentCategoriesMgr 101f28b8     uuid:cguid_i.obj
 0003:0003a8cc       _IID_IBoundObjectSite      101f28cc     uuid:cguid_i.obj
 0003:0003a8e0       _IID_IBoundObject          101f28e0     uuid:cguid_i.obj
 0003:0003a8f4       __DBCIDGUID                101f28f4     uuid:cguid_i.obj
 0003:0003a908       __DBBMKGUID                101f2908     uuid:cguid_i.obj
 0003:0003a91c       __GUID_NAMEONLY            101f291c     uuid:cguid_i.obj
 0003:0003a930       _IID_IEntryID              101f2930     uuid:cguid_i.obj
 0003:0003a944       _IID_ICursorFind           101f2944     uuid:cguid_i.obj
 0003:0003a958       _IID_INotifyDBEvents       101f2958     uuid:cguid_i.obj
 0003:0003a96c       _IID_ICursorUpdateARow     101f296c     uuid:cguid_i.obj
 0003:0003a980       _IID_ICursorScroll         101f2980     uuid:cguid_i.obj
 0003:0003a994       _IID_ICursorMove           101f2994     uuid:cguid_i.obj
 0003:0003a9a8       _IID_ICursor               101f29a8     uuid:cguid_i.obj
 0003:0003a9bc       _IID_StdOle                101f29bc     uuid:cguid_i.obj
 0003:0003a9d0       _GUID_HANDLE               101f29d0     uuid:cguid_i.obj
 0003:0003a9e4       _GUID_FONTSTRIKETHROUGH    101f29e4     uuid:cguid_i.obj
 0003:0003a9f8       _GUID_FONTUNDERSCORE       101f29f8     uuid:cguid_i.obj
 0003:0003aa0c       _GUID_FONTITALIC           101f2a0c     uuid:cguid_i.obj
 0003:0003aa20       _GUID_FONTBOLD             101f2a20     uuid:cguid_i.obj
 0003:0003aa34       _GUID_FONTSIZE             101f2a34     uuid:cguid_i.obj
 0003:0003aa48       _GUID_FONTNAME             101f2a48     uuid:cguid_i.obj
 0003:0003aa5c       _GUID_CHECKVALUEEXCLUSIVE  101f2a5c     uuid:cguid_i.obj
 0003:0003aa70       _GUID_OPTIONVALUEEXCLUSIVE 101f2a70     uuid:cguid_i.obj
 0003:0003aa84       _GUID_TRISTATE             101f2a84     uuid:cguid_i.obj
 0003:0003aa98       _GUID_YSIZE                101f2a98     uuid:cguid_i.obj
 0003:0003aaac       _GUID_XSIZE                101f2aac     uuid:cguid_i.obj
 0003:0003aac0       _GUID_YPOS                 101f2ac0     uuid:cguid_i.obj
 0003:0003aad4       _GUID_XPOS                 101f2ad4     uuid:cguid_i.obj
 0003:0003aae8       _GUID_YSIZEPIXEL           101f2ae8     uuid:cguid_i.obj
 0003:0003aafc       _GUID_XSIZEPIXEL           101f2afc     uuid:cguid_i.obj
 0003:0003ab10       _GUID_YPOSPIXEL            101f2b10     uuid:cguid_i.obj
 0003:0003ab24       _GUID_XPOSPIXEL            101f2b24     uuid:cguid_i.obj
 0003:0003ab38       _GUID_COLOR                101f2b38     uuid:cguid_i.obj
 0003:0003ab4c       _GUID_HIMETRIC             101f2b4c     uuid:cguid_i.obj
 0003:0003ab60       _CLSID_StdPicture          101f2b60     uuid:cguid_i.obj
 0003:0003ab74       _CLSID_StdFont             101f2b74     uuid:cguid_i.obj
 0003:0003ab88       _CLSID_ConvertVBX          101f2b88     uuid:cguid_i.obj
 0003:0003ab9c       _CLSID_PersistPropset      101f2b9c     uuid:cguid_i.obj
 0003:0003abb0       _CLSID_StockPicturePage    101f2bb0     uuid:cguid_i.obj
 0003:0003abc4       _CLSID_StockColorPage      101f2bc4     uuid:cguid_i.obj
 0003:0003abd8       _CLSID_StockFontPage       101f2bd8     uuid:cguid_i.obj
 0003:0003abec       _CLSID_CPicturePropPage    101f2bec     uuid:cguid_i.obj
 0003:0003ac00       _CLSID_CColorPropPage      101f2c00     uuid:cguid_i.obj
 0003:0003ac14       _CLSID_CFontPropPage       101f2c14     uuid:cguid_i.obj
 0003:0003ac28       _IID_IPropertyFrame        101f2c28     uuid:cguid_i.obj
 0003:0003ac3c       _CLSID_AddrControl         101f2c3c     uuid:cguid_i.obj
 0003:0003ac50       _CLSID_CurrentUserClasses  101f2c50     uuid:cguid_i.obj
 0003:0003ac64       _CLSID_LocalMachineClasses 101f2c64     uuid:cguid_i.obj
 0003:0003ac78       _CLSID_AllClasses          101f2c78     uuid:cguid_i.obj
 0003:0003ac8c       _IID_IRichEditOleCallback  101f2c8c     uuid:cguid_i.obj
 0003:0003aca0       _IID_IRichEditOle          101f2ca0     uuid:cguid_i.obj
 0003:0003acb4       _CLSID_RemoteUnknownPSFactory 101f2cb4     uuid:cguid_i.obj
 0003:0003acc8       _CLSID_InProcFreeMarshaler 101f2cc8     uuid:cguid_i.obj
 0003:0003acdc       _CLSID_StdAsyncActManager  101f2cdc     uuid:cguid_i.obj
 0003:0003acf0       _CLSID_ComBinding          101f2cf0     uuid:cguid_i.obj
 0003:0003ad04       _CLSID_SynchronizeContainer 101f2d04     uuid:cguid_i.obj
 0003:0003ad18       _CLSID_StdEvent            101f2d18     uuid:cguid_i.obj
 0003:0003ad2c       _CLSID_ManualResetEvent    101f2d2c     uuid:cguid_i.obj
 0003:0003ad40       _CLSID_DCOMAccessControl   101f2d40     uuid:cguid_i.obj
 0003:0003ad54       _CLSID_Picture_Dib         101f2d54     uuid:cguid_i.obj
 0003:0003ad68       _CLSID_Picture_EnhMetafile 101f2d68     uuid:cguid_i.obj
 0003:0003ad7c       _CLSID_Picture_Metafile    101f2d7c     uuid:cguid_i.obj
 0003:0003ad90       _CLSID_StaticDib           101f2d90     uuid:cguid_i.obj
 0003:0003ada4       _CLSID_StaticMetafile      101f2da4     uuid:cguid_i.obj
 0003:0003adb8       _CLSID_PSEnumerators       101f2db8     uuid:cguid_i.obj
 0003:0003adcc       _CLSID_PSBindCtx           101f2dcc     uuid:cguid_i.obj
 0003:0003ade0       _CLSID_PSDragDrop          101f2de0     uuid:cguid_i.obj
 0003:0003adf4       _CLSID_PSInPlaceFrame      101f2df4     uuid:cguid_i.obj
 0003:0003ae08       _CLSID_PSInPlaceActive     101f2e08     uuid:cguid_i.obj
 0003:0003ae1c       _CLSID_PSClassObject       101f2e1c     uuid:cguid_i.obj
 0003:0003ae30       _CLSID_PSClientSite        101f2e30     uuid:cguid_i.obj
 0003:0003ae44       _CLSID_PSGenObject         101f2e44     uuid:cguid_i.obj
 0003:0003ae58       _IID_IDebugStream          101f2e58     uuid:cguid_i.obj
 0003:0003ae6c       _IID_IDebug                101f2e6c     uuid:cguid_i.obj
 0003:0003ae80       _IID_IOlePresObj           101f2e80     uuid:cguid_i.obj
 0003:0003ae94       _IID_IOleManager           101f2e94     uuid:cguid_i.obj
 0003:0003aea8       _IID_IEnumCallback         101f2ea8     uuid:cguid_i.obj
 0003:0003aebc       _IID_IEnumHolder           101f2ebc     uuid:cguid_i.obj
 0003:0003aed0       _IID_IEnumGeneric          101f2ed0     uuid:cguid_i.obj
 0003:0003aee4       _IID_IProxy                101f2ee4     uuid:cguid_i.obj
 0003:0003aef8       _IID_IStub                 101f2ef8     uuid:cguid_i.obj
 0003:0003af0c       _CLSID_StdMarshal          101f2f0c     uuid:cguid_i.obj
 0003:0003af20       _IID_IDfReserved3          101f2f20     uuid:cguid_i.obj
 0003:0003af34       _IID_IDfReserved2          101f2f34     uuid:cguid_i.obj
 0003:0003af48       _IID_IDfReserved1          101f2f48     uuid:cguid_i.obj
 0003:0003af5c       _IID_IInternalMoniker      101f2f5c     uuid:cguid_i.obj
 0003:0003af70       _IID_IPSFactory            101f2f70     uuid:cguid_i.obj
 0003:0003af84       _IID_IProxyManager         101f2f84     uuid:cguid_i.obj
 0003:0003af98       _IID_IRpcProxy             101f2f98     uuid:cguid_i.obj
 0003:0003afac       _IID_IStubManager          101f2fac     uuid:cguid_i.obj
 0003:0003afc0       _IID_IRpcStub              101f2fc0     uuid:cguid_i.obj
 0003:0003afd4       _IID_IRpcChannel           101f2fd4     uuid:cguid_i.obj
 0003:0003afe8       _CATID_MARSHALER           101f2fe8     uuid:cguid_i.obj
 0003:0003affc       _GUID_NULL                 101f2ffc     uuid:cguid_i.obj
 0003:0003b010       _IID_IEnumOLEVERB          101f3010     uuid:oleidl_i.obj
 0003:0003b024       _IID_IDropTarget           101f3024     uuid:oleidl_i.obj
 0003:0003b038       _IID_IDropSource           101f3038     uuid:oleidl_i.obj
 0003:0003b04c       _IID_IViewObject2          101f304c     uuid:oleidl_i.obj
 0003:0003b060       _IID_IViewObject           101f3060     uuid:oleidl_i.obj
 0003:0003b074       _IID_IContinue             101f3074     uuid:oleidl_i.obj
 0003:0003b088       _IID_IOleInPlaceSite       101f3088     uuid:oleidl_i.obj
 0003:0003b09c       _IID_IOleInPlaceObject     101f309c     uuid:oleidl_i.obj
 0003:0003b0b0       _IID_IOleInPlaceFrame      101f30b0     uuid:oleidl_i.obj
 0003:0003b0c4       _IID_IOleInPlaceActiveObject 101f30c4     uuid:oleidl_i.obj
 0003:0003b0d8       _IID_IOleInPlaceUIWindow   101f30d8     uuid:oleidl_i.obj
 0003:0003b0ec       _IID_IOleItemContainer     101f30ec     uuid:oleidl_i.obj
 0003:0003b100       _IID_IOleLink              101f3100     uuid:oleidl_i.obj
 0003:0003b114       _IID_IOleWindow            101f3114     uuid:oleidl_i.obj
 0003:0003b128       _IID_IOleObject            101f3128     uuid:oleidl_i.obj
 0003:0003b13c       _IID_IOleClientSite        101f313c     uuid:oleidl_i.obj
 0003:0003b150       _IID_IOleContainer         101f3150     uuid:oleidl_i.obj
 0003:0003b164       _IID_IParseDisplayName     101f3164     uuid:oleidl_i.obj
 0003:0003b178       _IID_IOleCacheControl      101f3178     uuid:oleidl_i.obj
 0003:0003b18c       _IID_IOleCache2            101f318c     uuid:oleidl_i.obj
 0003:0003b1a0       _IID_IOleCache             101f31a0     uuid:oleidl_i.obj
 0003:0003b1b4       _IID_IOleAdviseHolder      101f31b4     uuid:oleidl_i.obj
 0003:0003b1c8       _IID_IQuickActivate        101f31c8     uuid:ocidl_i.obj
 0003:0003b1dc       _IID_IAdviseSinkEx         101f31dc     uuid:ocidl_i.obj
 0003:0003b1f0       _IID_IPersistPropertyBag2  101f31f0     uuid:ocidl_i.obj
 0003:0003b204       _IID_IPropertyBag2         101f3204     uuid:ocidl_i.obj
 0003:0003b218       _IID_IPerPropertyBrowsing  101f3218     uuid:ocidl_i.obj
 0003:0003b22c       _IID_IObjectWithSite       101f322c     uuid:ocidl_i.obj
 0003:0003b240       _IID_IPointerInactive      101f3240     uuid:ocidl_i.obj
 0003:0003b254       _IID_IOleUndoManager       101f3254     uuid:ocidl_i.obj
 0003:0003b268       _IID_IEnumOleUndoUnits     101f3268     uuid:ocidl_i.obj
 0003:0003b27c       _IID_IOleParentUndoUnit    101f327c     uuid:ocidl_i.obj
 0003:0003b290       _IID_IOleUndoUnit          101f3290     uuid:ocidl_i.obj
 0003:0003b2a4       _IID_IViewObjectEx         101f32a4     uuid:ocidl_i.obj
 0003:0003b2b8       _IID_IOleInPlaceSiteWindowless 101f32b8     uuid:ocidl_i.obj
 0003:0003b2cc       _IID_IOleInPlaceSiteEx     101f32cc     uuid:ocidl_i.obj
 0003:0003b2e0       _IID_IOleInPlaceObjectWindowless 101f32e0     uuid:ocidl_i.obj
 0003:0003b2f4       _IID_IPictureDisp          101f32f4     uuid:ocidl_i.obj
 0003:0003b308       _IID_IFontDisp             101f3308     uuid:ocidl_i.obj
 0003:0003b31c       _IID_IFontEventsDisp       101f331c     uuid:ocidl_i.obj
 0003:0003b330       _IID_IPicture              101f3330     uuid:ocidl_i.obj
 0003:0003b344       _IID_IFont                 101f3344     uuid:ocidl_i.obj
 0003:0003b358       _IID_ISimpleFrameSite      101f3358     uuid:ocidl_i.obj
 0003:0003b36c       _IID_IPersistPropertyBag   101f336c     uuid:ocidl_i.obj
 0003:0003b380       _IID_IPersistStreamInit    101f3380     uuid:ocidl_i.obj
 0003:0003b394       _IID_IPersistMemory        101f3394     uuid:ocidl_i.obj
 0003:0003b3a8       _IID_ISpecifyPropertyPages 101f33a8     uuid:ocidl_i.obj
 0003:0003b3bc       _IID_IPropertyNotifySink   101f33bc     uuid:ocidl_i.obj
 0003:0003b3d0       _IID_IPropertyPageSite     101f33d0     uuid:ocidl_i.obj
 0003:0003b3e4       _IID_IPropertyPage2        101f33e4     uuid:ocidl_i.obj
 0003:0003b3f8       _IID_IPropertyPage         101f33f8     uuid:ocidl_i.obj
 0003:0003b40c       _IID_IOleControlSite       101f340c     uuid:ocidl_i.obj
 0003:0003b420       _IID_IOleControl           101f3420     uuid:ocidl_i.obj
 0003:0003b434       _IID_IProvideMultipleClassInfo 101f3434     uuid:ocidl_i.obj
 0003:0003b448       _IID_IProvideClassInfo2    101f3448     uuid:ocidl_i.obj
 0003:0003b45c       _IID_IProvideClassInfo     101f345c     uuid:ocidl_i.obj
 0003:0003b470       _IID_IClassFactory2        101f3470     uuid:ocidl_i.obj
 0003:0003b484       _IID_IConnectionPointContainer 101f3484     uuid:ocidl_i.obj
 0003:0003b498       _IID_IEnumConnectionPoints 101f3498     uuid:ocidl_i.obj
 0003:0003b4ac       _IID_IConnectionPoint      101f34ac     uuid:ocidl_i.obj
 0003:0003b4c0       _IID_IEnumConnections      101f34c0     uuid:ocidl_i.obj
 0003:0003b4d4       _IID_IClassFactory         101f34d4     uuid:unknwn_i.obj
 0003:0003b4e8       _IID_AsyncIUnknown         101f34e8     uuid:unknwn_i.obj
 0003:0003b4fc       _IID_IUnknown              101f34fc     uuid:unknwn_i.obj
 0003:0003b510       _IID_IInitializeSpy        101f3510     uuid:objidl_i.obj
 0003:0003b524       _IID_IProcessInitControl   101f3524     uuid:objidl_i.obj
 0003:0003b538       _IID_IComThreadingInfo     101f3538     uuid:objidl_i.obj
 0003:0003b54c       _IID_ISurrogateService     101f354c     uuid:objidl_i.obj
 0003:0003b560       _IID_IProcessLock          101f3560     uuid:objidl_i.obj
 0003:0003b574       _IID_IObjContext           101f3574     uuid:objidl_i.obj
 0003:0003b588       _IID_IContext              101f3588     uuid:objidl_i.obj
 0003:0003b59c       _IID_IEnumContextProps     101f359c     uuid:objidl_i.obj
 0003:0003b5b0       _IID_IDummyHICONIncluder   101f35b0     uuid:objidl_i.obj
 0003:0003b5c4       _IID_IThumbnailExtractor   101f35c4     uuid:objidl_i.obj
 0003:0003b5d8       _IID_AsyncIPipeDouble      101f35d8     uuid:objidl_i.obj
 0003:0003b5ec       _IID_IPipeDouble           101f35ec     uuid:objidl_i.obj
 0003:0003b600       _IID_AsyncIPipeLong        101f3600     uuid:objidl_i.obj
 0003:0003b614       _IID_IPipeLong             101f3614     uuid:objidl_i.obj
 0003:0003b628       _IID_AsyncIPipeByte        101f3628     uuid:objidl_i.obj
 0003:0003b63c       _IID_IPipeByte             101f363c     uuid:objidl_i.obj
 0003:0003b650       _IID_IAddrExclusionControl 101f3650     uuid:objidl_i.obj
 0003:0003b664       _IID_IAddrTrackingControl  101f3664     uuid:objidl_i.obj
 0003:0003b678       _IID_IForegroundTransfer   101f3678     uuid:objidl_i.obj
 0003:0003b68c       _IID_IUrlMon               101f368c     uuid:objidl_i.obj
 0003:0003b6a0       _IID_IWaitMultiple         101f36a0     uuid:objidl_i.obj
 0003:0003b6b4       _IID_IReleaseMarshalBuffers 101f36b4     uuid:objidl_i.obj
 0003:0003b6c8       _IID_IRpcHelper            101f36c8     uuid:objidl_i.obj
 0003:0003b6dc       _IID_ICallFactory          101f36dc     uuid:objidl_i.obj
 0003:0003b6f0       _IID_IAsyncManager         101f36f0     uuid:objidl_i.obj
 0003:0003b704       _IID_ICancelMethodCalls    101f3704     uuid:objidl_i.obj
 0003:0003b718       _IID_ISynchronizeMutex     101f3718     uuid:objidl_i.obj
 0003:0003b72c       _IID_ISynchronizeContainer 101f372c     uuid:objidl_i.obj
 0003:0003b740       _IID_ISynchronizeEvent     101f3740     uuid:objidl_i.obj
 0003:0003b754       _IID_ISynchronizeHandle    101f3754     uuid:objidl_i.obj
 0003:0003b768       _IID_ISynchronize          101f3768     uuid:objidl_i.obj
 0003:0003b77c       _IID_IDirectWriterLock     101f377c     uuid:objidl_i.obj
 0003:0003b790       _IID_IGlobalInterfaceTable 101f3790     uuid:objidl_i.obj
 0003:0003b7a4       _IID_ISurrogate            101f37a4     uuid:objidl_i.obj
 0003:0003b7b8       _IID_IOplockStorage        101f37b8     uuid:objidl_i.obj
 0003:0003b7cc       _IID_ITimeAndNoticeControl 101f37cc     uuid:objidl_i.obj
 0003:0003b7e0       _IID_IBlockingLock         101f37e0     uuid:objidl_i.obj
 0003:0003b7f4       _IID_ILayoutStorage        101f37f4     uuid:objidl_i.obj
 0003:0003b808       _IID_IProgressNotify       101f3808     uuid:objidl_i.obj
 0003:0003b81c       _IID_IFillLockBytes        101f381c     uuid:objidl_i.obj
 0003:0003b830       _IID_IRpcOptions           101f3830     uuid:objidl_i.obj
 0003:0003b844       _IID_IClassActivator       101f3844     uuid:objidl_i.obj
 0003:0003b858       _IID_IServerSecurity       101f3858     uuid:objidl_i.obj
 0003:0003b86c       _IID_IClientSecurity       101f386c     uuid:objidl_i.obj
 0003:0003b880       _IID_IChannelHook          101f3880     uuid:objidl_i.obj
 0003:0003b894       _IID_IPSFactoryBuffer      101f3894     uuid:objidl_i.obj
 0003:0003b8a8       _IID_IRpcStubBuffer        101f38a8     uuid:objidl_i.obj
 0003:0003b8bc       _IID_IRpcProxyBuffer       101f38bc     uuid:objidl_i.obj
 0003:0003b8d0       _IID_IRpcSyntaxNegotiate   101f38d0     uuid:objidl_i.obj
 0003:0003b8e4       _IID_IRpcChannelBuffer3    101f38e4     uuid:objidl_i.obj
 0003:0003b8f8       _IID_IAsyncRpcChannelBuffer 101f38f8     uuid:objidl_i.obj
 0003:0003b90c       _IID_IRpcChannelBuffer2    101f390c     uuid:objidl_i.obj
 0003:0003b920       _IID_IRpcChannelBuffer     101f3920     uuid:objidl_i.obj
 0003:0003b934       _IID_IMessageFilter        101f3934     uuid:objidl_i.obj
 0003:0003b948       _IID_IDataAdviseHolder     101f3948     uuid:objidl_i.obj
 0003:0003b95c       _IID_IDataObject           101f395c     uuid:objidl_i.obj
 0003:0003b970       _IID_AsyncIAdviseSink2     101f3970     uuid:objidl_i.obj
 0003:0003b984       _IID_IAdviseSink2          101f3984     uuid:objidl_i.obj
 0003:0003b998       _IID_AsyncIAdviseSink      101f3998     uuid:objidl_i.obj
 0003:0003b9ac       _IID_IAdviseSink           101f39ac     uuid:objidl_i.obj
 0003:0003b9c0       _IID_IRootStorage          101f39c0     uuid:objidl_i.obj
 0003:0003b9d4       _IID_IEnumSTATDATA         101f39d4     uuid:objidl_i.obj
 0003:0003b9e8       _IID_IEnumFORMATETC        101f39e8     uuid:objidl_i.obj
 0003:0003b9fc       _IID_ILockBytes            101f39fc     uuid:objidl_i.obj
 0003:0003ba10       _IID_IPersistStorage       101f3a10     uuid:objidl_i.obj
 0003:0003ba24       _IID_IPersistFile          101f3a24     uuid:objidl_i.obj
 0003:0003ba38       _IID_IStorage              101f3a38     uuid:objidl_i.obj
 0003:0003ba4c       _IID_IEnumSTATSTG          101f3a4c     uuid:objidl_i.obj
 0003:0003ba60       _IID_IStream               101f3a60     uuid:objidl_i.obj
 0003:0003ba74       _IID_ISequentialStream     101f3a74     uuid:objidl_i.obj
 0003:0003ba88       _IID_IEnumString           101f3a88     uuid:objidl_i.obj
 0003:0003ba9c       _IID_IROTData              101f3a9c     uuid:objidl_i.obj
 0003:0003bab0       _IID_IMoniker              101f3ab0     uuid:objidl_i.obj
 0003:0003bac4       _IID_IPersistStream        101f3ac4     uuid:objidl_i.obj
 0003:0003bad8       _IID_IPersist              101f3ad8     uuid:objidl_i.obj
 0003:0003baec       _IID_IRunningObjectTable   101f3aec     uuid:objidl_i.obj
 0003:0003bb00       _IID_IRunnableObject       101f3b00     uuid:objidl_i.obj
 0003:0003bb14       _IID_IEnumMoniker          101f3b14     uuid:objidl_i.obj
 0003:0003bb28       _IID_IBindCtx              101f3b28     uuid:objidl_i.obj
 0003:0003bb3c       _IID_IEnumUnknown          101f3b3c     uuid:objidl_i.obj
 0003:0003bb50       _IID_IInternalUnknown      101f3b50     uuid:objidl_i.obj
 0003:0003bb64       _IID_AsyncIMultiQI         101f3b64     uuid:objidl_i.obj
 0003:0003bb78       _IID_IMultiQI              101f3b78     uuid:objidl_i.obj
 0003:0003bb8c       _IID_IExternalConnection   101f3b8c     uuid:objidl_i.obj
 0003:0003bba0       _IID_IStdMarshalInfo       101f3ba0     uuid:objidl_i.obj
 0003:0003bbb4       _IID_IMallocSpy            101f3bb4     uuid:objidl_i.obj
 0003:0003bbc8       _IID_IMalloc               101f3bc8     uuid:objidl_i.obj
 0003:0003bbdc       _IID_IMarshal2             101f3bdc     uuid:objidl_i.obj
 0003:0003bbf0       _IID_IMarshal              101f3bf0     uuid:objidl_i.obj
 0003:0003d7b0       __GUID_b196b284_bab4_101a_b69c_00aa00341d07 101f57b0     atlsd:atlfuncs.obj
 0003:0003d7c4       __GUID_00000000_0000_0000_c000_000000000046 101f57c4     atlsd:atlfuncs.obj
 0003:0003d7e8       ??_C@_05LAPONLG@false?$AA@ 101f57e8     atlsd:atlfuncs.obj
 0003:0003d7f0       ??_C@_09HIEJFN@m_bLocked?$AA@ 101f57f0     atlsd:atlfuncs.obj
 0003:0003d7fc       ??_C@_0L@MPGHMANA@?$CBm_bLocked?$AA@ 101f57fc     atlsd:atlfuncs.obj
 0003:0003d810       _GUID_ATLVer30             101f5810     atlsd:atlbase.obj
 0003:0003d820       _GUID_ATLVer70             101f5820     atlsd:atlbase.obj
 0003:0003eb18       ?OLE_DATETIME_HALFSECOND@COleDateTimeSpan@ATL@@0NB 101f6b18     atlsd:ATLComTime.obj
 0003:0003eb28       __real@4038000000000000    101f6b28     atlsd:ATLComTime.obj
 0003:0003eb38       __real@4096800000000000    101f6b38     atlsd:ATLComTime.obj
 0003:0003eb48       __real@40f5180000000000    101f6b48     atlsd:ATLComTime.obj
 0003:0003eb58       __real@414b964c80000000    101f6b58     atlsd:ATLComTime.obj
 0003:0003eb68       __real@c14b964c80000000    101f6b68     atlsd:ATLComTime.obj
 0003:0003f498       ??_C@_0EO@IADKLHOA@f?3?2vs70builds?23077?2vc?2mfcatl?2shi@ 101f7498     atlsd:Allocate.obj
 0003:0003f4f8       ??_C@_0N@HGPIKDNG@nCookie?5?$CB?$DN?50?$AA@ 101f74f8     atlsd:Allocate.obj
 0003:0003f7b0       __sz_OLEACC                101f77b0     oleacc:OLEACC.dll
 0003:0003f7c0       ??_C@_0DA@CJJBNHIF@f?3?2vs70builds?23077?2vc?2crtbld?2crt@ 101f77c0     libcmtd:vsnwprnt.obj
 0003:0003f7fc       ??_C@_0DA@NPPFFJLC@f?3?2vs70builds?23077?2vc?2crtbld?2crt@ 101f77fc     libcmtd:snwprint.obj
 0003:0003f97c       ??_C@_04EHEDPDJG@modf?$AA@ 101f797c     libcmtd:libm_error.obj
 0003:0003f984       ??_C@_05PBJFFIGL@floor?$AA@ 101f7984     libcmtd:libm_error.obj
 0003:0003f98c       ??_C@_04GFPJNGEK@ceil?$AA@ 101f798c     libcmtd:libm_error.obj
 0003:0003f994       ??_C@_04MLLJIGOK@atan?$AA@ 101f7994     libcmtd:libm_error.obj
 0003:0003f99c       ??_C@_05EOHGHCHD@exp10?$AA@ 101f799c     libcmtd:libm_error.obj
 0003:0003f9a4       ??_C@_04HPAFEEIN@exp2?$AA@ 101f79a4     libcmtd:libm_error.obj
 0003:0003f9ac       ??_C@_04KGLCPMCP@log2?$AA@ 101f79ac     libcmtd:libm_error.obj
 0003:0003f9b4       ??_C@_03JGHBODFD@pow?$AA@  101f79b4     libcmtd:libm_error.obj
 0003:0003f9b8       ??_C@_03KHJOGHMM@exp?$AA@  101f79b8     libcmtd:libm_error.obj
 0003:0003f9bc       ??_C@_05HGHHAHAP@log10?$AA@ 101f79bc     libcmtd:libm_error.obj
 0003:0003f9c4       ??_C@_03MGHMBJCF@log?$AA@  101f79c4     libcmtd:libm_error.obj
 0003:0003f9c8       ??_C@_0N@FFJGBINN@AuthenticAMD?$AA@ 101f79c8     libcmtd:cpu_disp.obj
 0003:0003f9e8       ??_C@_0L@KDOEJCKC@_nextafter?$AA@ 101f79e8     libcmtd:fpexcept.obj
 0003:0003f9f8       ??_C@_05JGDBENOH@_logb?$AA@ 101f79f8     libcmtd:fpexcept.obj
 0003:0003fa00       ??_C@_03ONILCKOB@_yn?$AA@  101f7a00     libcmtd:fpexcept.obj
 0003:0003fa04       ??_C@_03NAKIGLHK@_y1?$AA@  101f7a04     libcmtd:fpexcept.obj
 0003:0003fa08       ??_C@_03MJLDFKDL@_y0?$AA@  101f7a08     libcmtd:fpexcept.obj
 0003:0003fa0c       ??_C@_05GKKHEGJL@frexp?$AA@ 101f7a0c     libcmtd:fpexcept.obj
 0003:0003fa14       ??_C@_04KEPJIHGP@fmod?$AA@ 101f7a14     libcmtd:fpexcept.obj
 0003:0003fa1c       ??_C@_06MEIMCGCF@_hypot?$AA@ 101f7a1c     libcmtd:fpexcept.obj
 0003:0003fa24       ??_C@_05KBKMEMPO@_cabs?$AA@ 101f7a24     libcmtd:fpexcept.obj
 0003:0003fa2c       ??_C@_05CEJMAHNP@ldexp?$AA@ 101f7a2c     libcmtd:fpexcept.obj
 0003:0003fa34       ??_C@_04ODHECPBC@fabs?$AA@ 101f7a34     libcmtd:fpexcept.obj
 0003:0003fa3c       ??_C@_03IIINPABG@tan?$AA@  101f7a3c     libcmtd:fpexcept.obj
 0003:0003fa40       ??_C@_03LALBNOCG@cos?$AA@  101f7a40     libcmtd:fpexcept.obj
 0003:0003fa44       ??_C@_03BLEJJJBH@sin?$AA@  101f7a44     libcmtd:fpexcept.obj
 0003:0003fa48       ??_C@_04EIAKFFMI@sqrt?$AA@ 101f7a48     libcmtd:fpexcept.obj
 0003:0003fa50       ??_C@_05KNGEOGJB@atan2?$AA@ 101f7a50     libcmtd:fpexcept.obj
 0003:0003fa58       ??_C@_04PDIFKINK@acos?$AA@ 101f7a58     libcmtd:fpexcept.obj
 0003:0003fa60       ??_C@_04FIHNOPOL@asin?$AA@ 101f7a60     libcmtd:fpexcept.obj
 0003:0003fa68       ??_C@_04FJHINJAO@tanh?$AA@ 101f7a68     libcmtd:fpexcept.obj
 0003:0003fa70       ??_C@_04HPJJNFIM@cosh?$AA@ 101f7a70     libcmtd:fpexcept.obj
 0003:0003fa78       ??_C@_04COOMCNPB@sinh?$AA@ 101f7a78     libcmtd:fpexcept.obj
 0003:00040298       ??_R1A@?0A@A@CObject@@8    101f8298     nafxcwd:wincore.obj
 0003:000402b4       ??_R1A@?0A@A@CCmdTarget@@8 101f82b4     nafxcwd:wincore.obj
 0003:000402d0       ??_R1A@?0A@A@CWnd@@8       101f82d0     nafxcwd:wincore.obj
 0003:000402ec       ??_R2CWnd@@8               101f82ec     nafxcwd:wincore.obj
 0003:000402fc       ??_R3CWnd@@8               101f82fc     nafxcwd:wincore.obj
 0003:00040310       ??_R4CWnd@@6B@             101f8310     nafxcwd:wincore.obj
 0003:00040328       ??_R1A@?0A@A@XAccessible@CWnd@@8 101f8328     nafxcwd:wincore.obj
 0003:00040344       ??_R2XAccessible@CWnd@@8   101f8344     nafxcwd:wincore.obj
 0003:0004034c       ??_R3XAccessible@CWnd@@8   101f834c     nafxcwd:wincore.obj
 0003:00040360       ??_R4XAccessible@CWnd@@6B@ 101f8360     nafxcwd:wincore.obj
 0003:00040378       ??_R1A@?0A@A@XAccessibleServer@CWnd@@8 101f8378     nafxcwd:wincore.obj
 0003:00040394       ??_R2XAccessibleServer@CWnd@@8 101f8394     nafxcwd:wincore.obj
 0003:0004039c       ??_R3XAccessibleServer@CWnd@@8 101f839c     nafxcwd:wincore.obj
 0003:000403b0       ??_R4XAccessibleServer@CWnd@@6B@ 101f83b0     nafxcwd:wincore.obj
 0003:000403c8       ??_R1A@?0A@A@CNoTrackObject@@8 101f83c8     nafxcwd:wincore.obj
 0003:000403e4       ??_R1A@?0A@A@_AFX_HTMLHELP_STATE@@8 101f83e4     nafxcwd:wincore.obj
 0003:00040400       ??_R2_AFX_HTMLHELP_STATE@@8 101f8400     nafxcwd:wincore.obj
 0003:0004040c       ??_R3_AFX_HTMLHELP_STATE@@8 101f840c     nafxcwd:wincore.obj
 0003:00040420       ??_R4_AFX_HTMLHELP_STATE@@6B@ 101f8420     nafxcwd:wincore.obj
 0003:00040438       ??_R2CNoTrackObject@@8     101f8438     nafxcwd:wincore.obj
 0003:00040440       ??_R3CNoTrackObject@@8     101f8440     nafxcwd:wincore.obj
 0003:00040454       ??_R4CNoTrackObject@@6B@   101f8454     nafxcwd:wincore.obj
 0003:0004046c       ??_R1A@?0A@A@CCmdUI@@8     101f846c     nafxcwd:wincore.obj
 0003:00040488       ??_R1A@?0A@A@CTestCmdUI@@8 101f8488     nafxcwd:wincore.obj
 0003:000404a4       ??_R2CTestCmdUI@@8         101f84a4     nafxcwd:wincore.obj
 0003:000404b0       ??_R3CTestCmdUI@@8         101f84b0     nafxcwd:wincore.obj
 0003:000404c4       ??_R4CTestCmdUI@@6B@       101f84c4     nafxcwd:wincore.obj
 0003:000404dc       ??_R4?$CMFCComObject@VCAccessibleProxy@ATL@@@@6B@ 101f84dc     nafxcwd:wincore.obj
 0003:000404f4       ??_R4?$CMFCComObject@VCAccessibleProxy@ATL@@@@6BIAccessibleProxy@@@ 101f84f4     nafxcwd:wincore.obj
 0003:0004050c       ??_R1BA@?0A@1IUnknown@@8   101f850c     nafxcwd:wincore.obj
 0003:00040528       ??_R1BA@?0A@A@IOleWindow@@8 101f8528     nafxcwd:wincore.obj
 0003:00040544       ??_R13?0A@1IUnknown@@8     101f8544     nafxcwd:wincore.obj
 0003:00040560       ??_R13?0A@A@IAccessibleProxy@@8 101f8560     nafxcwd:wincore.obj
 0003:0004057c       ??_R1A@?0A@1IUnknown@@8    101f857c     nafxcwd:wincore.obj
 0003:00040598       ??_R1A@?0A@A@IDispatch@@8  101f8598     nafxcwd:wincore.obj
 0003:000405b4       ??_R1A@?0A@A@IAccessible@@8 101f85b4     nafxcwd:wincore.obj
 0003:000405d0       ??_R1A@?0A@A@?$IAccessibleProxyImpl@VCAccessibleProxy@ATL@@@ATL@@8 101f85d0     nafxcwd:wincore.obj
 0003:000405ec       ??_R1BE@?0A@A@CComObjectRootBase@ATL@@8 101f85ec     nafxcwd:wincore.obj
 0003:00040608       ??_R1BE@?0A@A@?$CComObjectRootEx@VCComSingleThreadModel@ATL@@@ATL@@8 101f8608     nafxcwd:wincore.obj
 0003:00040624       ??_R1A@?0A@A@CAccessibleProxy@ATL@@8 101f8624     nafxcwd:wincore.obj
 0003:00040640       ??_R1A@?0A@A@?$CMFCComObject@VCAccessibleProxy@ATL@@@@8 101f8640     nafxcwd:wincore.obj
 0003:0004065c       ??_R2?$CMFCComObject@VCAccessibleProxy@ATL@@@@8 101f865c     nafxcwd:wincore.obj
 0003:00040698       ??_R3?$CMFCComObject@VCAccessibleProxy@ATL@@@@8 101f8698     nafxcwd:wincore.obj
 0003:000406ac       ??_R4?$CMFCComObject@VCAccessibleProxy@ATL@@@@6BIAccessible@@@ 101f86ac     nafxcwd:wincore.obj
 0003:000406c4       ??_R4?$IAccessibleProxyImpl@VCAccessibleProxy@ATL@@@ATL@@6BIAccessibleProxy@@@ 101f86c4     nafxcwd:wincore.obj
 0003:000406dc       ??_R2?$IAccessibleProxyImpl@VCAccessibleProxy@ATL@@@ATL@@8 101f86dc     nafxcwd:wincore.obj
 0003:000406fc       ??_R3?$IAccessibleProxyImpl@VCAccessibleProxy@ATL@@@ATL@@8 101f86fc     nafxcwd:wincore.obj
 0003:00040710       ??_R4?$IAccessibleProxyImpl@VCAccessibleProxy@ATL@@@ATL@@6BIAccessible@@@ 101f8710     nafxcwd:wincore.obj
 0003:00040728       ??_R1A@?0A@A@CStatic@@8    101f8728     nafxcwd:winctrl1.obj
 0003:00040744       ??_R2CStatic@@8            101f8744     nafxcwd:winctrl1.obj
 0003:00040758       ??_R3CStatic@@8            101f8758     nafxcwd:winctrl1.obj
 0003:0004076c       ??_R4CStatic@@6B@          101f876c     nafxcwd:winctrl1.obj
 0003:00040784       ??_R1A@?0A@A@CButton@@8    101f8784     nafxcwd:winctrl1.obj
 0003:000407a0       ??_R2CButton@@8            101f87a0     nafxcwd:winctrl1.obj
 0003:000407b4       ??_R3CButton@@8            101f87b4     nafxcwd:winctrl1.obj
 0003:000407c8       ??_R4CButton@@6B@          101f87c8     nafxcwd:winctrl1.obj
 0003:000407e0       ??_R1A@?0A@A@CListBox@@8   101f87e0     nafxcwd:winctrl1.obj
 0003:000407fc       ??_R2CListBox@@8           101f87fc     nafxcwd:winctrl1.obj
 0003:00040810       ??_R3CListBox@@8           101f8810     nafxcwd:winctrl1.obj
 0003:00040824       ??_R4CListBox@@6B@         101f8824     nafxcwd:winctrl1.obj
 0003:0004083c       ??_R1A@?0A@A@CComboBox@@8  101f883c     nafxcwd:winctrl1.obj
 0003:00040858       ??_R2CComboBox@@8          101f8858     nafxcwd:winctrl1.obj
 0003:0004086c       ??_R3CComboBox@@8          101f886c     nafxcwd:winctrl1.obj
 0003:00040880       ??_R4CComboBox@@6B@        101f8880     nafxcwd:winctrl1.obj
 0003:00040898       ??_R1A@?0A@A@CEdit@@8      101f8898     nafxcwd:winctrl1.obj
 0003:000408b4       ??_R2CEdit@@8              101f88b4     nafxcwd:winctrl1.obj
 0003:000408c8       ??_R3CEdit@@8              101f88c8     nafxcwd:winctrl1.obj
 0003:000408dc       ??_R4CEdit@@6B@            101f88dc     nafxcwd:winctrl1.obj
 0003:000408f4       ??_R1A@?0A@A@CScrollBar@@8 101f88f4     nafxcwd:winctrl1.obj
 0003:00040910       ??_R2CScrollBar@@8         101f8910     nafxcwd:winctrl1.obj
 0003:00040924       ??_R3CScrollBar@@8         101f8924     nafxcwd:winctrl1.obj
 0003:00040938       ??_R4CScrollBar@@6B@       101f8938     nafxcwd:winctrl1.obj
 0003:00040950       ??_R1A@?0A@A@CCheckListBox@@8 101f8950     nafxcwd:afxinl3.obj
 0003:0004096c       ??_R2CCheckListBox@@8      101f896c     nafxcwd:afxinl3.obj
 0003:00040988       ??_R3CCheckListBox@@8      101f8988     nafxcwd:afxinl3.obj
 0003:0004099c       ??_R4CCheckListBox@@6B@    101f899c     nafxcwd:afxinl3.obj
 0003:000409b4       ??_R2CCmdTarget@@8         101f89b4     nafxcwd:cmdtarg.obj
 0003:000409c0       ??_R3CCmdTarget@@8         101f89c0     nafxcwd:cmdtarg.obj
 0003:000409d4       ??_R4CCmdTarget@@6B@       101f89d4     nafxcwd:cmdtarg.obj
 0003:000409ec       ??_R2CCmdUI@@8             101f89ec     nafxcwd:cmdtarg.obj
 0003:000409f4       ??_R3CCmdUI@@8             101f89f4     nafxcwd:cmdtarg.obj
 0003:00040a08       ??_R4CCmdUI@@6B@           101f8a08     nafxcwd:cmdtarg.obj
 0003:00040a20       ??_R2CObject@@8            101f8a20     nafxcwd:afxinl1.obj
 0003:00040a28       ??_R3CObject@@8            101f8a28     nafxcwd:afxinl1.obj
 0003:00040a3c       ??_R4CObject@@6B@          101f8a3c     nafxcwd:afxinl1.obj
 0003:00040a54       ??_R1A@?0A@A@CException@@8 101f8a54     nafxcwd:afxinl1.obj
 0003:00040a70       ??_R2CException@@8         101f8a70     nafxcwd:afxinl1.obj
 0003:00040a7c       ??_R3CException@@8         101f8a7c     nafxcwd:afxinl1.obj
 0003:00040a90       ??_R4CException@@6B@       101f8a90     nafxcwd:afxinl1.obj
 0003:00040aa8       ??_R1A@?0A@A@CSimpleException@@8 101f8aa8     nafxcwd:afxinl1.obj
 0003:00040ac4       ??_R2CSimpleException@@8   101f8ac4     nafxcwd:afxinl1.obj
 0003:00040ad4       ??_R3CSimpleException@@8   101f8ad4     nafxcwd:afxinl1.obj
 0003:00040ae8       ??_R4CSimpleException@@6B@ 101f8ae8     nafxcwd:afxinl1.obj
 0003:00040b00       ??_R1A@?0A@A@CMemoryException@@8 101f8b00     nafxcwd:afxinl1.obj
 0003:00040b1c       ??_R2CMemoryException@@8   101f8b1c     nafxcwd:afxinl1.obj
 0003:00040b30       ??_R3CMemoryException@@8   101f8b30     nafxcwd:afxinl1.obj
 0003:00040b44       ??_R4CMemoryException@@6B@ 101f8b44     nafxcwd:afxinl1.obj
 0003:00040b5c       ??_R1A@?0A@A@CNotSupportedException@@8 101f8b5c     nafxcwd:afxinl1.obj
 0003:00040b78       ??_R2CNotSupportedException@@8 101f8b78     nafxcwd:afxinl1.obj
 0003:00040b8c       ??_R3CNotSupportedException@@8 101f8b8c     nafxcwd:afxinl1.obj
 0003:00040ba0       ??_R4CNotSupportedException@@6B@ 101f8ba0     nafxcwd:afxinl1.obj
 0003:00040bb8       ??_R1A@?0A@A@CInvalidArgException@@8 101f8bb8     nafxcwd:afxinl1.obj
 0003:00040bd4       ??_R2CInvalidArgException@@8 101f8bd4     nafxcwd:afxinl1.obj
 0003:00040be8       ??_R3CInvalidArgException@@8 101f8be8     nafxcwd:afxinl1.obj
 0003:00040bfc       ??_R4CInvalidArgException@@6B@ 101f8bfc     nafxcwd:afxinl1.obj
 0003:00040c14       ??_R1A@?0A@A@CArchiveException@@8 101f8c14     nafxcwd:afxinl1.obj
 0003:00040c30       ??_R2CArchiveException@@8  101f8c30     nafxcwd:afxinl1.obj
 0003:00040c40       ??_R3CArchiveException@@8  101f8c40     nafxcwd:afxinl1.obj
 0003:00040c54       ??_R4CArchiveException@@6B@ 101f8c54     nafxcwd:afxinl1.obj
 0003:00040c6c       ??_R1A@?0A@A@CFileException@@8 101f8c6c     nafxcwd:afxinl1.obj
 0003:00040c88       ??_R2CFileException@@8     101f8c88     nafxcwd:afxinl1.obj
 0003:00040c98       ??_R3CFileException@@8     101f8c98     nafxcwd:afxinl1.obj
 0003:00040cac       ??_R4CFileException@@6B@   101f8cac     nafxcwd:afxinl1.obj
 0003:00040cc4       ??_R1A@?0A@A@CDialog@@8    101f8cc4     nafxcwd:afxinl1.obj
 0003:00040ce0       ??_R1A@?0A@A@CCommonDialog@@8 101f8ce0     nafxcwd:afxinl1.obj
 0003:00040cfc       ??_R2CCommonDialog@@8      101f8cfc     nafxcwd:afxinl1.obj
 0003:00040d18       ??_R3CCommonDialog@@8      101f8d18     nafxcwd:afxinl1.obj
 0003:00040d2c       ??_R4CCommonDialog@@6B@    101f8d2c     nafxcwd:afxinl1.obj
 0003:00040d44       ??_R1A@?0A@A@CRectTracker@@8 101f8d44     nafxcwd:afxinl1.obj
 0003:00040d60       ??_R2CRectTracker@@8       101f8d60     nafxcwd:afxinl1.obj
 0003:00040d68       ??_R3CRectTracker@@8       101f8d68     nafxcwd:afxinl1.obj
 0003:00040d7c       ??_R4CRectTracker@@6B@     101f8d7c     nafxcwd:afxinl1.obj
 0003:00040d94       ??_R1A@?0A@A@CBitmapButton@@8 101f8d94     nafxcwd:afxinl1.obj
 0003:00040db0       ??_R2CBitmapButton@@8      101f8db0     nafxcwd:afxinl1.obj
 0003:00040dcc       ??_R3CBitmapButton@@8      101f8dcc     nafxcwd:afxinl1.obj
 0003:00040de0       ??_R4CBitmapButton@@6B@    101f8de0     nafxcwd:afxinl1.obj
 0003:00040df8       ??_R1A@?0A@A@CResourceException@@8 101f8df8     nafxcwd:afxinl2.obj
 0003:00040e14       ??_R2CResourceException@@8 101f8e14     nafxcwd:afxinl2.obj
 0003:00040e28       ??_R3CResourceException@@8 101f8e28     nafxcwd:afxinl2.obj
 0003:00040e3c       ??_R4CResourceException@@6B@ 101f8e3c     nafxcwd:afxinl2.obj
 0003:00040e54       ??_R1A@?0A@A@CUserException@@8 101f8e54     nafxcwd:afxinl2.obj
 0003:00040e70       ??_R2CUserException@@8     101f8e70     nafxcwd:afxinl2.obj
 0003:00040e84       ??_R3CUserException@@8     101f8e84     nafxcwd:afxinl2.obj
 0003:00040e98       ??_R4CUserException@@6B@   101f8e98     nafxcwd:afxinl2.obj
 0003:00040eb0       ??_R1A@?0A@A@CGdiObject@@8 101f8eb0     nafxcwd:afxinl2.obj
 0003:00040ecc       ??_R2CGdiObject@@8         101f8ecc     nafxcwd:afxinl2.obj
 0003:00040ed8       ??_R3CGdiObject@@8         101f8ed8     nafxcwd:afxinl2.obj
 0003:00040eec       ??_R4CGdiObject@@6B@       101f8eec     nafxcwd:afxinl2.obj
 0003:00040f04       ??_R1A@?0A@A@CPen@@8       101f8f04     nafxcwd:afxinl2.obj
 0003:00040f20       ??_R2CPen@@8               101f8f20     nafxcwd:afxinl2.obj
 0003:00040f30       ??_R3CPen@@8               101f8f30     nafxcwd:afxinl2.obj
 0003:00040f44       ??_R4CPen@@6B@             101f8f44     nafxcwd:afxinl2.obj
 0003:00040f5c       ??_R1A@?0A@A@CBrush@@8     101f8f5c     nafxcwd:afxinl2.obj
 0003:00040f78       ??_R2CBrush@@8             101f8f78     nafxcwd:afxinl2.obj
 0003:00040f88       ??_R3CBrush@@8             101f8f88     nafxcwd:afxinl2.obj
 0003:00040f9c       ??_R4CBrush@@6B@           101f8f9c     nafxcwd:afxinl2.obj
 0003:00040fb4       ??_R1A@?0A@A@CFont@@8      101f8fb4     nafxcwd:afxinl2.obj
 0003:00040fd0       ??_R2CFont@@8              101f8fd0     nafxcwd:afxinl2.obj
 0003:00040fe0       ??_R3CFont@@8              101f8fe0     nafxcwd:afxinl2.obj
 0003:00040ff4       ??_R4CFont@@6B@            101f8ff4     nafxcwd:afxinl2.obj
 0003:0004100c       ??_R1A@?0A@A@CBitmap@@8    101f900c     nafxcwd:afxinl2.obj
 0003:00041028       ??_R2CBitmap@@8            101f9028     nafxcwd:afxinl2.obj
 0003:00041038       ??_R3CBitmap@@8            101f9038     nafxcwd:afxinl2.obj
 0003:0004104c       ??_R4CBitmap@@6B@          101f904c     nafxcwd:afxinl2.obj
 0003:00041064       ??_R1A@?0A@A@CPalette@@8   101f9064     nafxcwd:afxinl2.obj
 0003:00041080       ??_R2CPalette@@8           101f9080     nafxcwd:afxinl2.obj
 0003:00041090       ??_R3CPalette@@8           101f9090     nafxcwd:afxinl2.obj
 0003:000410a4       ??_R4CPalette@@6B@         101f90a4     nafxcwd:afxinl2.obj
 0003:000410bc       ??_R1A@?0A@A@CRgn@@8       101f90bc     nafxcwd:afxinl2.obj
 0003:000410d8       ??_R2CRgn@@8               101f90d8     nafxcwd:afxinl2.obj
 0003:000410e8       ??_R3CRgn@@8               101f90e8     nafxcwd:afxinl2.obj
 0003:000410fc       ??_R4CRgn@@6B@             101f90fc     nafxcwd:afxinl2.obj
 0003:00041114       ??_R1A@?0A@A@CMenu@@8      101f9114     nafxcwd:afxinl2.obj
 0003:00041130       ??_R2CMenu@@8              101f9130     nafxcwd:afxinl2.obj
 0003:0004113c       ??_R3CMenu@@8              101f913c     nafxcwd:afxinl2.obj
 0003:00041150       ??_R4CMenu@@6B@            101f9150     nafxcwd:afxinl2.obj
 0003:00041168       ??_R1A@?0A@A@CDC@@8        101f9168     nafxcwd:wingdi.obj
 0003:00041184       ??_R2CDC@@8                101f9184     nafxcwd:wingdi.obj
 0003:00041190       ??_R3CDC@@8                101f9190     nafxcwd:wingdi.obj
 0003:000411a4       ??_R4CDC@@6B@              101f91a4     nafxcwd:wingdi.obj
 0003:000411bc       ??_R1A@?0A@A@CClientDC@@8  101f91bc     nafxcwd:wingdi.obj
 0003:000411d8       ??_R2CClientDC@@8          101f91d8     nafxcwd:wingdi.obj
 0003:000411e8       ??_R3CClientDC@@8          101f91e8     nafxcwd:wingdi.obj
 0003:000411fc       ??_R4CClientDC@@6B@        101f91fc     nafxcwd:wingdi.obj
 0003:00041214       ??_R1A@?0A@A@CWindowDC@@8  101f9214     nafxcwd:wingdi.obj
 0003:00041230       ??_R2CWindowDC@@8          101f9230     nafxcwd:wingdi.obj
 0003:00041240       ??_R3CWindowDC@@8          101f9240     nafxcwd:wingdi.obj
 0003:00041254       ??_R4CWindowDC@@6B@        101f9254     nafxcwd:wingdi.obj
 0003:0004126c       ??_R1A@?0A@A@CPaintDC@@8   101f926c     nafxcwd:wingdi.obj
 0003:00041288       ??_R2CPaintDC@@8           101f9288     nafxcwd:wingdi.obj
 0003:00041298       ??_R3CPaintDC@@8           101f9298     nafxcwd:wingdi.obj
 0003:000412ac       ??_R4CPaintDC@@6B@         101f92ac     nafxcwd:wingdi.obj
 0003:000412c4       ??_R1A@?0A@A@CStringList@@8 101f92c4     nafxcwd:list_s.obj
 0003:000412e0       ??_R2CStringList@@8        101f92e0     nafxcwd:list_s.obj
 0003:000412ec       ??_R3CStringList@@8        101f92ec     nafxcwd:list_s.obj
 0003:00041300       ??_R4CStringList@@6B@      101f9300     nafxcwd:list_s.obj
 0003:00041318       ??_R1A@?0A@A@IAtlStringMgr@ATL@@8 101f9318     nafxcwd:strcore.obj
 0003:00041334       ??_R1A@?0A@A@CAfxStringMgr@@8 101f9334     nafxcwd:strcore.obj
 0003:00041350       ??_R2CAfxStringMgr@@8      101f9350     nafxcwd:strcore.obj
 0003:0004135c       ??_R3CAfxStringMgr@@8      101f935c     nafxcwd:strcore.obj
 0003:00041370       ??_R4CAfxStringMgr@@6B@    101f9370     nafxcwd:strcore.obj
 0003:00041388       ??_R1A@?0A@A@CWinThread@@8 101f9388     nafxcwd:thrdcore.obj
 0003:000413a4       ??_R2CWinThread@@8         101f93a4     nafxcwd:thrdcore.obj
 0003:000413b4       ??_R3CWinThread@@8         101f93b4     nafxcwd:thrdcore.obj
 0003:000413c8       ??_R4CWinThread@@6B@       101f93c8     nafxcwd:thrdcore.obj
 0003:000413e0       ??_R2CDialog@@8            101f93e0     nafxcwd:dlgcore.obj
 0003:000413f4       ??_R3CDialog@@8            101f93f4     nafxcwd:dlgcore.obj
 0003:00041408       ??_R4CDialog@@6B@          101f9408     nafxcwd:dlgcore.obj
 0003:00041420       ??_R1A@?0A@A@CWinApp@@8    101f9420     nafxcwd:appcore.obj
 0003:0004143c       ??_R2CWinApp@@8            101f943c     nafxcwd:appcore.obj
 0003:00041450       ??_R3CWinApp@@8            101f9450     nafxcwd:appcore.obj
 0003:00041464       ??_R4CWinApp@@6B@          101f9464     nafxcwd:appcore.obj
 0003:0004147c       ??_R1A@?0A@A@CCommandLineInfo@@8 101f947c     nafxcwd:appcore.obj
 0003:00041498       ??_R2CCommandLineInfo@@8   101f9498     nafxcwd:appcore.obj
 0003:000414a4       ??_R3CCommandLineInfo@@8   101f94a4     nafxcwd:appcore.obj
 0003:000414b8       ??_R4CCommandLineInfo@@6B@ 101f94b8     nafxcwd:appcore.obj
 0003:000414d0       ??_R1A@?0A@A@COleObjectFactory@@8 101f94d0     nafxcwd:olefact.obj
 0003:000414ec       ??_R2COleObjectFactory@@8  101f94ec     nafxcwd:olefact.obj
 0003:000414fc       ??_R3COleObjectFactory@@8  101f94fc     nafxcwd:olefact.obj
 0003:00041510       ??_R4COleObjectFactory@@6B@ 101f9510     nafxcwd:olefact.obj
 0003:00041528       ??_R1A@?0A@A@IUnknown@@8   101f9528     nafxcwd:olefact.obj
 0003:00041544       ??_R1A@?0A@A@IClassFactory@@8 101f9544     nafxcwd:olefact.obj
 0003:00041560       ??_R1A@?0A@A@IClassFactory2@@8 101f9560     nafxcwd:olefact.obj
 0003:0004157c       ??_R1A@?0A@A@XClassFactory@COleObjectFactory@@8 101f957c     nafxcwd:olefact.obj
 0003:00041598       ??_R2XClassFactory@COleObjectFactory@@8 101f9598     nafxcwd:olefact.obj
 0003:000415ac       ??_R3XClassFactory@COleObjectFactory@@8 101f95ac     nafxcwd:olefact.obj
 0003:000415c0       ??_R4XClassFactory@COleObjectFactory@@6B@ 101f95c0     nafxcwd:olefact.obj
 0003:000415d8       ??_R1A@?0A@A@CThreadData@@8 101f95d8     nafxcwd:afxtls.obj
 0003:000415f4       ??_R2CThreadData@@8        101f95f4     nafxcwd:afxtls.obj
 0003:00041600       ??_R3CThreadData@@8        101f9600     nafxcwd:afxtls.obj
 0003:00041614       ??_R4CThreadData@@6B@      101f9614     nafxcwd:afxtls.obj
 0003:0004162c       ??_R1A@?0A@A@CHandleMap@@8 101f962c     nafxcwd:winhand.obj
 0003:00041648       ??_R2CHandleMap@@8         101f9648     nafxcwd:winhand.obj
 0003:00041650       ??_R3CHandleMap@@8         101f9650     nafxcwd:winhand.obj
 0003:00041664       ??_R4CHandleMap@@6B@       101f9664     nafxcwd:winhand.obj
 0003:0004167c       ??_R1A@?0A@A@_AFX_THREAD_STATE@@8 101f967c     nafxcwd:afxstate.obj
 0003:00041698       ??_R2_AFX_THREAD_STATE@@8  101f9698     nafxcwd:afxstate.obj
 0003:000416a4       ??_R3_AFX_THREAD_STATE@@8  101f96a4     nafxcwd:afxstate.obj
 0003:000416b8       ??_R4_AFX_THREAD_STATE@@6B@ 101f96b8     nafxcwd:afxstate.obj
 0003:000416d0       ??_R1A@?0A@A@AFX_MODULE_STATE@@8 101f96d0     nafxcwd:afxstate.obj
 0003:000416ec       ??_R2AFX_MODULE_STATE@@8   101f96ec     nafxcwd:afxstate.obj
 0003:000416f8       ??_R3AFX_MODULE_STATE@@8   101f96f8     nafxcwd:afxstate.obj
 0003:0004170c       ??_R4AFX_MODULE_STATE@@6B@ 101f970c     nafxcwd:afxstate.obj
 0003:00041724       ??_R1A@?0A@A@AFX_MODULE_THREAD_STATE@@8 101f9724     nafxcwd:afxstate.obj
 0003:00041740       ??_R2AFX_MODULE_THREAD_STATE@@8 101f9740     nafxcwd:afxstate.obj
 0003:0004174c       ??_R3AFX_MODULE_THREAD_STATE@@8 101f974c     nafxcwd:afxstate.obj
 0003:00041760       ??_R4AFX_MODULE_THREAD_STATE@@6B@ 101f9760     nafxcwd:afxstate.obj
 0003:00041778       ??_R1A@?0A@A@_AFX_BASE_MODULE_STATE@@8 101f9778     nafxcwd:afxstate.obj
 0003:00041794       ??_R2_AFX_BASE_MODULE_STATE@@8 101f9794     nafxcwd:afxstate.obj
 0003:000417a4       ??_R3_AFX_BASE_MODULE_STATE@@8 101f97a4     nafxcwd:afxstate.obj
 0003:000417b8       ??_R4_AFX_BASE_MODULE_STATE@@6B@ 101f97b8     nafxcwd:afxstate.obj
 0003:000417d0       ??_R1A@?0A@A@CChevronOwnerDrawMenu@@8 101f97d0     nafxcwd:winmenu.obj
 0003:000417ec       ??_R2CChevronOwnerDrawMenu@@8 101f97ec     nafxcwd:winmenu.obj
 0003:000417fc       ??_R3CChevronOwnerDrawMenu@@8 101f97fc     nafxcwd:winmenu.obj
 0003:00041810       ??_R4CChevronOwnerDrawMenu@@6B@ 101f9810     nafxcwd:winmenu.obj
 0003:00041828       ??_R1A@?0A@A@CMapPtrToPtr@@8 101f9828     nafxcwd:map_pp.obj
 0003:00041844       ??_R2CMapPtrToPtr@@8       101f9844     nafxcwd:map_pp.obj
 0003:00041850       ??_R3CMapPtrToPtr@@8       101f9850     nafxcwd:map_pp.obj
 0003:00041864       ??_R4CMapPtrToPtr@@6B@     101f9864     nafxcwd:map_pp.obj
 0003:0004187c       ??_R1A@?0A@A@CInnerUnknown@@8 101f987c     nafxcwd:oleunk.obj
 0003:00041898       ??_R2CInnerUnknown@@8      101f9898     nafxcwd:oleunk.obj
 0003:000418a4       ??_R3CInnerUnknown@@8      101f98a4     nafxcwd:oleunk.obj
 0003:000418b8       ??_R4CInnerUnknown@@6B@    101f98b8     nafxcwd:oleunk.obj
 0003:000418d0       ??_R1A@?0A@A@COleException@@8 101f98d0     nafxcwd:oleunk.obj
 0003:000418ec       ??_R2COleException@@8      101f98ec     nafxcwd:oleunk.obj
 0003:000418fc       ??_R3COleException@@8      101f98fc     nafxcwd:oleunk.obj
 0003:00041910       ??_R4COleException@@6B@    101f9910     nafxcwd:oleunk.obj
 0003:00041928       ??_R1A@?0A@A@CPtrList@@8   101f9928     nafxcwd:list_p.obj
 0003:00041944       ??_R2CPtrList@@8           101f9944     nafxcwd:list_p.obj
 0003:00041950       ??_R3CPtrList@@8           101f9950     nafxcwd:list_p.obj
 0003:00041964       ??_R4CPtrList@@6B@         101f9964     nafxcwd:list_p.obj
 0003:0004197c       ??_R1A@?0A@A@_AFX_CHECKLIST_STATE@@8 101f997c     nafxcwd:winctrl3.obj
 0003:00041998       ??_R2_AFX_CHECKLIST_STATE@@8 101f9998     nafxcwd:winctrl3.obj
 0003:000419a4       ??_R3_AFX_CHECKLIST_STATE@@8 101f99a4     nafxcwd:winctrl3.obj
 0003:000419b8       ??_R4_AFX_CHECKLIST_STATE@@6B@ 101f99b8     nafxcwd:winctrl3.obj
 0003:000419d0       ??_R1A@?0A@A@CByteArray@@8 101f99d0     nafxcwd:array_b.obj
 0003:000419ec       ??_R2CByteArray@@8         101f99ec     nafxcwd:array_b.obj
 0003:000419f8       ??_R3CByteArray@@8         101f99f8     nafxcwd:array_b.obj
 0003:00041a0c       ??_R4CByteArray@@6B@       101f9a0c     nafxcwd:array_b.obj
 0003:00041a24       ??_R1A@?0A@A@CWordArray@@8 101f9a24     nafxcwd:array_w.obj
 0003:00041a40       ??_R2CWordArray@@8         101f9a40     nafxcwd:array_w.obj
 0003:00041a4c       ??_R3CWordArray@@8         101f9a4c     nafxcwd:array_w.obj
 0003:00041a60       ??_R4CWordArray@@6B@       101f9a60     nafxcwd:array_w.obj
 0003:00041a78       ??_R1A@?0A@A@CDWordArray@@8 101f9a78     nafxcwd:array_d.obj
 0003:00041a94       ??_R2CDWordArray@@8        101f9a94     nafxcwd:array_d.obj
 0003:00041aa0       ??_R3CDWordArray@@8        101f9aa0     nafxcwd:array_d.obj
 0003:00041ab4       ??_R4CDWordArray@@6B@      101f9ab4     nafxcwd:array_d.obj
 0003:00041acc       ??_R1A@?0A@A@CUIntArray@@8 101f9acc     nafxcwd:array_u.obj
 0003:00041ae8       ??_R2CUIntArray@@8         101f9ae8     nafxcwd:array_u.obj
 0003:00041af4       ??_R3CUIntArray@@8         101f9af4     nafxcwd:array_u.obj
 0003:00041b08       ??_R4CUIntArray@@6B@       101f9b08     nafxcwd:array_u.obj
 0003:00041b20       ??_R1A@?0A@A@CPtrArray@@8  101f9b20     nafxcwd:array_p.obj
 0003:00041b3c       ??_R2CPtrArray@@8          101f9b3c     nafxcwd:array_p.obj
 0003:00041b48       ??_R3CPtrArray@@8          101f9b48     nafxcwd:array_p.obj
 0003:00041b5c       ??_R4CPtrArray@@6B@        101f9b5c     nafxcwd:array_p.obj
 0003:00041b74       ??_R1A@?0A@A@CObArray@@8   101f9b74     nafxcwd:array_o.obj
 0003:00041b90       ??_R2CObArray@@8           101f9b90     nafxcwd:array_o.obj
 0003:00041b9c       ??_R3CObArray@@8           101f9b9c     nafxcwd:array_o.obj
 0003:00041bb0       ??_R4CObArray@@6B@         101f9bb0     nafxcwd:array_o.obj
 0003:00041bc8       ??_R1A@?0A@A@CStringArray@@8 101f9bc8     nafxcwd:array_s.obj
 0003:00041be4       ??_R2CStringArray@@8       101f9be4     nafxcwd:array_s.obj
 0003:00041bf0       ??_R3CStringArray@@8       101f9bf0     nafxcwd:array_s.obj
 0003:00041c04       ??_R4CStringArray@@6B@     101f9c04     nafxcwd:array_s.obj
 0003:00041c1c       ??_R1A@?0A@A@CMapWordToPtr@@8 101f9c1c     nafxcwd:map_wp.obj
 0003:00041c38       ??_R2CMapWordToPtr@@8      101f9c38     nafxcwd:map_wp.obj
 0003:00041c44       ??_R3CMapWordToPtr@@8      101f9c44     nafxcwd:map_wp.obj
 0003:00041c58       ??_R4CMapWordToPtr@@6B@    101f9c58     nafxcwd:map_wp.obj
 0003:00041c70       ??_R1A@?0A@A@CMapPtrToWord@@8 101f9c70     nafxcwd:map_pw.obj
 0003:00041c8c       ??_R2CMapPtrToWord@@8      101f9c8c     nafxcwd:map_pw.obj
 0003:00041c98       ??_R3CMapPtrToWord@@8      101f9c98     nafxcwd:map_pw.obj
 0003:00041cac       ??_R4CMapPtrToWord@@6B@    101f9cac     nafxcwd:map_pw.obj
 0003:00041cc4       ??_R1A@?0A@A@CMapWordToOb@@8 101f9cc4     nafxcwd:map_wo.obj
 0003:00041ce0       ??_R2CMapWordToOb@@8       101f9ce0     nafxcwd:map_wo.obj
 0003:00041cec       ??_R3CMapWordToOb@@8       101f9cec     nafxcwd:map_wo.obj
 0003:00041d00       ??_R4CMapWordToOb@@6B@     101f9d00     nafxcwd:map_wo.obj
 0003:00041d18       ??_R1A@?0A@A@CMapStringToPtr@@8 101f9d18     nafxcwd:map_sp.obj
 0003:00041d34       ??_R2CMapStringToPtr@@8    101f9d34     nafxcwd:map_sp.obj
 0003:00041d40       ??_R3CMapStringToPtr@@8    101f9d40     nafxcwd:map_sp.obj
 0003:00041d54       ??_R4CMapStringToPtr@@6B@  101f9d54     nafxcwd:map_sp.obj
 0003:00041d6c       ??_R1A@?0A@A@CMapStringToOb@@8 101f9d6c     nafxcwd:map_so.obj
 0003:00041d88       ??_R2CMapStringToOb@@8     101f9d88     nafxcwd:map_so.obj
 0003:00041d94       ??_R3CMapStringToOb@@8     101f9d94     nafxcwd:map_so.obj
 0003:00041da8       ??_R4CMapStringToOb@@6B@   101f9da8     nafxcwd:map_so.obj
 0003:00041dc0       ??_R1A@?0A@A@CMapStringToString@@8 101f9dc0     nafxcwd:map_ss.obj
 0003:00041ddc       ??_R2CMapStringToString@@8 101f9ddc     nafxcwd:map_ss.obj
 0003:00041de8       ??_R3CMapStringToString@@8 101f9de8     nafxcwd:map_ss.obj
 0003:00041dfc       ??_R4CMapStringToString@@6B@ 101f9dfc     nafxcwd:map_ss.obj
 0003:00041e14       ??_R1A@?0A@A@CFileDialog@@8 101f9e14     nafxcwd:dlgfile.obj
 0003:00041e30       ??_R2CFileDialog@@8        101f9e30     nafxcwd:dlgfile.obj
 0003:00041e50       ??_R3CFileDialog@@8        101f9e50     nafxcwd:dlgfile.obj
 0003:00041e64       ??_R4CFileDialog@@6B@      101f9e64     nafxcwd:dlgfile.obj
 0003:00041e7c       ??_R1A@?0A@A@CPropertyPage@@8 101f9e7c     nafxcwd:dlgprop.obj
 0003:00041e98       ??_R2CPropertyPage@@8      101f9e98     nafxcwd:dlgprop.obj
 0003:00041eb4       ??_R3CPropertyPage@@8      101f9eb4     nafxcwd:dlgprop.obj
 0003:00041ec8       ??_R4CPropertyPage@@6B@    101f9ec8     nafxcwd:dlgprop.obj
 0003:00041ee0       ??_R1A@?0A@A@CPropertySheet@@8 101f9ee0     nafxcwd:dlgprop.obj
 0003:00041efc       ??_R2CPropertySheet@@8     101f9efc     nafxcwd:dlgprop.obj
 0003:00041f10       ??_R3CPropertySheet@@8     101f9f10     nafxcwd:dlgprop.obj
 0003:00041f24       ??_R4CPropertySheet@@6B@   101f9f24     nafxcwd:dlgprop.obj
 0003:00041f3c       ??_R1A@?0A@A@CControlBar@@8 101f9f3c     nafxcwd:barcore.obj
 0003:00041f58       ??_R2CControlBar@@8        101f9f58     nafxcwd:barcore.obj
 0003:00041f6c       ??_R3CControlBar@@8        101f9f6c     nafxcwd:barcore.obj
 0003:00041f80       ??_R4CControlBar@@6B@      101f9f80     nafxcwd:barcore.obj
 0003:00041f98       ??_R1A@?0A@A@CToolBar@@8   101f9f98     nafxcwd:bartool.obj
 0003:00041fb4       ??_R2CToolBar@@8           101f9fb4     nafxcwd:bartool.obj
 0003:00041fd0       ??_R3CToolBar@@8           101f9fd0     nafxcwd:bartool.obj
 0003:00041fe4       ??_R4CToolBar@@6B@         101f9fe4     nafxcwd:bartool.obj
 0003:00041ffc       ??_R1A@?0A@A@CToolCmdUI@@8 101f9ffc     nafxcwd:bartool.obj
 0003:00042018       ??_R2CToolCmdUI@@8         101fa018     nafxcwd:bartool.obj
 0003:00042024       ??_R3CToolCmdUI@@8         101fa024     nafxcwd:bartool.obj
 0003:00042038       ??_R4CToolCmdUI@@6B@       101fa038     nafxcwd:bartool.obj
 0003:00042050       ??_R1A@?0A@A@CFrameWnd@@8  101fa050     nafxcwd:winfrm.obj
 0003:0004206c       ??_R2CFrameWnd@@8          101fa06c     nafxcwd:winfrm.obj
 0003:00042080       ??_R3CFrameWnd@@8          101fa080     nafxcwd:winfrm.obj
 0003:00042094       ??_R4CFrameWnd@@6B@        101fa094     nafxcwd:winfrm.obj
 0003:000420ac       ??_R1A@?0A@A@CRecentFileList@@8 101fa0ac     nafxcwd:filelist.obj
 0003:000420c8       ??_R2CRecentFileList@@8    101fa0c8     nafxcwd:filelist.obj
 0003:000420d0       ??_R3CRecentFileList@@8    101fa0d0     nafxcwd:filelist.obj
 0003:000420e4       ??_R4CRecentFileList@@6B@  101fa0e4     nafxcwd:filelist.obj
 0003:000420fc       ??_R1A@?0A@A@CDocTemplate@@8 101fa0fc     nafxcwd:doctempl.obj
 0003:00042118       ??_R2CDocTemplate@@8       101fa118     nafxcwd:doctempl.obj
 0003:00042128       ??_R3CDocTemplate@@8       101fa128     nafxcwd:doctempl.obj
 0003:0004213c       ??_R4CDocTemplate@@6B@     101fa13c     nafxcwd:doctempl.obj
 0003:00042154       ??_R1A@?0A@A@CFile@@8      101fa154     nafxcwd:filecore.obj
 0003:00042170       ??_R2CFile@@8              101fa170     nafxcwd:filecore.obj
 0003:0004217c       ??_R3CFile@@8              101fa17c     nafxcwd:filecore.obj
 0003:00042190       ??_R4CFile@@6B@            101fa190     nafxcwd:filecore.obj
 0003:000421a8       ??_R1A@?0A@A@CDocManager@@8 101fa1a8     nafxcwd:docmgr.obj
 0003:000421c4       ??_R2CDocManager@@8        101fa1c4     nafxcwd:docmgr.obj
 0003:000421d0       ??_R3CDocManager@@8        101fa1d0     nafxcwd:docmgr.obj
 0003:000421e4       ??_R4CDocManager@@6B@      101fa1e4     nafxcwd:docmgr.obj
 0003:000421fc       ??_R1A@?0A@A@CNewTypeDlg@@8 101fa1fc     nafxcwd:docmgr.obj
 0003:00042218       ??_R2CNewTypeDlg@@8        101fa218     nafxcwd:docmgr.obj
 0003:00042234       ??_R3CNewTypeDlg@@8        101fa234     nafxcwd:docmgr.obj
 0003:00042248       ??_R4CNewTypeDlg@@6B@      101fa248     nafxcwd:docmgr.obj
 0003:00042260       ??_R1A@?0A@A@_AFX_COLOR_STATE@@8 101fa260     nafxcwd:dlgclr.obj
 0003:0004227c       ??_R2_AFX_COLOR_STATE@@8   101fa27c     nafxcwd:dlgclr.obj
 0003:00042288       ??_R3_AFX_COLOR_STATE@@8   101fa288     nafxcwd:dlgclr.obj
 0003:0004229c       ??_R4_AFX_COLOR_STATE@@6B@ 101fa29c     nafxcwd:dlgclr.obj
 0003:000422b4       ??_R1A@?0A@A@CColorDialog@@8 101fa2b4     nafxcwd:dlgclr.obj
 0003:000422d0       ??_R2CColorDialog@@8       101fa2d0     nafxcwd:dlgclr.obj
 0003:000422f0       ??_R3CColorDialog@@8       101fa2f0     nafxcwd:dlgclr.obj
 0003:00042304       ??_R4CColorDialog@@6B@     101fa304     nafxcwd:dlgclr.obj
 0003:0004231c       ??_R1A@?0A@A@_AFX_PROPPAGEFONTINFO@@8 101fa31c     nafxcwd:ccdata.obj
 0003:00042338       ??_R2_AFX_PROPPAGEFONTINFO@@8 101fa338     nafxcwd:ccdata.obj
 0003:00042344       ??_R3_AFX_PROPPAGEFONTINFO@@8 101fa344     nafxcwd:ccdata.obj
 0003:00042358       ??_R4_AFX_PROPPAGEFONTINFO@@6B@ 101fa358     nafxcwd:ccdata.obj
 0003:00042370       ??_R1A@?0A@A@CDragListBox@@8 101fa370     nafxcwd:winctrl2.obj
 0003:0004238c       ??_R2CDragListBox@@8       101fa38c     nafxcwd:winctrl2.obj
 0003:000423a8       ??_R3CDragListBox@@8       101fa3a8     nafxcwd:winctrl2.obj
 0003:000423bc       ??_R4CDragListBox@@6B@     101fa3bc     nafxcwd:winctrl2.obj
 0003:000423d4       ??_R1A@?0A@A@CToolBarCtrl@@8 101fa3d4     nafxcwd:winctrl2.obj
 0003:000423f0       ??_R2CToolBarCtrl@@8       101fa3f0     nafxcwd:winctrl2.obj
 0003:00042404       ??_R3CToolBarCtrl@@8       101fa404     nafxcwd:winctrl2.obj
 0003:00042418       ??_R4CToolBarCtrl@@6B@     101fa418     nafxcwd:winctrl2.obj
 0003:00042430       ??_R1A@?0A@A@CStatusBarCtrl@@8 101fa430     nafxcwd:winctrl2.obj
 0003:0004244c       ??_R2CStatusBarCtrl@@8     101fa44c     nafxcwd:winctrl2.obj
 0003:00042460       ??_R3CStatusBarCtrl@@8     101fa460     nafxcwd:winctrl2.obj
 0003:00042474       ??_R4CStatusBarCtrl@@6B@   101fa474     nafxcwd:winctrl2.obj
 0003:0004248c       ??_R1A@?0A@A@CListCtrl@@8  101fa48c     nafxcwd:winctrl2.obj
 0003:000424a8       ??_R2CListCtrl@@8          101fa4a8     nafxcwd:winctrl2.obj
 0003:000424bc       ??_R3CListCtrl@@8          101fa4bc     nafxcwd:winctrl2.obj
 0003:000424d0       ??_R4CListCtrl@@6B@        101fa4d0     nafxcwd:winctrl2.obj
 0003:000424e8       ??_R1A@?0A@A@CTreeCtrl@@8  101fa4e8     nafxcwd:winctrl2.obj
 0003:00042504       ??_R2CTreeCtrl@@8          101fa504     nafxcwd:winctrl2.obj
 0003:00042518       ??_R3CTreeCtrl@@8          101fa518     nafxcwd:winctrl2.obj
 0003:0004252c       ??_R4CTreeCtrl@@6B@        101fa52c     nafxcwd:winctrl2.obj
 0003:00042544       ??_R1A@?0A@A@CSpinButtonCtrl@@8 101fa544     nafxcwd:winctrl2.obj
 0003:00042560       ??_R2CSpinButtonCtrl@@8    101fa560     nafxcwd:winctrl2.obj
 0003:00042574       ??_R3CSpinButtonCtrl@@8    101fa574     nafxcwd:winctrl2.obj
 0003:00042588       ??_R4CSpinButtonCtrl@@6B@  101fa588     nafxcwd:winctrl2.obj
 0003:000425a0       ??_R1A@?0A@A@CSliderCtrl@@8 101fa5a0     nafxcwd:winctrl2.obj
 0003:000425bc       ??_R2CSliderCtrl@@8        101fa5bc     nafxcwd:winctrl2.obj
 0003:000425d0       ??_R3CSliderCtrl@@8        101fa5d0     nafxcwd:winctrl2.obj
 0003:000425e4       ??_R4CSliderCtrl@@6B@      101fa5e4     nafxcwd:winctrl2.obj
 0003:000425fc       ??_R1A@?0A@A@CProgressCtrl@@8 101fa5fc     nafxcwd:winctrl2.obj
 0003:00042618       ??_R2CProgressCtrl@@8      101fa618     nafxcwd:winctrl2.obj
 0003:0004262c       ??_R3CProgressCtrl@@8      101fa62c     nafxcwd:winctrl2.obj
 0003:00042640       ??_R4CProgressCtrl@@6B@    101fa640     nafxcwd:winctrl2.obj
 0003:00042658       ??_R1A@?0A@A@CHeaderCtrl@@8 101fa658     nafxcwd:winctrl2.obj
 0003:00042674       ??_R2CHeaderCtrl@@8        101fa674     nafxcwd:winctrl2.obj
 0003:00042688       ??_R3CHeaderCtrl@@8        101fa688     nafxcwd:winctrl2.obj
 0003:0004269c       ??_R4CHeaderCtrl@@6B@      101fa69c     nafxcwd:winctrl2.obj
 0003:000426b4       ??_R1A@?0A@A@CHotKeyCtrl@@8 101fa6b4     nafxcwd:winctrl2.obj
 0003:000426d0       ??_R2CHotKeyCtrl@@8        101fa6d0     nafxcwd:winctrl2.obj
 0003:000426e4       ??_R3CHotKeyCtrl@@8        101fa6e4     nafxcwd:winctrl2.obj
 0003:000426f8       ??_R4CHotKeyCtrl@@6B@      101fa6f8     nafxcwd:winctrl2.obj
 0003:00042710       ??_R1A@?0A@A@CTabCtrl@@8   101fa710     nafxcwd:winctrl2.obj
 0003:0004272c       ??_R2CTabCtrl@@8           101fa72c     nafxcwd:winctrl2.obj
 0003:00042740       ??_R3CTabCtrl@@8           101fa740     nafxcwd:winctrl2.obj
 0003:00042754       ??_R4CTabCtrl@@6B@         101fa754     nafxcwd:winctrl2.obj
 0003:0004276c       ??_R1A@?0A@A@CAnimateCtrl@@8 101fa76c     nafxcwd:winctrl2.obj
 0003:00042788       ??_R2CAnimateCtrl@@8       101fa788     nafxcwd:winctrl2.obj
 0003:0004279c       ??_R3CAnimateCtrl@@8       101fa79c     nafxcwd:winctrl2.obj
 0003:000427b0       ??_R4CAnimateCtrl@@6B@     101fa7b0     nafxcwd:winctrl2.obj
 0003:000427c8       ??_R1A@?0A@A@CRichEditCtrl@@8 101fa7c8     nafxcwd:winctrl2.obj
 0003:000427e4       ??_R2CRichEditCtrl@@8      101fa7e4     nafxcwd:winctrl2.obj
 0003:000427f8       ??_R3CRichEditCtrl@@8      101fa7f8     nafxcwd:winctrl2.obj
 0003:0004280c       ??_R4CRichEditCtrl@@6B@    101fa80c     nafxcwd:winctrl2.obj
 0003:00042824       ??_R1A@?0A@A@CImageList@@8 101fa824     nafxcwd:winctrl2.obj
 0003:00042840       ??_R2CImageList@@8         101fa840     nafxcwd:winctrl2.obj
 0003:0004284c       ??_R3CImageList@@8         101fa84c     nafxcwd:winctrl2.obj
 0003:00042860       ??_R4CImageList@@6B@       101fa860     nafxcwd:winctrl2.obj
 0003:00042878       ??_R1A@?0A@A@CToolTipCtrl@@8 101fa878     nafxcwd:tooltip.obj
 0003:00042894       ??_R2CToolTipCtrl@@8       101fa894     nafxcwd:tooltip.obj
 0003:000428a8       ??_R3CToolTipCtrl@@8       101fa8a8     nafxcwd:tooltip.obj
 0003:000428bc       ??_R4CToolTipCtrl@@6B@     101fa8bc     nafxcwd:tooltip.obj
 0003:000428d4       ??_R1A@?0A@A@CDockContext@@8 101fa8d4     nafxcwd:dockcont.obj
 0003:000428f0       ??_R2CDockContext@@8       101fa8f0     nafxcwd:dockcont.obj
 0003:000428f8       ??_R3CDockContext@@8       101fa8f8     nafxcwd:dockcont.obj
 0003:0004290c       ??_R4CDockContext@@6B@     101fa90c     nafxcwd:dockcont.obj
 0003:00042924       ??_R1A@?0A@A@ISequentialStream@@8 101fa924     nafxcwd:arcstrm.obj
 0003:00042940       ??_R1A@?0A@A@IStream@@8    101fa940     nafxcwd:arcstrm.obj
 0003:0004295c       ??_R1A@?0A@A@CArchiveStream@@8 101fa95c     nafxcwd:arcstrm.obj
 0003:00042978       ??_R2CArchiveStream@@8     101fa978     nafxcwd:arcstrm.obj
 0003:0004298c       ??_R3CArchiveStream@@8     101fa98c     nafxcwd:arcstrm.obj
 0003:000429a0       ??_R4CArchiveStream@@6B@   101fa9a0     nafxcwd:arcstrm.obj
 0003:000429b8       ??_R1A@?0A@A@CIPAddressCtrl@@8 101fa9b8     nafxcwd:winctrl6.obj
 0003:000429d4       ??_R2CIPAddressCtrl@@8     101fa9d4     nafxcwd:winctrl6.obj
 0003:000429e8       ??_R3CIPAddressCtrl@@8     101fa9e8     nafxcwd:winctrl6.obj
 0003:000429fc       ??_R4CIPAddressCtrl@@6B@   101fa9fc     nafxcwd:winctrl6.obj
 0003:00042a14       ??_R1A@?0A@A@CComboBoxEx@@8 101faa14     nafxcwd:winctrl6.obj
 0003:00042a30       ??_R2CComboBoxEx@@8        101faa30     nafxcwd:winctrl6.obj
 0003:00042a4c       ??_R3CComboBoxEx@@8        101faa4c     nafxcwd:winctrl6.obj
 0003:00042a60       ??_R4CComboBoxEx@@6B@      101faa60     nafxcwd:winctrl6.obj
 0003:00042a78       ??_R1A@?0A@A@CReBarCtrl@@8 101faa78     nafxcwd:winctrl6.obj
 0003:00042a94       ??_R2CReBarCtrl@@8         101faa94     nafxcwd:winctrl6.obj
 0003:00042aa8       ??_R3CReBarCtrl@@8         101faaa8     nafxcwd:winctrl6.obj
 0003:00042abc       ??_R4CReBarCtrl@@6B@       101faabc     nafxcwd:winctrl6.obj
 0003:00042ad4       ??_R1A@?0A@A@CReBar@@8     101faad4     nafxcwd:barcool.obj
 0003:00042af0       ??_R2CReBar@@8             101faaf0     nafxcwd:barcool.obj
 0003:00042b0c       ??_R3CReBar@@8             101fab0c     nafxcwd:barcool.obj
 0003:00042b20       ??_R4CReBar@@6B@           101fab20     nafxcwd:barcool.obj
 0003:00042b38       ??_R1A@?0A@A@CDocument@@8  101fab38     nafxcwd:doccore.obj
 0003:00042b54       ??_R2CDocument@@8          101fab54     nafxcwd:doccore.obj
 0003:00042b64       ??_R3CDocument@@8          101fab64     nafxcwd:doccore.obj
 0003:00042b78       ??_R4CDocument@@6B@        101fab78     nafxcwd:doccore.obj
 0003:00042b90       ??_R1A@?0A@A@CMirrorFile@@8 101fab90     nafxcwd:doccore.obj
 0003:00042bac       ??_R2CMirrorFile@@8        101fabac     nafxcwd:doccore.obj
 0003:00042bbc       ??_R3CMirrorFile@@8        101fabbc     nafxcwd:doccore.obj
 0003:00042bd0       ??_R4CMirrorFile@@6B@      101fabd0     nafxcwd:doccore.obj
 0003:00042be8       ??_R1A@?0A@A@_AFX_DEBUG_STATE@@8 101fabe8     nafxcwd:dumpinit.obj
 0003:00042c04       ??_R2_AFX_DEBUG_STATE@@8   101fac04     nafxcwd:dumpinit.obj
 0003:00042c10       ??_R3_AFX_DEBUG_STATE@@8   101fac10     nafxcwd:dumpinit.obj
 0003:00042c24       ??_R4_AFX_DEBUG_STATE@@6B@ 101fac24     nafxcwd:dumpinit.obj
 0003:00042c3c       ??_R1A@?0A@A@COleDispatchImpl@@8 101fac3c     nafxcwd:oledisp1.obj
 0003:00042c58       ??_R2COleDispatchImpl@@8   101fac58     nafxcwd:oledisp1.obj
 0003:00042c68       ??_R3COleDispatchImpl@@8   101fac68     nafxcwd:oledisp1.obj
 0003:00042c7c       ??_R4COleDispatchImpl@@6B@ 101fac7c     nafxcwd:oledisp1.obj
 0003:00042c94       ??_R1A@?0A@A@COleDispatchException@@8 101fac94     nafxcwd:oledisp1.obj
 0003:00042cb0       ??_R2COleDispatchException@@8 101facb0     nafxcwd:oledisp1.obj
 0003:00042cc0       ??_R3COleDispatchException@@8 101facc0     nafxcwd:oledisp1.obj
 0003:00042cd4       ??_R4COleDispatchException@@6B@ 101facd4     nafxcwd:oledisp1.obj
 0003:00042cec       ??_R1A@?0A@A@_AFX_EDIT_STATE@@8 101facec     nafxcwd:winctrl4.obj
 0003:00042d08       ??_R1A@?0A@A@_AFX_RICHEDIT_STATE@@8 101fad08     nafxcwd:winctrl4.obj
 0003:00042d24       ??_R2_AFX_RICHEDIT_STATE@@8 101fad24     nafxcwd:winctrl4.obj
 0003:00042d34       ??_R3_AFX_RICHEDIT_STATE@@8 101fad34     nafxcwd:winctrl4.obj
 0003:00042d48       ??_R4_AFX_RICHEDIT_STATE@@6B@ 101fad48     nafxcwd:winctrl4.obj
 0003:00042d60       ??_R1A@?0A@A@CDockBar@@8   101fad60     nafxcwd:bardock.obj
 0003:00042d7c       ??_R2CDockBar@@8           101fad7c     nafxcwd:bardock.obj
 0003:00042d98       ??_R3CDockBar@@8           101fad98     nafxcwd:bardock.obj
 0003:00042dac       ??_R4CDockBar@@6B@         101fadac     nafxcwd:bardock.obj
 0003:00042dc4       ??_R1A@?0A@A@CMiniFrameWnd@@8 101fadc4     nafxcwd:bardock.obj
 0003:00042de0       ??_R1A@?0A@A@CMiniDockFrameWnd@@8 101fade0     nafxcwd:bardock.obj
 0003:00042dfc       ??_R2CMiniDockFrameWnd@@8  101fadfc     nafxcwd:bardock.obj
 0003:00042e1c       ??_R3CMiniDockFrameWnd@@8  101fae1c     nafxcwd:bardock.obj
 0003:00042e30       ??_R4CMiniDockFrameWnd@@6B@ 101fae30     nafxcwd:bardock.obj
 0003:00042e48       ??_R2CMiniFrameWnd@@8      101fae48     nafxcwd:winmini.obj
 0003:00042e64       ??_R3CMiniFrameWnd@@8      101fae64     nafxcwd:winmini.obj
 0003:00042e78       ??_R4CMiniFrameWnd@@6B@    101fae78     nafxcwd:winmini.obj
 0003:00042e90       ??_R1A@?0A@A@CTypeLibCacheMap@@8 101fae90     nafxcwd:oletyplb.obj
 0003:00042eac       ??_R2CTypeLibCacheMap@@8   101faeac     nafxcwd:oletyplb.obj
 0003:00042ebc       ??_R3CTypeLibCacheMap@@8   101faebc     nafxcwd:oletyplb.obj
 0003:00042ed0       ??_R4CTypeLibCacheMap@@6B@ 101faed0     nafxcwd:oletyplb.obj
 0003:00042ee8       ??_R2_AFX_EDIT_STATE@@8    101faee8     nafxcwd:viewedit.obj
 0003:00042ef4       ??_R3_AFX_EDIT_STATE@@8    101faef4     nafxcwd:viewedit.obj
 0003:00042f08       ??_R4_AFX_EDIT_STATE@@6B@  101faf08     nafxcwd:viewedit.obj
 0003:00042f20       ??_R1A@?0A@A@CView@@8      101faf20     nafxcwd:viewedit.obj
 0003:00042f3c       ??_R1A@?0A@A@CCtrlView@@8  101faf3c     nafxcwd:viewedit.obj
 0003:00042f58       ??_R1A@?0A@A@CEditView@@8  101faf58     nafxcwd:viewedit.obj
 0003:00042f74       ??_R2CEditView@@8          101faf74     nafxcwd:viewedit.obj
 0003:00042f94       ??_R3CEditView@@8          101faf94     nafxcwd:viewedit.obj
 0003:00042fa8       ??_R4CEditView@@6B@        101fafa8     nafxcwd:viewedit.obj
 0003:00042fc0       ??_R2CView@@8              101fafc0     nafxcwd:viewcore.obj
 0003:00042fd4       ??_R3CView@@8              101fafd4     nafxcwd:viewcore.obj
 0003:00042fe8       ??_R4CView@@6B@            101fafe8     nafxcwd:viewcore.obj
 0003:00043000       ??_R2CCtrlView@@8          101fb000     nafxcwd:viewcore.obj
 0003:0004301c       ??_R3CCtrlView@@8          101fb01c     nafxcwd:viewcore.obj
 0003:00043030       ??_R4CCtrlView@@6B@        101fb030     nafxcwd:viewcore.obj
 0003:00043048       ??_R1A@?0A@A@CPrintingDialog@@8 101fb048     nafxcwd:viewprnt.obj
 0003:00043064       ??_R2CPrintingDialog@@8    101fb064     nafxcwd:viewprnt.obj
 0003:00043080       ??_R3CPrintingDialog@@8    101fb080     nafxcwd:viewprnt.obj
 0003:00043094       ??_R4CPrintingDialog@@6B@  101fb094     nafxcwd:viewprnt.obj
 0003:000430ac       ??_R1A@?0A@A@_AFX_WIN_STATE@@8 101fb0ac     nafxcwd:viewprnt.obj
 0003:000430c8       ??_R2_AFX_WIN_STATE@@8     101fb0c8     nafxcwd:viewprnt.obj
 0003:000430d4       ??_R3_AFX_WIN_STATE@@8     101fb0d4     nafxcwd:viewprnt.obj
 0003:000430e8       ??_R4_AFX_WIN_STATE@@6B@   101fb0e8     nafxcwd:viewprnt.obj
 0003:00043100       ??_R1A@?0A@A@CFindReplaceDialog@@8 101fb100     nafxcwd:dlgfr.obj
 0003:0004311c       ??_R2CFindReplaceDialog@@8 101fb11c     nafxcwd:dlgfr.obj
 0003:0004313c       ??_R3CFindReplaceDialog@@8 101fb13c     nafxcwd:dlgfr.obj
 0003:00043150       ??_R4CFindReplaceDialog@@6B@ 101fb150     nafxcwd:dlgfr.obj
 0003:00043168       ??_R1A@?0A@A@CPageSetupDialog@@8 101fb168     nafxcwd:dlgprnt.obj
 0003:00043184       ??_R2CPageSetupDialog@@8   101fb184     nafxcwd:dlgprnt.obj
 0003:000431a4       ??_R3CPageSetupDialog@@8   101fb1a4     nafxcwd:dlgprnt.obj
 0003:000431b8       ??_R4CPageSetupDialog@@6B@ 101fb1b8     nafxcwd:dlgprnt.obj
 0003:000431d0       ??_R1A@?0A@A@CPrintDialog@@8 101fb1d0     nafxcwd:dlgprnt.obj
 0003:000431ec       ??_R2CPrintDialog@@8       101fb1ec     nafxcwd:dlgprnt.obj
 0003:0004320c       ??_R3CPrintDialog@@8       101fb20c     nafxcwd:dlgprnt.obj
 0003:00043220       ??_R4CPrintDialog@@6B@     101fb220     nafxcwd:dlgprnt.obj
 0003:00043238       ??_R1A@?0A@A@type_info@@8  101fb238     libcmtd:typinfo.obj
 0003:00043254       ??_R2type_info@@8          101fb254     libcmtd:typinfo.obj
 0003:0004325c       ??_R3type_info@@8          101fb25c     libcmtd:typinfo.obj
 0003:00043270       ??_R4type_info@@6B@        101fb270     libcmtd:typinfo.obj
 0003:00043498       ___rtc_iaa                 101fb498     libcmtd:initsect.obj
 0003:000436b8       ___rtc_izz                 101fb6b8     libcmtd:initsect.obj
 0003:000437bc       ___rtc_taa                 101fb7bc     libcmtd:initsect.obj
 0003:000439dc       ___rtc_tzz                 101fb9dc     libcmtd:initsect.obj
 0003:00045130       __CT??_R0PAX@84            101fd130     nafxcwd:wingdi.obj
 0003:00045150       __CT??_R0PAVCObject@@@84   101fd150     nafxcwd:wingdi.obj
 0003:00045170       __CT??_R0PAVCException@@@84 101fd170     nafxcwd:wingdi.obj
 0003:00045190       __CT??_R0PAVCSimpleException@@@84 101fd190     nafxcwd:wingdi.obj
 0003:000451b0       __CT??_R0PAVCResourceException@@@84 101fd1b0     nafxcwd:wingdi.obj
 0003:000451d0       __CTA5PAVCResourceException@@ 101fd1d0     nafxcwd:wingdi.obj
 0003:000451ec       __TI5PAVCResourceException@@ 101fd1ec     nafxcwd:wingdi.obj
 0003:00045200       __CT??_R0PAVCUserException@@@84 101fd200     nafxcwd:wingdi.obj
 0003:00045220       __CTA5PAVCUserException@@  101fd220     nafxcwd:wingdi.obj
 0003:0004523c       __TI5PAVCUserException@@   101fd23c     nafxcwd:wingdi.obj
 0003:0004548c       __CT??_R0PAVCOleException@@@84 101fd48c     nafxcwd:olemisc.obj
 0003:000454ac       __CTA4PAVCOleException@@   101fd4ac     nafxcwd:olemisc.obj
 0003:000454c4       __TI4PAVCOleException@@    101fd4c4     nafxcwd:olemisc.obj
 0003:00045550       __CT??_R0PAVCMemoryException@@@84 101fd550     nafxcwd:except.obj
 0003:00045570       __CTA5PAVCMemoryException@@ 101fd570     nafxcwd:except.obj
 0003:0004558c       __TI5PAVCMemoryException@@ 101fd58c     nafxcwd:except.obj
 0003:000455a0       __CT??_R0PAVCNotSupportedException@@@84 101fd5a0     nafxcwd:except.obj
 0003:000455c0       __CTA5PAVCNotSupportedException@@ 101fd5c0     nafxcwd:except.obj
 0003:000455dc       __TI5PAVCNotSupportedException@@ 101fd5dc     nafxcwd:except.obj
 0003:000455f0       __CT??_R0PAVCInvalidArgException@@@84 101fd5f0     nafxcwd:except.obj
 0003:00045610       __CTA5PAVCInvalidArgException@@ 101fd610     nafxcwd:except.obj
 0003:0004562c       __TI5PAVCInvalidArgException@@ 101fd62c     nafxcwd:except.obj
 0003:00046578       __CT??_R0PAVCArchiveException@@@84 101fe578     nafxcwd:arcex.obj
 0003:00046598       __CTA4PAVCArchiveException@@ 101fe598     nafxcwd:arcex.obj
 0003:000465b0       __TI4PAVCArchiveException@@ 101fe5b0     nafxcwd:arcex.obj
 0003:0004661c       __CT??_R0PAVCFileException@@@84 101fe61c     nafxcwd:filex.obj
 0003:0004663c       __CTA4PAVCFileException@@  101fe63c     nafxcwd:filex.obj
 0003:00046654       __TI4PAVCFileException@@   101fe654     nafxcwd:filex.obj
 0003:00048148       __CT??_R0PAVCOleDispatchException@@@84 10200148     nafxcwd:oledisp2.obj
 0003:00048168       __CTA4PAVCOleDispatchException@@ 10200168     nafxcwd:oledisp2.obj
 0003:00048180       __TI4PAVCOleDispatchException@@ 10200180     nafxcwd:oledisp2.obj
 0003:00049458       __CT??_R0?AVCAtlException@ATL@@@84 10201458     atlsd:Externs.obj
 0003:00049478       __CTA1?AVCAtlException@ATL@@ 10201478     atlsd:Externs.obj
 0003:00049480       __TI1?AVCAtlException@ATL@@ 10201480     atlsd:Externs.obj
 0003:00049e44       ___pobjMapEntryFirst       10201e44     nafxcwd:objcore.obj
 0003:00049f48       ___pobjMapEntryLast        10201f48     nafxcwd:objcore.obj
 0004:00000000       ___xc_a                    10203000     libcmtd:crt0init.obj
 0004:000006b8       ___xc_z                    102036b8     libcmtd:crt0init.obj
 0004:000007bc       ___xi_a                    102037bc     libcmtd:crt0init.obj
 0004:00000ad8       ___xi_z                    10203ad8     libcmtd:crt0init.obj
 0004:00000bdc       ___xp_a                    10203bdc     libcmtd:crt0init.obj
 0004:00000de4       ___xp_z                    10203de4     libcmtd:crt0init.obj
 0004:00000ee8       ___xt_a                    10203ee8     libcmtd:crt0init.obj
 0004:000010f0       ___xt_z                    102040f0     libcmtd:crt0init.obj
 0004:00001258       ?g_pfnGetThreadACP@ATL@@3P6GIXZA 10204258     INI.obj
 0004:000012a8       ?__LINE__Var@?1???0CINI@@QAE@V?$CStringT@DV?$StrTraitMFC@DV?$ChTraitsCRT@D@ATL@@@@@ATL@@@Z@4JA 102042a8     INI.obj
 0004:000012ac       ?__LINE__Var@?1??AtlThrow@ATL@@YGXJ@Z@4JA 102042ac     INI.obj
 0004:00001304       ?__LINE__Var@?1??OnButtonSelectDevice@CMiniXDlg@@IAEXXZ@4JA 10204304     MiniXDlg.obj
 0004:00001308       ?_strthunks@ATL@@3U_AtlStringThunks@1@A 10204308     stdafx.obj
 0004:00001324       ?__LINE__Var@?1??GetEnvironmentVariableWFake@ATL@@YGKPB_WPA_WK@Z@4JA 10204324     stdafx.obj
 0004:00001328       ?__LINE__Var@?1??AtlW2AHelper@@YGPADPADPB_WHI@Z@4JA 10204328     stdafx.obj
 0004:0000132c       ?__LINE__Var@?1??AtlA2WHelper@@YGPA_WPA_WPBDHI@Z@4JA 1020432c     stdafx.obj
 0004:000013e0       ?__LINE__Var@?1??GetValue@CVersionInfo@@ABE?AV?$CStringT@DV?$StrTraitMFC@DV?$ChTraitsCRT@D@ATL@@@@@ATL@@PBD@Z@4JA 102043e0     VersionInfo.obj
 0004:000013e4       __pRawDllMain              102043e4     nafxcwd:dllmodul.obj
 0004:000014a4       ??_R0?AVCObject@@@8        102044a4     nafxcwd:wincore.obj
 0004:000014c0       ??_R0?AVCCmdTarget@@@8     102044c0     nafxcwd:wincore.obj
 0004:000014e0       ??_R0?AVCWnd@@@8           102044e0     nafxcwd:wincore.obj
 0004:000014f8       ??_R0?AVXAccessible@CWnd@@@8 102044f8     nafxcwd:wincore.obj
 0004:00001520       ??_R0?AVXAccessibleServer@CWnd@@@8 10204520     nafxcwd:wincore.obj
 0004:0000154c       ??_R0PAVCException@@@8     1020454c     nafxcwd:wincore.obj
 0004:0000156c       ??_R0?AVCNoTrackObject@@@8 1020456c     nafxcwd:wincore.obj
 0004:00001590       ??_R0?AV_AFX_HTMLHELP_STATE@@@8 10204590     nafxcwd:wincore.obj
 0004:000015b8       ??_R0?AVCCmdUI@@@8         102045b8     nafxcwd:wincore.obj
 0004:000015d4       ??_R0?AVCTestCmdUI@@@8     102045d4     nafxcwd:wincore.obj
 0004:000015f4       ??_R0PAVCUserException@@@8 102045f4     nafxcwd:wincore.obj
 0004:00001618       ??_R0?AUIOleWindow@@@8     10204618     nafxcwd:wincore.obj
 0004:00001638       ??_R0?AUIAccessibleProxy@@@8 10204638     nafxcwd:wincore.obj
 0004:00001660       ??_R0?AUIUnknown@@@8       10204660     nafxcwd:wincore.obj
 0004:0000167c       ??_R0?AUIDispatch@@@8      1020467c     nafxcwd:wincore.obj
 0004:00001698       ??_R0?AUIAccessible@@@8    10204698     nafxcwd:wincore.obj
 0004:000016b8       ??_R0?AV?$IAccessibleProxyImpl@VCAccessibleProxy@ATL@@@ATL@@@8 102046b8     nafxcwd:wincore.obj
 0004:00001708       ??_R0?AVCComObjectRootBase@ATL@@@8 10204708     nafxcwd:wincore.obj
 0004:00001738       ??_R0?AV?$CComObjectRootEx@VCComSingleThreadModel@ATL@@@ATL@@@8 10204738     nafxcwd:wincore.obj
 0004:00001788       ??_R0?AVCAccessibleProxy@ATL@@@8 10204788     nafxcwd:wincore.obj
 0004:000017b4       ??_R0?AV?$CMFCComObject@VCAccessibleProxy@ATL@@@@@8 102047b4     nafxcwd:wincore.obj
 0004:000017f4       ??_R0?AVCStatic@@@8        102047f4     nafxcwd:winctrl1.obj
 0004:00001810       ??_R0?AVCButton@@@8        10204810     nafxcwd:winctrl1.obj
 0004:0000182c       ??_R0?AVCListBox@@@8       1020482c     nafxcwd:winctrl1.obj
 0004:00001848       ??_R0?AVCComboBox@@@8      10204848     nafxcwd:winctrl1.obj
 0004:00001864       ??_R0?AVCEdit@@@8          10204864     nafxcwd:winctrl1.obj
 0004:0000187c       ??_R0?AVCScrollBar@@@8     1020487c     nafxcwd:winctrl1.obj
 0004:0000189c       ??_R0?AVCCheckListBox@@@8  1020489c     nafxcwd:afxinl3.obj
 0004:000018c0       ?_dispatchEntryCount@CCmdTarget@@0IA 102048c0     nafxcwd:cmdtarg.obj
 0004:000018c4       ?_dwStockPropMask@CCmdTarget@@0KA 102048c4     nafxcwd:cmdtarg.obj
 0004:000018c8       ?_eventsinkEntryCount@CCmdTarget@@0IA 102048c8     nafxcwd:cmdtarg.obj
 0004:000018d0       ??_R0?AVCException@@@8     102048d0     nafxcwd:afxinl1.obj
 0004:000018f0       ??_R0?AVCSimpleException@@@8 102048f0     nafxcwd:afxinl1.obj
 0004:00001918       ??_R0?AVCMemoryException@@@8 10204918     nafxcwd:afxinl1.obj
 0004:00001940       ??_R0?AVCNotSupportedException@@@8 10204940     nafxcwd:afxinl1.obj
 0004:0000196c       ??_R0?AVCInvalidArgException@@@8 1020496c     nafxcwd:afxinl1.obj
 0004:00001998       ??_R0?AVCArchiveException@@@8 10204998     nafxcwd:afxinl1.obj
 0004:000019c0       ??_R0?AVCFileException@@@8 102049c0     nafxcwd:afxinl1.obj
 0004:000019e4       ??_R0?AVCDialog@@@8        102049e4     nafxcwd:afxinl1.obj
 0004:00001a00       ??_R0?AVCCommonDialog@@@8  10204a00     nafxcwd:afxinl1.obj
 0004:00001a24       ??_R0?AVCRectTracker@@@8   10204a24     nafxcwd:afxinl1.obj
 0004:00001a44       ??_R0?AVCBitmapButton@@@8  10204a44     nafxcwd:afxinl1.obj
 0004:00001a68       ??_R0?AVCResourceException@@@8 10204a68     nafxcwd:afxinl2.obj
 0004:00001a90       ??_R0?AVCUserException@@@8 10204a90     nafxcwd:afxinl2.obj
 0004:00001ab4       ??_R0?AVCGdiObject@@@8     10204ab4     nafxcwd:afxinl2.obj
 0004:00001ad4       ??_R0?AVCPen@@@8           10204ad4     nafxcwd:afxinl2.obj
 0004:00001aec       ??_R0?AVCBrush@@@8         10204aec     nafxcwd:afxinl2.obj
 0004:00001b08       ??_R0?AVCFont@@@8          10204b08     nafxcwd:afxinl2.obj
 0004:00001b20       ??_R0?AVCBitmap@@@8        10204b20     nafxcwd:afxinl2.obj
 0004:00001b3c       ??_R0?AVCPalette@@@8       10204b3c     nafxcwd:afxinl2.obj
 0004:00001b58       ??_R0?AVCRgn@@@8           10204b58     nafxcwd:afxinl2.obj
 0004:00001b70       ??_R0?AVCMenu@@@8          10204b70     nafxcwd:afxinl2.obj
 0004:00001b88       ?_afxNewHandler@@3P6AHI@ZA 10204b88     nafxcwd:afxmem.obj
 0004:00001b8c       ?pfnAllocHook@@3P6GHIHJ@ZA 10204b8c     nafxcwd:afxmem.obj
 0004:00001b90       ??_R0?AVCDC@@@8            10204b90     nafxcwd:wingdi.obj
 0004:00001ba8       ??_R0?AVCClientDC@@@8      10204ba8     nafxcwd:wingdi.obj
 0004:00001bc4       ??_R0?AVCWindowDC@@@8      10204bc4     nafxcwd:wingdi.obj
 0004:00001be0       ??_R0?AVCPaintDC@@@8       10204be0     nafxcwd:wingdi.obj
 0004:00001bfc       ??_R0PAX@8                 10204bfc     nafxcwd:wingdi.obj
 0004:00001c0c       ??_R0PAVCObject@@@8        10204c0c     nafxcwd:wingdi.obj
 0004:00001c28       ??_R0PAVCSimpleException@@@8 10204c28     nafxcwd:wingdi.obj
 0004:00001c50       ??_R0PAVCResourceException@@@8 10204c50     nafxcwd:wingdi.obj
 0004:00001c78       ?classCStringList@CStringList@@2UCRuntimeClass@@A 10204c78     nafxcwd:list_s.obj
 0004:00001c9c       ??_R0?AVCStringList@@@8    10204c9c     nafxcwd:list_s.obj
 0004:00001cbc       ??_R0?AUIAtlStringMgr@ATL@@@8 10204cbc     nafxcwd:strcore.obj
 0004:00001ce4       ??_R0?AVCAfxStringMgr@@@8  10204ce4     nafxcwd:strcore.obj
 0004:00001ddc       ??_R0PAVCOleException@@@8  10204ddc     nafxcwd:olemisc.obj
 0004:00001e00       ??_R0PAVCMemoryException@@@8 10204e00     nafxcwd:except.obj
 0004:00001e28       ??_R0PAVCNotSupportedException@@@8 10204e28     nafxcwd:except.obj
 0004:00001e54       ??_R0PAVCInvalidArgException@@@8 10204e54     nafxcwd:except.obj
 0004:00001e80       ??_R0?AVCWinThread@@@8     10204e80     nafxcwd:thrdcore.obj
 0004:00001ea0       ?bStaticInit@CDocManager@@2HA 10204ea0     nafxcwd:appcore.obj
 0004:00001ea4       ??_R0?AVCWinApp@@@8        10204ea4     nafxcwd:appcore.obj
 0004:00001f68       ??_R0?AVCCommandLineInfo@@@8 10204f68     nafxcwd:appcore.obj
 0004:00001f90       ??_R0?AVCOleObjectFactory@@@8 10204f90     nafxcwd:olefact.obj
 0004:00001fb8       ??_R0?AUIClassFactory@@@8  10204fb8     nafxcwd:olefact.obj
 0004:00001fdc       ??_R0?AUIClassFactory2@@@8 10204fdc     nafxcwd:olefact.obj
 0004:00002000       ??_R0?AVXClassFactory@COleObjectFactory@@@8 10205000     nafxcwd:olefact.obj
 0004:00002038       ??_R0?AUCThreadData@@@8    10205038     nafxcwd:afxtls.obj
 0004:00002058       ??_R0?AVCHandleMap@@@8     10205058     nafxcwd:winhand.obj
 0004:00002078       ??_R0?AV_AFX_THREAD_STATE@@@8 10205078     nafxcwd:afxstate.obj
 0004:000020a0       ??_R0?AVAFX_MODULE_STATE@@@8 102050a0     nafxcwd:afxstate.obj
 0004:000020c8       ??_R0?AVAFX_MODULE_THREAD_STATE@@@8 102050c8     nafxcwd:afxstate.obj
 0004:000020f8       ??_R0?AV_AFX_BASE_MODULE_STATE@@@8 102050f8     nafxcwd:afxstate.obj
 0004:00002124       ??_R0?AVCChevronOwnerDrawMenu@@@8 10205124     nafxcwd:winmenu.obj
 0004:00002150       ??_R0?AVCMapPtrToPtr@@@8   10205150     nafxcwd:map_pp.obj
 0004:00002170       ??_R0?AVCInnerUnknown@@@8  10205170     nafxcwd:oleunk.obj
 0004:00002194       ??_R0?AVCOleException@@@8  10205194     nafxcwd:oleunk.obj
 0004:000021b8       ??_R0?AVCPtrList@@@8       102051b8     nafxcwd:list_p.obj
 0004:000021d4       ??_R0?AV_AFX_CHECKLIST_STATE@@@8 102051d4     nafxcwd:winctrl3.obj
 0004:00002200       ??_R0PAVCArchiveException@@@8 10205200     nafxcwd:arcex.obj
 0004:00002228       ??_R0PAVCFileException@@@8 10205228     nafxcwd:filex.obj
 0004:0000224c       ?classCByteArray@CByteArray@@2UCRuntimeClass@@A 1020524c     nafxcwd:array_b.obj
 0004:00002270       ??_R0?AVCByteArray@@@8     10205270     nafxcwd:array_b.obj
 0004:00002290       ?classCWordArray@CWordArray@@2UCRuntimeClass@@A 10205290     nafxcwd:array_w.obj
 0004:000022b4       ??_R0?AVCWordArray@@@8     102052b4     nafxcwd:array_w.obj
 0004:000022d4       ?classCDWordArray@CDWordArray@@2UCRuntimeClass@@A 102052d4     nafxcwd:array_d.obj
 0004:000022f8       ??_R0?AVCDWordArray@@@8    102052f8     nafxcwd:array_d.obj
 0004:00002318       ??_R0?AVCUIntArray@@@8     10205318     nafxcwd:array_u.obj
 0004:00002338       ??_R0?AVCPtrArray@@@8      10205338     nafxcwd:array_p.obj
 0004:00002354       ?classCObArray@CObArray@@2UCRuntimeClass@@A 10205354     nafxcwd:array_o.obj
 0004:00002378       ??_R0?AVCObArray@@@8       10205378     nafxcwd:array_o.obj
 0004:00002394       ?classCStringArray@CStringArray@@2UCRuntimeClass@@A 10205394     nafxcwd:array_s.obj
 0004:000023b8       ??_R0?AVCStringArray@@@8   102053b8     nafxcwd:array_s.obj
 0004:000023d8       ??_R0?AVCMapWordToPtr@@@8  102053d8     nafxcwd:map_wp.obj
 0004:000023fc       ??_R0?AVCMapPtrToWord@@@8  102053fc     nafxcwd:map_pw.obj
 0004:00002420       ?classCMapWordToOb@CMapWordToOb@@2UCRuntimeClass@@A 10205420     nafxcwd:map_wo.obj
 0004:00002444       ??_R0?AVCMapWordToOb@@@8   10205444     nafxcwd:map_wo.obj
 0004:00002464       ??_R0?AVCMapStringToPtr@@@8 10205464     nafxcwd:map_sp.obj
 0004:00002488       ?classCMapStringToOb@CMapStringToOb@@2UCRuntimeClass@@A 10205488     nafxcwd:map_so.obj
 0004:000024ac       ??_R0?AVCMapStringToOb@@@8 102054ac     nafxcwd:map_so.obj
 0004:000024d0       ?classCMapStringToString@CMapStringToString@@2UCRuntimeClass@@A 102054d0     nafxcwd:map_ss.obj
 0004:000024f4       ??_R0?AVCMapStringToString@@@8 102054f4     nafxcwd:map_ss.obj
 0004:0000251c       ??_R0?AVCFileDialog@@@8    1020551c     nafxcwd:dlgfile.obj
 0004:0000253c       ?_afxPropSheetButtons@@3PAHA 1020553c     nafxcwd:dlgprop.obj
 0004:00002550       ??_R0?AVCPropertyPage@@@8  10205550     nafxcwd:dlgprop.obj
 0004:00002574       ??_R0?AVCPropertySheet@@@8 10205574     nafxcwd:dlgprop.obj
 0004:00002598       ??_R0?AVCControlBar@@@8    10205598     nafxcwd:barcore.obj
 0004:000025b8       ?_afxComCtlVersion@@3HA    102055b8     nafxcwd:bartool.obj
 0004:000025bc       ?_afxDropDownWidth@@3HA    102055bc     nafxcwd:bartool.obj
 0004:000025c4       ??_R0?AVCToolBar@@@8       102055c4     nafxcwd:bartool.obj
 0004:000025e0       ??_R0?AVCToolCmdUI@@@8     102055e0     nafxcwd:bartool.obj
 0004:00002600       ??_R0?AVCFrameWnd@@@8      10205600     nafxcwd:winfrm.obj
 0004:0000261c       ??_R0?AVCRecentFileList@@@8 1020561c     nafxcwd:filelist.obj
 0004:00002640       ??_R0?AVCDocTemplate@@@8   10205640     nafxcwd:doctempl.obj
 0004:00002660       ??_R0?AVCFile@@@8          10205660     nafxcwd:filecore.obj
 0004:00002678       ??_R0?AVCDocManager@@@8    10205678     nafxcwd:docmgr.obj
 0004:00002698       ??_R0?AVCNewTypeDlg@@@8    10205698     nafxcwd:docmgr.obj
 0004:000026d8       ??_R0PAVCOleDispatchException@@@8 102056d8     nafxcwd:oledisp2.obj
 0004:00002704       ??_R0?AV_AFX_COLOR_STATE@@@8 10205704     nafxcwd:dlgclr.obj
 0004:0000272c       ??_R0?AVCColorDialog@@@8   1020572c     nafxcwd:dlgclr.obj
 0004:0000274c       ??_R0?AU_AFX_PROPPAGEFONTINFO@@@8 1020574c     nafxcwd:ccdata.obj
 0004:00002778       ??_R0?AVCDragListBox@@@8   10205778     nafxcwd:winctrl2.obj
 0004:00002798       ??_R0?AVCToolBarCtrl@@@8   10205798     nafxcwd:winctrl2.obj
 0004:000027b8       ??_R0?AVCStatusBarCtrl@@@8 102057b8     nafxcwd:winctrl2.obj
 0004:000027dc       ??_R0?AVCListCtrl@@@8      102057dc     nafxcwd:winctrl2.obj
 0004:000027f8       ??_R0?AVCTreeCtrl@@@8      102057f8     nafxcwd:winctrl2.obj
 0004:00002814       ??_R0?AVCSpinButtonCtrl@@@8 10205814     nafxcwd:winctrl2.obj
 0004:00002838       ??_R0?AVCSliderCtrl@@@8    10205838     nafxcwd:winctrl2.obj
 0004:00002858       ??_R0?AVCProgressCtrl@@@8  10205858     nafxcwd:winctrl2.obj
 0004:0000287c       ??_R0?AVCHeaderCtrl@@@8    1020587c     nafxcwd:winctrl2.obj
 0004:0000289c       ??_R0?AVCHotKeyCtrl@@@8    1020589c     nafxcwd:winctrl2.obj
 0004:000028bc       ??_R0?AVCTabCtrl@@@8       102058bc     nafxcwd:winctrl2.obj
 0004:000028d8       ??_R0?AVCAnimateCtrl@@@8   102058d8     nafxcwd:winctrl2.obj
 0004:000028f8       ??_R0?AVCRichEditCtrl@@@8  102058f8     nafxcwd:winctrl2.obj
 0004:0000291c       ??_R0?AVCImageList@@@8     1020591c     nafxcwd:winctrl2.obj
 0004:0000293c       ??_R0?AVCToolTipCtrl@@@8   1020593c     nafxcwd:tooltip.obj
 0004:0000295c       ??_R0?AVCDockContext@@@8   1020595c     nafxcwd:dockcont.obj
 0004:0000297c       ??_R0?AUISequentialStream@@@8 1020597c     nafxcwd:arcstrm.obj
 0004:000029a4       ??_R0?AUIStream@@@8        102059a4     nafxcwd:arcstrm.obj
 0004:000029c0       ??_R0?AVCArchiveStream@@@8 102059c0     nafxcwd:arcstrm.obj
 0004:000029e4       ??_R0?AVCIPAddressCtrl@@@8 102059e4     nafxcwd:winctrl6.obj
 0004:00002a08       ??_R0?AVCComboBoxEx@@@8    10205a08     nafxcwd:winctrl6.obj
 0004:00002a28       ??_R0?AVCReBarCtrl@@@8     10205a28     nafxcwd:winctrl6.obj
 0004:00002a48       ??_R0?AVCReBar@@@8         10205a48     nafxcwd:barcool.obj
 0004:00002a64       ??_R0?AVCDocument@@@8      10205a64     nafxcwd:doccore.obj
 0004:00002a80       ??_R0?AVCMirrorFile@@@8    10205a80     nafxcwd:doccore.obj
 0004:00002aa0       ?afxTraceEnabled@@3HA      10205aa0     nafxcwd:dumpinit.obj
 0004:00002aa4       ??_R0?AV_AFX_DEBUG_STATE@@@8 10205aa4     nafxcwd:dumpinit.obj
 0004:00002acc       ??_R0?AVCOleDispatchImpl@@@8 10205acc     nafxcwd:oledisp1.obj
 0004:00002af4       ??_R0?AVCOleDispatchException@@@8 10205af4     nafxcwd:oledisp1.obj
 0004:00002b20       ??_R0?AV_AFX_EDIT_STATE@@@8 10205b20     nafxcwd:winctrl4.obj
 0004:00002b44       ??_R0?AV_AFX_RICHEDIT_STATE@@@8 10205b44     nafxcwd:winctrl4.obj
 0004:00002b6c       ??_R0?AVCDockBar@@@8       10205b6c     nafxcwd:bardock.obj
 0004:00002b88       ??_R0?AVCMiniFrameWnd@@@8  10205b88     nafxcwd:bardock.obj
 0004:00002bac       ??_R0?AVCMiniDockFrameWnd@@@8 10205bac     nafxcwd:bardock.obj
 0004:00002bd4       ??_R0?AVCTypeLibCacheMap@@@8 10205bd4     nafxcwd:oletyplb.obj
 0004:00002bfc       ??_R0?AVCView@@@8          10205bfc     nafxcwd:viewedit.obj
 0004:00002c14       ??_R0?AVCCtrlView@@@8      10205c14     nafxcwd:viewedit.obj
 0004:00002c30       ??_R0?AVCEditView@@@8      10205c30     nafxcwd:viewedit.obj
 0004:00002c4c       ??_R0?AVCPrintingDialog@@@8 10205c4c     nafxcwd:viewprnt.obj
 0004:00002c70       ??_R0?AV_AFX_WIN_STATE@@@8 10205c70     nafxcwd:viewprnt.obj
 0004:00002c94       ??_R0?AVCFindReplaceDialog@@@8 10205c94     nafxcwd:dlgfr.obj
 0004:00002cbc       ??_R0?AVCPageSetupDialog@@@8 10205cbc     nafxcwd:dlgprnt.obj
 0004:00002ce4       ??_R0?AVCPrintDialog@@@8   10205ce4     nafxcwd:dlgprnt.obj
 0004:00002d04       __NLG_Destination          10205d04     libcmtd:exsup.obj
 0004:00002d18       __crtAssertBusy            10205d18     libcmtd:dbgrpt.obj
 0004:00002d1c       __CrtDbgMode               10205d1c     libcmtd:dbgrpt.obj
 0004:00002d28       __CrtDbgFile               10205d28     libcmtd:dbgrpt.obj
 0004:00002d50       __fltused                  10205d50     libcmtd:fpinit.obj
 0004:00002d54       __ldused                   10205d54     libcmtd:fpinit.obj
 0004:00002d58       __FPinit                   10205d58     libcmtd:fpinit.obj
 0004:00002d5c       __FPmtinit                 10205d5c     libcmtd:fpinit.obj
 0004:00002d60       __FPmtterm                 10205d60     libcmtd:fpinit.obj
 0004:00002d70       __crtDbgFlag               10205d70     libcmtd:dbgheap.obj
 0004:00002d78       __crtBreakAlloc            10205d78     libcmtd:dbgheap.obj
 0004:00002d9c       __aexit_rtn                10205d9c     libcmtd:dllcrt0.obj
 0004:00002da0       ___security_cookie         10205da0     libcmtd:seccook.obj
 0004:00002da4       ??_R0?AVtype_info@@@8      10205da4     libcmtd:typinfo.obj
 0004:00002dc0       ?__pMyUnhandledExceptionFilter@@3PAXA 10205dc0     libcmtd:throw.obj
 0004:000030b0       ___tlsindex                102060b0     libcmtd:tidtable.obj
 0004:000030b4       ?__pInconsistency@@3P6AXXZA 102060b4     libcmtd:hooks.obj
 0004:000030b8       ?_RTC_ErrorLevels@@3PAHA   102060b8     libcmtd:error.obj
 0004:00003260       __cfltcvt_tab              10206260     libcmtd:cmiscdat.obj
 0004:0000327c       ___nullstring              1020627c     libcmtd:output.obj
 0004:00003280       ___wnullstring             10206280     libcmtd:output.obj
 0004:00003290       ___initiallocinfo          10206290     libcmtd:setlocal.obj
 0004:000032e4       ___ptlocinfo               102062e4     libcmtd:setlocal.obj
 0004:00003470       ___lc_category             10206470     libcmtd:setlocal.obj
 0004:000034c8       __iob                      102064c8     libcmtd:_file.obj
 0004:000037c8       __pfnAllocHook             102067c8     libcmtd:dbghook.obj
 0004:000037cc       __amblksiz                 102067cc     libcmtd:heapinit.obj
 0004:000037d0       ___badioinfo               102067d0     libcmtd:ioinit.obj
 0004:00003800       __XcptActTab               10206800     libcmtd:winxfltr.obj
 0004:00003878       __First_FPE_Indx           10206878     libcmtd:winxfltr.obj
 0004:0000387c       __Num_FPE                  1020687c     libcmtd:winxfltr.obj
 0004:00003880       __XcptActTabSize           10206880     libcmtd:winxfltr.obj
 0004:00003884       __XcptActTabCount          10206884     libcmtd:winxfltr.obj
 0004:00003960       ___lc_clike                10206960     libcmtd:nlsdata2.obj
 0004:00003970       ___mb_cur_max              10206970     libcmtd:nlsdata1.obj
 0004:00003974       ___decimal_point           10206974     libcmtd:nlsdata1.obj
 0004:00003978       ___decimal_point_length    10206978     libcmtd:nlsdata1.obj
 0004:000039cc       __pctype                   102069cc     libcmtd:ctype.obj
 0004:000039d0       __pwctype                  102069d0     libcmtd:ctype.obj
 0004:000039d8       ___lc_time_curr            102069d8     libcmtd:strftime.obj
 0004:000039e0       ___lc_time_c               102069e0     libcmtd:strftime.obj
 0004:00003abc       ___lconv_static_decimal    10206abc     libcmtd:lconv.obj
 0004:00003ac0       ___lconv_c                 10206ac0     libcmtd:lconv.obj
 0004:00003af0       ___lconv                   10206af0     libcmtd:lconv.obj
 0004:00003b00       __timezone                 10206b00     libcmtd:timeset.obj
 0004:00003b04       __daylight                 10206b04     libcmtd:timeset.obj
 0004:00003b08       __dstbias                  10206b08     libcmtd:timeset.obj
 0004:00003b90       __tzname                   10206b90     libcmtd:timeset.obj
 0004:00003be0       __lpdays                   10206be0     libcmtd:days.obj
 0004:00003c14       __days                     10206c14     libcmtd:days.obj
 0004:00003c60       __pow10pos                 10206c60     libcmtd:constpow.obj
 0004:00003dc0       __pow10neg                 10206dc0     libcmtd:constpow.obj
 0004:00003fa8       ?rcDefault@CWindow@ATL@@2UtagRECT@@A 10206fa8     atlsd:atltrace.obj
 0004:00003fbc       ?g_pszUpdateEventName@@3PBDB 10206fbc     atlsd:Externs.obj
 0004:00003fc0       ?g_pszAllocFileMapName@@3PBDB 10206fc0     atlsd:Externs.obj
 0004:00003fc4       ?g_pszKernelObjFmt@@3PBDB  10206fc4     atlsd:Externs.obj
 0004:00003fcc       ??_R0?AVCAtlException@ATL@@@8 10206fcc     atlsd:Externs.obj
 0004:00004000       __pmatherr                 10207000     libcmtd:libm_error.obj
 0004:0000400c       __matherr_flag             1020700c     libcmtd:matherr.obj
 0004:00004128       __d_inf                    10207128     libcmtd:util.obj
 0004:00004130       __d_ind                    10207130     libcmtd:util.obj
 0004:00004138       __d_max                    10207138     libcmtd:util.obj
 0004:00004140       __d_min                    10207140     libcmtd:util.obj
 0004:00004148       __d_mzero                  10207148     libcmtd:util.obj
 0004:00004340       ?pDlgModeLess@@3PAVCMiniXDlg@@A 10207340     MiniXAPI.obj
 0004:00004348       ?isFirstMonitorAve@@3_NA   10207348     MiniXDlg.obj
 0004:00004350       ?iMicroAmpsInAVE@@3PANA    10207350     MiniXDlg.obj
 0004:00004388       ?iVoltsInAVE@@3PANA        10207388     MiniXDlg.obj
 0004:000043c0       ?fqi@@3PANA                102073c0     MiniXDlg.obj
 0004:0000c3c0       ?fqr@@3PANA                1020f3c0     MiniXDlg.obj
 0004:000143c0       ?pw@@3PANA                 102173c0     MiniXDlg.obj
 0004:0001c3c0       ?volts@@3PANA              1021f3c0     MiniXDlg.obj
 0004:0001c7d0       ?port_busy@@3HA            1021f7d0     MiniXDlg.obj
 0004:0001c7d4       ?numDevs@@3KA              1021f7d4     MiniXDlg.obj
 0004:0001c7d8       ?BufPtrs@@3PAPADA          1021f7d8     MiniXDlg.obj
 0004:0001c8d8       ?mpsse_ready@@3HA          1021f8d8     MiniXDlg.obj
 0004:0001c8dc       ?drivers_loaded@@3HA       1021f8dc     MiniXDlg.obj
 0004:0001c8e0       ?crTextActive@@3KA         1021f8e0     MiniXDlg.obj
 0004:0001c8e4       ?crText@@3KA               1021f8e4     MiniXDlg.obj
 0004:0001c8e8       ?crBkGndActive@@3KA        1021f8e8     MiniXDlg.obj
 0004:0001c8ec       ?crBkGnd@@3KA              1021f8ec     MiniXDlg.obj
 0004:0001c8f0       ?indInterlockClear@@3HA    1021f8f0     MiniXDlg.obj
 0004:0001c8f4       ?indInterlockStatus@@3EA   1021f8f4     MiniXDlg.obj
 0004:0001c8f5       ?indMonMiniXRdyStatus@@3EA 1021f8f5     MiniXDlg.obj
 0004:0001c8f6       ?indCtrlHvEnStatus@@3_NA   1021f8f6     MiniXDlg.obj
 0004:0001c8f7       ?gP1statebyte@@3EA         1021f8f7     MiniXDlg.obj
 0004:0001c8f8       ?gP0statebyte@@3EA         1021f8f8     MiniXDlg.obj
 0004:0001c8f9       ?gP1dirbyte@@3EA           1021f8f9     MiniXDlg.obj
 0004:0001c8fa       ?gP0dirbyte@@3EA           1021f8fa     MiniXDlg.obj
 0004:0001c8fb       ?HighByteHiLowState@@3EA   1021f8fb     MiniXDlg.obj
 0004:0001c8fc       ?LowByteHiLowState@@3EA    1021f8fc     MiniXDlg.obj
 0004:0001c900       ?maxint@@3HA               1021f900     MiniXDlg.obj
 0004:0001c904       ?ret_device_str@@3V?$CStringT@DV?$StrTraitMFC@DV?$ChTraitsCRT@D@ATL@@@@@ATL@@A 1021f904     MiniXDlg.obj
 0004:00021700       ?theApp@@3VCMiniXDLLApp@@A 10224700     MiniXDLL.obj
 0004:000217c0       ?s_pLog@CFixedStringMgr@ATL@@2PAVIFixedStringLog@2@A 102247c0     stdafx.obj
 0004:000217c4       ?m_bInitFailed@CAtlBaseModule@ATL@@2_NA 102247c4     stdafx.obj
 0004:000217c8       ?s_pfnPrevHook@CNoUIAssertHook@ATL@@0P6AHHPADPAH@ZA 102247c8     stdafx.obj
 0004:000217cc       ?s_bWin9x@?1??_AtlInstallStringThunk@ATL@@YAXPAPAXPAX1@Z@4_NA 102247cc     stdafx.obj
 0004:000217d0       ??_B?1??_AtlInstallStringThunk@ATL@@YAXPAPAXPAX1@Z@51 102247d0     stdafx.obj
 0004:000217d4       __afxForceEXCLUDE          102247d4     nafxcwd:nolib.obj
 0004:000217d8       __afxForceUSRDLL           102247d8     nafxcwd:dllmodul.obj
 0004:000217dc       ?_afxTermDllState@@3DA     102247dc     nafxcwd:dllmodul.obj
 0004:000217e0       ?_afxGotScrollLines@@3HA   102247e0     nafxcwd:wincore.obj
 0004:000217e8       ?_afxMsgCache@@3PAUAFX_MSG_CACHE@@A 102247e8     nafxcwd:wincore.obj
 0004:00022fe8       _g_pfnGetSystemMetrics     10225fe8     nafxcwd:wincore.obj
 0004:00022fec       _g_pfnMonitorFromWindow    10225fec     nafxcwd:wincore.obj
 0004:00022ff0       _g_pfnMonitorFromRect      10225ff0     nafxcwd:wincore.obj
 0004:00022ff4       _g_pfnMonitorFromPoint     10225ff4     nafxcwd:wincore.obj
 0004:00022ff8       _g_pfnGetMonitorInfo       10225ff8     nafxcwd:wincore.obj
 0004:00022ffc       _g_pfnEnumDisplayMonitors  10225ffc     nafxcwd:wincore.obj
 0004:00023000       _g_pfnEnumDisplayDevices   10226000     nafxcwd:wincore.obj
 0004:00023004       _g_fMultiMonInitDone       10226004     nafxcwd:wincore.obj
 0004:00023008       _g_fMultimonPlatformNT     10226008     nafxcwd:wincore.obj
 0004:0002300c       ?m_pfnNotifyWinEvent@CWnd@@1P6GXKPAUHWND__@@JJ@ZA 1022600c     nafxcwd:wincore.obj
 0004:00023010       ?m_nMsgDragList@CWnd@@1IB  10226010     nafxcwd:wincore.obj
 0004:00023018       ?wndTop@CWnd@@2V1@B        10226018     nafxcwd:wincore.obj
 0004:00023068       ?wndBottom@CWnd@@2V1@B     10226068     nafxcwd:wincore.obj
 0004:000230b8       ?wndTopMost@CWnd@@2V1@B    102260b8     nafxcwd:wincore.obj
 0004:00023108       ?wndNoTopMost@CWnd@@2V1@B  10226108     nafxcwd:wincore.obj
 0004:00023674       ?_afxHtmlHelpState@@3V?$CProcessLocal@V_AFX_HTMLHELP_STATE@@@@A 10226674     nafxcwd:wincore.obj
 0004:00023678       ?_afxMemoryLeakOverride@@3HA 10226678     nafxcwd:afxmem.obj
 0004:0002367c       ?pfnCrtAllocHook@@3P6AHHPAXIHJPBEH@ZA 1022667c     nafxcwd:afxmem.obj
 0004:00023680       ?_simpleResourceException@@3VCResourceException@@A 10226680     nafxcwd:wingdi.obj
 0004:00023720       ?_simpleUserException@@3VCUserException@@A 10226720     nafxcwd:wingdi.obj
 0004:00023800       ?_init_CStringList@@3UAFX_CLASSINIT@@A 10226800     nafxcwd:list_s.obj
 0004:00023804       ?afxStringManager@@3VCAfxStringMgr@@A 10226804     nafxcwd:strcore.obj
 0004:00023820       ?_simpleMemoryException@@3VCMemoryException@@A 10226820     nafxcwd:except.obj
 0004:000238c0       ?_simpleNotSupportedException@@3VCNotSupportedException@@A 102268c0     nafxcwd:except.obj
 0004:00023960       ?_simpleInvalidArgException@@3VCInvalidArgException@@A 10226960     nafxcwd:except.obj
 0004:00023a60       ?pStaticDocManager@CDocManager@@2PAV1@A 10226a60     nafxcwd:appcore.obj
 0004:00023a64       ?pStaticList@CDocManager@@2PAVCPtrList@@A 10226a64     nafxcwd:appcore.obj
 0004:00023a6c       ?_afxWinState@@3V?$CProcessLocal@V_AFX_WIN_STATE@@@@A 10226a6c     nafxcwd:appcore.obj
 0004:00023a70       ?_afxTlsRef@@3JA           10226a70     nafxcwd:afxtls.obj
 0004:00023a74       ?_afxThreadData@@3PAVCThreadSlotData@@A 10226a74     nafxcwd:afxtls.obj
 0004:00023a78       ?__afxThreadData@@3PAEA    10226a78     nafxcwd:afxtls.obj
 0004:00023ab8       ?traceMultiApp@@3VCTraceCategory@ATL@@A 10226ab8     nafxcwd:appinit.obj
 0004:00023abc       ?traceAppMsg@@3VCTraceCategory@ATL@@A 10226abc     nafxcwd:appinit.obj
 0004:00023ac0       ?traceWinMsg@@3VCTraceCategory@ATL@@A 10226ac0     nafxcwd:appinit.obj
 0004:00023ac4       ?traceCmdRouting@@3VCTraceCategory@ATL@@A 10226ac4     nafxcwd:appinit.obj
 0004:00023ac8       ?traceOle@@3VCTraceCategory@ATL@@A 10226ac8     nafxcwd:appinit.obj
 0004:00023acc       ?traceDatabase@@3VCTraceCategory@ATL@@A 10226acc     nafxcwd:appinit.obj
 0004:00023ad0       ?traceInternet@@3VCTraceCategory@ATL@@A 10226ad0     nafxcwd:appinit.obj
 0004:00023ad4       ?traceDumpContext@@3VCTraceCategory@ATL@@A 10226ad4     nafxcwd:appinit.obj
 0004:00023ad8       ?traceMemory@@3VCTraceCategory@ATL@@A 10226ad8     nafxcwd:appinit.obj
 0004:00023adc       ?traceGdi@@3VCTraceCategory@ATL@@A 10226adc     nafxcwd:appinit.obj
 0004:00023ae0       ?traceUser@@3VCTraceCategory@ATL@@A 10226ae0     nafxcwd:appinit.obj
 0004:00023ae4       ?traceKernel@@3VCTraceCategory@ATL@@A 10226ae4     nafxcwd:appinit.obj
 0004:00023ae8       ?traceHtml@@3VCTraceCategory@ATL@@A 10226ae8     nafxcwd:appinit.obj
 0004:00023aec       ?traceSocket@@3VCTraceCategory@ATL@@A 10226aec     nafxcwd:appinit.obj
 0004:00023afc       ?_afxThreadState@@3V?$CThreadLocal@V_AFX_THREAD_STATE@@@@A 10226afc     nafxcwd:afxstate.obj
 0004:00023b00       ?_afxBaseModuleState@@3V?$CProcessLocal@V_AFX_BASE_MODULE_STATE@@@@A 10226b00     nafxcwd:afxstate.obj
 0004:00023b08       ?_afxResourceLocked@@3PAHA 10226b08     nafxcwd:afxcrit.obj
 0004:00023b60       ?_afxLockInit@@3PAHA       10226b60     nafxcwd:afxcrit.obj
 0004:00023bb4       ?_afxLockInitLock@@3U_RTL_CRITICAL_SECTION@@A 10226bb4     nafxcwd:afxcrit.obj
 0004:00023bd0       ?_afxResourceLock@@3PAU_RTL_CRITICAL_SECTION@@A 10226bd0     nafxcwd:afxcrit.obj
 0004:00023dbc       ?_afxCriticalInit@@3HA     10226dbc     nafxcwd:afxcrit.obj
 0004:00023dc0       ?WM_DESTROYMODELESS@CDHtmlDialog@@1IA 10226dc0     nafxcwd:objcore.obj
 0004:00023dc4       ?ATL_CREATE_OBJECT@CComApartment@ATL@@2IA 10226dc4     nafxcwd:objcore.obj
 0004:00023dc8       ?_pModule@ATL@@3PAVCComModule@1@A 10226dc8     nafxcwd:objcore.obj
 0004:00023dcc       ?m_libid@CAtlModule@ATL@@2U_GUID@@A 10226dcc     nafxcwd:objcore.obj
 0004:00023de0       ?_pAtlModule@ATL@@3PAVCAtlModule@1@A 10226de0     nafxcwd:objcore.obj
 0004:00023de4       ?_pPerfUnRegFunc@ATL@@3P6AJXZA 10226de4     nafxcwd:objcore.obj
 0004:00023de8       ?_pPerfRegFunc@ATL@@3P6AJPAUHINSTANCE__@@@ZA 10226de8     nafxcwd:objcore.obj
 0004:00023dec       ?_pAtlAutoThreadModule@ATL@@3PAUIAtlAutoThreadModule@1@A 10226dec     nafxcwd:objcore.obj
 0004:00023df0       ?_AtlWinModule@ATL@@3VCAtlWinModule@1@A 10226df0     nafxcwd:objcore.obj
 0004:00023e24       ?_afxDBCS@@3HB             10226e24     nafxcwd:afxdbcs.obj
 0004:00023e28       ?afxData@@3UAUX_DATA@@A    10226e28     nafxcwd:auxdata.obj
 0004:00023f10       ?pfnIsAppThemed@?1??IsAppThemed@_ThemeHelper@@SAHXZ@4P6GHXZA 10226f10     nafxcwd:winctrl3.obj
 0004:00023f14       ?$S6@?1??IsAppThemed@_ThemeHelper@@SAHXZ@4IA 10226f14     nafxcwd:winctrl3.obj
 0004:00023f18       ?hThemeDll@?1??GetProc@_ThemeHelper@@SAPAXPBDPAX@Z@4PAUHINSTANCE__@@A 10226f18     nafxcwd:winctrl3.obj
 0004:00023f1c       ?$S5@?1??GetProc@_ThemeHelper@@SAPAXPBDPAX@Z@4IA 10226f1c     nafxcwd:winctrl3.obj
 0004:00023f20       ?pfnOpenThemeData@?1??OpenThemeData@_ThemeHelper@@SAPAXPAUHWND__@@PB_W@Z@4P6GPAX01@ZA 10226f20     nafxcwd:winctrl3.obj
 0004:00023f24       ?$S7@?1??OpenThemeData@_ThemeHelper@@SAPAXPAUHWND__@@PB_W@Z@4IA 10226f24     nafxcwd:winctrl3.obj
 0004:00023f28       ?pfnCloseThemeData@?1??CloseThemeData@_ThemeHelper@@SAJPAX@Z@4P6GJ0@ZA 10226f28     nafxcwd:winctrl3.obj
 0004:00023f2c       ?$S8@?1??CloseThemeData@_ThemeHelper@@SAJPAX@Z@4IA 10226f2c     nafxcwd:winctrl3.obj
 0004:00023f30       ?pfnDrawThemeBackground@?1??DrawThemeBackground@_ThemeHelper@@SAJPAXPAUHDC__@@HHPBUtagRECT@@2@Z@4P6GJ01HH22@ZA 10226f30     nafxcwd:winctrl3.obj
 0004:00023f34       ?$S9@?1??DrawThemeBackground@_ThemeHelper@@SAJPAXPAUHDC__@@HHPBUtagRECT@@2@Z@4IA 10226f34     nafxcwd:winctrl3.obj
 0004:00023f38       ?pfnGetThemePartSize@?1??GetThemePartSize@_ThemeHelper@@SAJPAXPAUHDC__@@HHPAUtagRECT@@W4THEMESIZE@@PAUtagSIZE@@@Z@4P6GJ01HH234@ZA 10226f38     nafxcwd:winctrl3.obj
 0004:00023f3c       ?$S10@?1??GetThemePartSize@_ThemeHelper@@SAJPAXPAUHDC__@@HHPAUtagRECT@@W4THEMESIZE@@PAUtagSIZE@@@Z@4IA 10226f3c     nafxcwd:winctrl3.obj
 0004:00023f40       ?_afxChecklistState@@3V?$CProcessLocal@V_AFX_CHECKLIST_STATE@@@@A 10226f40     nafxcwd:winctrl3.obj
 0004:00023f44       ?_init_CByteArray@@3UAFX_CLASSINIT@@A 10226f44     nafxcwd:array_b.obj
 0004:00023f45       ?_init_CWordArray@@3UAFX_CLASSINIT@@A 10226f45     nafxcwd:array_w.obj
 0004:00023f46       ?_init_CDWordArray@@3UAFX_CLASSINIT@@A 10226f46     nafxcwd:array_d.obj
 0004:00023f47       ?_init_CObArray@@3UAFX_CLASSINIT@@A 10226f47     nafxcwd:array_o.obj
 0004:00023f48       ?_init_CStringArray@@3UAFX_CLASSINIT@@A 10226f48     nafxcwd:array_s.obj
 0004:00023f49       ?_init_CMapWordToOb@@3UAFX_CLASSINIT@@A 10226f49     nafxcwd:map_wo.obj
 0004:00023f4a       ?_init_CMapStringToOb@@3UAFX_CLASSINIT@@A 10226f4a     nafxcwd:map_so.obj
 0004:00023f4b       ?_init_CMapStringToString@@3UAFX_CLASSINIT@@A 10226f4b     nafxcwd:map_ss.obj
 0004:00023f4c       ?_afxMsgLBSELCHANGE@@3IA   10226f4c     nafxcwd:dlgcomm.obj
 0004:00023f50       ?_afxMsgSHAREVI@@3IA       10226f50     nafxcwd:dlgcomm.obj
 0004:00023f54       ?_afxMsgFILEOK@@3IA        10226f54     nafxcwd:dlgcomm.obj
 0004:00023f58       ?_afxMsgCOLOROK@@3IA       10226f58     nafxcwd:dlgcomm.obj
 0004:00023f5c       ?_afxMsgHELP@@3IA          10226f5c     nafxcwd:dlgcomm.obj
 0004:00023f60       ?_afxMsgSETRGB@@3IA        10226f60     nafxcwd:dlgcomm.obj
 0004:00023f68       ?_afxTrackerTerm@@3DA      10226f68     nafxcwd:trckrect.obj
 0004:00023f6c       ?_afxHandleSize@@3HA       10226f6c     nafxcwd:trckrect.obj
 0004:00023f70       ?_afxBlackDottedPen@@3PAUHPEN__@@A 10226f70     nafxcwd:trckrect.obj
 0004:00023f74       ?_afxHatchBrush@@3PAUHBRUSH__@@A 10226f74     nafxcwd:trckrect.obj
 0004:00023f78       ?_afxCursors@@3PAPAUHICON__@@A 10226f78     nafxcwd:trckrect.obj
 0004:00023fac       ?_afxWingdixTerm@@3DA      10226fac     nafxcwd:wingdix.obj
 0004:00023fb0       ?_afxHalftoneBrush@@3PAUHBRUSH__@@A 10226fb0     nafxcwd:wingdix.obj
 0004:00023fb4       ?rectDefault@CFrameWnd@@2VCRect@@B 10226fb4     nafxcwd:winfrm.obj
 0004:00023fc4       ?_afxMsgMouseWheel@@3IA    10226fc4     nafxcwd:winfrm.obj
 0004:00023fcc       ?_afxClrState@@3V?$CProcessLocal@V_AFX_COLOR_STATE@@@@A 10226fcc     nafxcwd:dlgclr.obj
 0004:00023fd0       ?_afxPropPageFontInfo@@3V?$CProcessLocal@U_AFX_PROPPAGEFONTINFO@@@@A 10226fd0     nafxcwd:ccdata.obj
 0004:00023fd4       ?afxTraceFlags@@3IA        10226fd4     nafxcwd:dumpinit.obj
 0004:00023fe0       ?afxDump@@3VCDumpContext@@A 10226fe0     nafxcwd:dumpinit.obj
 0004:00023ff0       ?afxDebugState@@3V?$CProcessLocal@V_AFX_DEBUG_STATE@@@@A 10226ff0     nafxcwd:dumpinit.obj
 0004:0002400c       ?_afxRichEditState@@3V?$CProcessLocal@V_AFX_RICHEDIT_STATE@@@@A 1022700c     nafxcwd:winctrl4.obj
 0004:00024010       ?_afxEditState@@3V?$CProcessLocal@V_AFX_EDIT_STATE@@@@A 10227010     nafxcwd:viewedit.obj
 0004:00024014       ?_afxMsgFindReplace@@3IA   10227014     nafxcwd:viewedit.obj
 0004:00024020       ___fastflag                10227020     libcmtd:fpinit.obj
 0004:00024024       __adjust_fdiv              10227024     libcmtd:fpinit.obj
 0004:00024054       __aenvptr                  10227054     libcmtd:dllcrt0.obj
 0004:00024058       __wenvptr                  10227058     libcmtd:dllcrt0.obj
 0004:0002405c       ___error_mode              1022705c     libcmtd:dllcrt0.obj
 0004:00024060       ___app_type                10227060     libcmtd:dllcrt0.obj
 0004:00024068       ___pPurecall               10227068     libcmtd:purevirt.obj
 0004:0002406c       __umaskval                 1022706c     libcmtd:crt0dat.obj
 0004:00024070       __osplatform               10227070     libcmtd:crt0dat.obj
 0004:00024074       __osver                    10227074     libcmtd:crt0dat.obj
 0004:00024078       __winver                   10227078     libcmtd:crt0dat.obj
 0004:0002407c       __winmajor                 1022707c     libcmtd:crt0dat.obj
 0004:00024080       __winminor                 10227080     libcmtd:crt0dat.obj
 0004:00024084       ___argc                    10227084     libcmtd:crt0dat.obj
 0004:00024088       ___argv                    10227088     libcmtd:crt0dat.obj
 0004:0002408c       ___wargv                   1022708c     libcmtd:crt0dat.obj
 0004:00024090       __environ                  10227090     libcmtd:crt0dat.obj
 0004:00024094       ___initenv                 10227094     libcmtd:crt0dat.obj
 0004:00024098       __wenviron                 10227098     libcmtd:crt0dat.obj
 0004:0002409c       ___winitenv                1022709c     libcmtd:crt0dat.obj
 0004:000240a0       __pgmptr                   102270a0     libcmtd:crt0dat.obj
 0004:000240a4       __wpgmptr                  102270a4     libcmtd:crt0dat.obj
 0004:000240a8       __exitflag                 102270a8     libcmtd:crt0dat.obj
 0004:000240ac       __C_Termination_Done       102270ac     libcmtd:crt0dat.obj
 0004:000240b0       __C_Exit_Done              102270b0     libcmtd:crt0dat.obj
 0004:000240cc       _gpFlsAlloc                102270cc     libcmtd:tidtable.obj
 0004:000240d0       _gpFlsGetValue             102270d0     libcmtd:tidtable.obj
 0004:000240d4       _gpFlsSetValue             102270d4     libcmtd:tidtable.obj
 0004:000240d8       _gpFlsFree                 102270d8     libcmtd:tidtable.obj
 0004:000242d4       __cflush                   102272d4     libcmtd:_file.obj
 0004:000242d8       __stdbuf                   102272d8     libcmtd:_sftbuf.obj
 0004:00024344       __newmode                  10227344     libcmtd:_newmode.obj
 0004:00024348       ?_pnhHeap@@3P6AHI@ZA       10227348     libcmtd:handler.obj
 0004:00024490       __adbgmsg                  10227490     libcmtd:crt0msg.obj
 0004:0002449c       ___lc_handle               1022749c     libcmtd:nlsdata2.obj
 0004:000244b4       ___lc_codepage             102274b4     libcmtd:nlsdata2.obj
 0004:000244b8       ___lc_collate_cp           102274b8     libcmtd:nlsdata2.obj
 0004:00024550       ___lconv_static_null       10227550     libcmtd:lconv.obj
 0004:00024554       ___lc_time_intl            10227554     libcmtd:inittime.obj
 0004:00024558       ___lconv_intl              10227558     libcmtd:initmon.obj
 0004:0002455c       ___lc_id                   1022755c     libcmtd:nlsdata3.obj
 0004:000245b4       __commode                  102275b4     libcmtd:ncommode.obj
 0004:000246cc       __fmode                    102276cc     libcmtd:txtmode.obj
 0004:000246dc       ?atlTraceGeneral@ATL@@3VCTraceCategory@1@A 102276dc     atlsd:atltrace.obj
 0004:000246e0       ?atlTraceCOM@ATL@@3VCTraceCategory@1@A 102276e0     atlsd:atltrace.obj
 0004:000246e4       ?atlTraceQI@ATL@@3VCTraceCategory@1@A 102276e4     atlsd:atltrace.obj
 0004:000246e8       ?atlTraceRegistrar@ATL@@3VCTraceCategory@1@A 102276e8     atlsd:atltrace.obj
 0004:000246ec       ?atlTraceRefcount@ATL@@3VCTraceCategory@1@A 102276ec     atlsd:atltrace.obj
 0004:000246f0       ?atlTraceWindowing@ATL@@3VCTraceCategory@1@A 102276f0     atlsd:atltrace.obj
 0004:000246f4       ?atlTraceControls@ATL@@3VCTraceCategory@1@A 102276f4     atlsd:atltrace.obj
 0004:000246f8       ?atlTraceHosting@ATL@@3VCTraceCategory@1@A 102276f8     atlsd:atltrace.obj
 0004:000246fc       ?atlTraceDBClient@ATL@@3VCTraceCategory@1@A 102276fc     atlsd:atltrace.obj
 0004:00024700       ?atlTraceDBProvider@ATL@@3VCTraceCategory@1@A 10227700     atlsd:atltrace.obj
 0004:00024704       ?atlTraceSnapin@ATL@@3VCTraceCategory@1@A 10227704     atlsd:atltrace.obj
 0004:00024708       ?atlTraceNotImpl@ATL@@3VCTraceCategory@1@A 10227708     atlsd:atltrace.obj
 0004:0002470c       ?atlTraceAllocation@ATL@@3VCTraceCategory@1@A 1022770c     atlsd:atltrace.obj
 0004:00024710       ?atlTraceException@ATL@@3VCTraceCategory@1@A 10227710     atlsd:atltrace.obj
 0004:00024714       ?atlTraceTime@ATL@@3VCTraceCategory@1@A 10227714     atlsd:atltrace.obj
 0004:00024718       ?atlTraceCache@ATL@@3VCTraceCategory@1@A 10227718     atlsd:atltrace.obj
 0004:0002471c       ?atlTraceStencil@ATL@@3VCTraceCategory@1@A 1022771c     atlsd:atltrace.obj
 0004:00024720       ?atlTraceString@ATL@@3VCTraceCategory@1@A 10227720     atlsd:atltrace.obj
 0004:00024724       ?atlTraceMap@ATL@@3VCTraceCategory@1@A 10227724     atlsd:atltrace.obj
 0004:00024728       ?atlTraceUtil@ATL@@3VCTraceCategory@1@A 10227728     atlsd:atltrace.obj
 0004:0002472c       ?atlTraceSecurity@ATL@@3VCTraceCategory@1@A 1022772c     atlsd:atltrace.obj
 0004:00024730       ?atlTraceSync@ATL@@3VCTraceCategory@1@A 10227730     atlsd:atltrace.obj
 0004:00024734       ?atlTraceISAPI@ATL@@3VCTraceCategory@1@A 10227734     atlsd:atltrace.obj
 0004:00024738       ?atlTraceUser@ATL@@3VCTraceCategory@1@A 10227738     atlsd:atltrace.obj
 0004:0002473c       ?atlTraceUser2@ATL@@3VCTraceCategory@1@A 1022773c     atlsd:atltrace.obj
 0004:00024740       ?atlTraceUser3@ATL@@3VCTraceCategory@1@A 10227740     atlsd:atltrace.obj
 0004:00024744       ?atlTraceUser4@ATL@@3VCTraceCategory@1@A 10227744     atlsd:atltrace.obj
 0004:00024760       ?g_Allocator@@3VCAtlAllocator@@A 10227760     atlsd:Externs.obj
 0004:00024794       ?s_trace@CTrace@ATL@@2V12@A 10227794     atlsd:Externs.obj
 0004:000247a8       ?_AtlBaseModule@ATL@@3VCAtlBaseModule@1@A 102277a8     atlsd:atlbase.obj
 0004:000247f0       __hmod__OLEACC             102277f0     oleacc:OLEACC.dll
 0004:000247f4       ___puiHead                 102277f4     DelayImp:delayhlp.obj
 0004:000247f8       ___pfnDliFailureHook2      102277f8     DelayImp:delayhk1.obj
 0004:000247fc       ___pfnDliNotifyHook2       102277fc     DelayImp:delayhk2.obj
 0004:00024800       ___use_sse2_mathfcns       10227800     <common>
 0004:00024810       ___sse2_available          10227810     <common>
 0004:00024814       ___ctype1                  10227814     <common>
 0004:00024824       ___ctype1_refcount         10227824     <common>
 0004:00024828       ___lconv_mon_refcount      10227828     <common>
 0004:00024838       ___lconv_intl_refcount     10227838     <common>
 0004:0002483c       ___lconv_num_refcount      1022783c     <common>
 0004:00024848       __nhandle                  10227848     <common>
 0004:000248a0       ___pioinfo                 102278a0     <common>
 0004:000249a0       ___sbh_initialized         102279a0     <common>
 0004:000249b4       ___sbh_pHeaderDefer        102279b4     <common>
 0004:000249b8       ___sbh_cntHeaderList       102279b8     <common>
 0004:000249bc       ___sbh_pHeaderList         102279bc     <common>
 0004:000249c0       ___sbh_threshold           102279c0     <common>
 0004:000249c4       ___sbh_pHeaderScan         102279c4     <common>
 0004:000249c8       ___sbh_sizeHeaderList      102279c8     <common>
 0004:000249cc       ___sbh_indGroupDefer       102279cc     <common>
 0004:000249d0       __crtheap                  102279d0     <common>
 0004:000249e0       ___active_heap             102279e0     <common>
 0004:000249e4       ___piob                    102279e4     <common>
 0004:00024d40       __bufin                    10227d40     <common>
 0004:00025d40       __nstream                  10228d40     <common>
 0004:00025d44       ___setlc_active            10228d44     <common>
 0004:00025d54       ___unguarded_readlc_active 10228d54     <common>
 0004:00025d58       ___mblcid                  10228d58     <common>
 0004:00025dd0       ___ptmbcinfo               10228dd0     <common>
 0004:00025dd4       ___ismbcodepage            10228dd4     <common>
 0004:00025de0       __mbctype                  10228de0     <common>
 0004:00025ee4       ___mbcodepage              10228ee4     <common>
 0004:00025ef0       ___mbulinfo                10228ef0     <common>
 0004:00025f00       __mbcasemap                10228f00     <common>
 0004:00026000       ___env_initialized         10229000     <common>
 0004:00026010       ___onexitend               10229010     <common>
 0004:00026014       ___onexitbegin             10229014     <common>
 0004:00026018       ___mbctype_initialized     10229018     <common>
 0004:0002601c       __acmdln                   1022901c     <common>
 0004:00026028       __pfnDumpClient            10229028     <common>
 0004:00026034       __pfnReportHook            10229034     <common>
 0004:00026044       __pReportHookList          10229044     <common>
 0005:00000000       __IMPORT_DESCRIPTOR_KERNEL32 1022a000     kernel32:KERNEL32.dll
 0005:00000014       __IMPORT_DESCRIPTOR_USER32 1022a014     user32:USER32.dll
 0005:00000028       __IMPORT_DESCRIPTOR_GDI32  1022a028     gdi32:GDI32.dll
 0005:0000003c       __IMPORT_DESCRIPTOR_comdlg32 1022a03c     comdlg32:comdlg32.dll
 0005:00000050       __IMPORT_DESCRIPTOR_WINSPOOL 1022a050     winspool:WINSPOOL.DRV
 0005:00000064       __IMPORT_DESCRIPTOR_ADVAPI32 1022a064     advapi32:ADVAPI32.dll
 0005:00000078       __IMPORT_DESCRIPTOR_SHELL32 1022a078     shell32:SHELL32.dll
 0005:0000008c       __IMPORT_DESCRIPTOR_COMCTL32 1022a08c     comctl32:COMCTL32.dll
 0005:000000a0       __IMPORT_DESCRIPTOR_SHLWAPI 1022a0a0     shlwapi:SHLWAPI.dll
 0005:000000b4       __IMPORT_DESCRIPTOR_ole32  1022a0b4     ole32:ole32.dll
 0005:000000c8       __IMPORT_DESCRIPTOR_OLEAUT32 1022a0c8     oleaut32:OLEAUT32.dll
 0005:000000dc       __IMPORT_DESCRIPTOR_VERSION 1022a0dc     version:VERSION.dll
 0005:000000f0       __NULL_IMPORT_DESCRIPTOR   1022a0f0     kernel32:KERNEL32.dll
 0005:00001164       __imp__OpenThreadToken@16  1022b164     advapi32:ADVAPI32.dll
 0005:00001168       __imp__SetThreadToken@8    1022b168     advapi32:ADVAPI32.dll
 0005:0000116c       __imp__RegCloseKey@4       1022b16c     advapi32:ADVAPI32.dll
 0005:00001170       __imp__RegSetValueA@20     1022b170     advapi32:ADVAPI32.dll
 0005:00001174       __imp__RegOpenKeyA@12      1022b174     advapi32:ADVAPI32.dll
 0005:00001178       __imp__RegQueryValueExA@24 1022b178     advapi32:ADVAPI32.dll
 0005:0000117c       __imp__RegOpenKeyExA@20    1022b17c     advapi32:ADVAPI32.dll
 0005:00001180       __imp__RegQueryValueA@16   1022b180     advapi32:ADVAPI32.dll
 0005:00001184       __imp__RegEnumKeyA@16      1022b184     advapi32:ADVAPI32.dll
 0005:00001188       __imp__RegDeleteKeyA@8     1022b188     advapi32:ADVAPI32.dll
 0005:0000118c       __imp__RegCreateKeyExA@36  1022b18c     advapi32:ADVAPI32.dll
 0005:00001190       __imp__RegSetValueExA@24   1022b190     advapi32:ADVAPI32.dll
 0005:00001194       __imp__RegDeleteValueA@8   1022b194     advapi32:ADVAPI32.dll
 0005:00001198       __imp__RegCreateKeyA@12    1022b198     advapi32:ADVAPI32.dll
 0005:0000119c       __imp__SetFileSecurityA@12 1022b19c     advapi32:ADVAPI32.dll
 0005:000011a0       __imp__GetFileSecurityA@20 1022b1a0     advapi32:ADVAPI32.dll
 0005:000011a4       __imp__RevertToSelf@0      1022b1a4     advapi32:ADVAPI32.dll
 0005:000011a8       \177ADVAPI32_NULL_THUNK_DATA 1022b1a8     advapi32:ADVAPI32.dll
 0005:000011e0       __imp__ImageList_GetDragImage@8 1022b1e0     comctl32:COMCTL32.dll
 0005:000011e4       __imp__ImageList_DragEnter@12 1022b1e4     comctl32:COMCTL32.dll
 0005:000011e8       __imp__ImageList_DragLeave@4 1022b1e8     comctl32:COMCTL32.dll
 0005:000011ec       __imp__ImageList_SetImageCount@8 1022b1ec     comctl32:COMCTL32.dll
 0005:000011f0       __imp__ImageList_Copy@20   1022b1f0     comctl32:COMCTL32.dll
 0005:000011f4       __imp__ImageList_Write@8   1022b1f4     comctl32:COMCTL32.dll
 0005:000011f8       __imp__ImageList_Read@4    1022b1f8     comctl32:COMCTL32.dll
 0005:000011fc       __imp__ImageList_DragShowNolock@4 1022b1fc     comctl32:COMCTL32.dll
 0005:00001200       __imp__ImageList_LoadImageA@28 1022b200     comctl32:COMCTL32.dll
 0005:00001204       __imp__ImageList_Create@20 1022b204     comctl32:COMCTL32.dll
 0005:00001208       __imp__ImageList_Destroy@4 1022b208     comctl32:COMCTL32.dll
 0005:0000120c       __imp__MakeDragList@4      1022b20c     comctl32:COMCTL32.dll
 0005:00001210       __imp__CreatePropertySheetPageA@4 1022b210     comctl32:COMCTL32.dll
 0005:00001214       __imp__DestroyPropertySheetPage@4 1022b214     comctl32:COMCTL32.dll
 0005:00001218       __imp__PropertySheetA@4    1022b218     comctl32:COMCTL32.dll
 0005:0000121c       __imp__InitCommonControls@0 1022b21c     comctl32:COMCTL32.dll
 0005:00001220       __imp__CreateMappedBitmap@20 1022b220     comctl32:COMCTL32.dll
 0005:00001224       __imp__ImageList_SetDragCursorImage@16 1022b224     comctl32:COMCTL32.dll
 0005:00001228       __imp__ImageList_DragMove@8 1022b228     comctl32:COMCTL32.dll
 0005:0000122c       __imp__ImageList_EndDrag@0 1022b22c     comctl32:COMCTL32.dll
 0005:00001230       __imp__ImageList_BeginDrag@16 1022b230     comctl32:COMCTL32.dll
 0005:00001234       __imp__ImageList_SetOverlayImage@12 1022b234     comctl32:COMCTL32.dll
 0005:00001238       __imp__ImageList_GetBkColor@4 1022b238     comctl32:COMCTL32.dll
 0005:0000123c       __imp__ImageList_SetBkColor@8 1022b23c     comctl32:COMCTL32.dll
 0005:00001240       __imp__ImageList_DrawEx@40 1022b240     comctl32:COMCTL32.dll
 0005:00001244       __imp__ImageList_Draw@24   1022b244     comctl32:COMCTL32.dll
 0005:00001248       __imp__ImageList_GetIcon@12 1022b248     comctl32:COMCTL32.dll
 0005:0000124c       __imp__ImageList_ReplaceIcon@12 1022b24c     comctl32:COMCTL32.dll
 0005:00001250       __imp__ImageList_Replace@16 1022b250     comctl32:COMCTL32.dll
 0005:00001254       __imp__ImageList_Remove@8  1022b254     comctl32:COMCTL32.dll
 0005:00001258       __imp__ImageList_AddMasked@12 1022b258     comctl32:COMCTL32.dll
 0005:0000125c       __imp__ImageList_Add@12    1022b25c     comctl32:COMCTL32.dll
 0005:00001260       __imp__ImageList_GetImageCount@4 1022b260     comctl32:COMCTL32.dll
 0005:00001264       __imp__ImageList_Merge@24  1022b264     comctl32:COMCTL32.dll
 0005:00001268       __imp__ImageList_GetImageInfo@12 1022b268     comctl32:COMCTL32.dll
 0005:0000126c       __imp__LBItemFromPt@16     1022b26c     comctl32:COMCTL32.dll
 0005:00001270       \177COMCTL32_NULL_THUNK_DATA 1022b270     comctl32:COMCTL32.dll
 0005:000012b8       __imp__ExtCreatePen@20     1022b2b8     gdi32:GDI32.dll
 0005:000012bc       __imp__CreatePenIndirect@4 1022b2bc     gdi32:GDI32.dll
 0005:000012c0       __imp__CreatePen@12        1022b2c0     gdi32:GDI32.dll
 0005:000012c4       __imp__GetObjectType@4     1022b2c4     gdi32:GDI32.dll
 0005:000012c8       __imp__UnrealizeObject@4   1022b2c8     gdi32:GDI32.dll
 0005:000012cc       __imp__GetStockObject@4    1022b2cc     gdi32:GDI32.dll
 0005:000012d0       __imp__ExtTextOutA@32      1022b2d0     gdi32:GDI32.dll
 0005:000012d4       __imp__CloseEnhMetaFile@4  1022b2d4     gdi32:GDI32.dll
 0005:000012d8       __imp__CreateEnhMetaFileA@16 1022b2d8     gdi32:GDI32.dll
 0005:000012dc       __imp__CloseMetaFile@4     1022b2dc     gdi32:GDI32.dll
 0005:000012e0       __imp__CreateMetaFileA@4   1022b2e0     gdi32:GDI32.dll
 0005:000012e4       __imp__CreateBitmap@20     1022b2e4     gdi32:GDI32.dll
 0005:000012e8       __imp__GetObjectA@12       1022b2e8     gdi32:GDI32.dll
 0005:000012ec       __imp__SetBkColor@8        1022b2ec     gdi32:GDI32.dll
 0005:000012f0       __imp__SetTextColor@8      1022b2f0     gdi32:GDI32.dll
 0005:000012f4       __imp__GetClipBox@8        1022b2f4     gdi32:GDI32.dll
 0005:000012f8       __imp__GetDCOrgEx@8        1022b2f8     gdi32:GDI32.dll
 0005:000012fc       __imp__DeleteObject@4      1022b2fc     gdi32:GDI32.dll
 0005:00001300       __imp__GetMapMode@4        1022b300     gdi32:GDI32.dll
 0005:00001304       __imp__GetViewportOrgEx@8  1022b304     gdi32:GDI32.dll
 0005:00001308       __imp__GetViewportExtEx@8  1022b308     gdi32:GDI32.dll
 0005:0000130c       __imp__GetWindowOrgEx@8    1022b30c     gdi32:GDI32.dll
 0005:00001310       __imp__GetWindowExtEx@8    1022b310     gdi32:GDI32.dll
 0005:00001314       __imp__DPtoLP@12           1022b314     gdi32:GDI32.dll
 0005:00001318       __imp__LPtoDP@12           1022b318     gdi32:GDI32.dll
 0005:0000131c       __imp__FillRgn@12          1022b31c     gdi32:GDI32.dll
 0005:00001320       __imp__FrameRgn@20         1022b320     gdi32:GDI32.dll
 0005:00001324       __imp__InvertRgn@8         1022b324     gdi32:GDI32.dll
 0005:00001328       __imp__PaintRgn@8          1022b328     gdi32:GDI32.dll
 0005:0000132c       __imp__PtVisible@12        1022b32c     gdi32:GDI32.dll
 0005:00001330       __imp__RectVisible@8       1022b330     gdi32:GDI32.dll
 0005:00001334       __imp__GetCurrentPositionEx@8 1022b334     gdi32:GDI32.dll
 0005:00001338       __imp__Arc@36              1022b338     gdi32:GDI32.dll
 0005:0000133c       __imp__Polyline@12         1022b33c     gdi32:GDI32.dll
 0005:00001340       __imp__Chord@36            1022b340     gdi32:GDI32.dll
 0005:00001344       __imp__Ellipse@20          1022b344     gdi32:GDI32.dll
 0005:00001348       __imp__Pie@36              1022b348     gdi32:GDI32.dll
 0005:0000134c       __imp__Polygon@12          1022b34c     gdi32:GDI32.dll
 0005:00001350       __imp__PolyPolygon@16      1022b350     gdi32:GDI32.dll
 0005:00001354       __imp__Rectangle@20        1022b354     gdi32:GDI32.dll
 0005:00001358       __imp__RoundRect@28        1022b358     gdi32:GDI32.dll
 0005:0000135c       __imp__PatBlt@24           1022b35c     gdi32:GDI32.dll
 0005:00001360       __imp__BitBlt@36           1022b360     gdi32:GDI32.dll
 0005:00001364       __imp__StretchBlt@44       1022b364     gdi32:GDI32.dll
 0005:00001368       __imp__GetPixel@12         1022b368     gdi32:GDI32.dll
 0005:0000136c       __imp__SetPixel@16         1022b36c     gdi32:GDI32.dll
 0005:00001370       __imp__FloodFill@16        1022b370     gdi32:GDI32.dll
 0005:00001374       __imp__ExtFloodFill@20     1022b374     gdi32:GDI32.dll
 0005:00001378       __imp__TextOutA@20         1022b378     gdi32:GDI32.dll
 0005:0000137c       __imp__GetTextExtentPoint32A@16 1022b37c     gdi32:GDI32.dll
 0005:00001380       __imp__GetTextAlign@4      1022b380     gdi32:GDI32.dll
 0005:00001384       __imp__GetTextFaceA@12     1022b384     gdi32:GDI32.dll
 0005:00001388       __imp__GetTextMetricsA@8   1022b388     gdi32:GDI32.dll
 0005:0000138c       __imp__GetTextCharacterExtra@4 1022b38c     gdi32:GDI32.dll
 0005:00001390       __imp__GetCharWidthA@16    1022b390     gdi32:GDI32.dll
 0005:00001394       __imp__GetFontLanguageInfo@4 1022b394     gdi32:GDI32.dll
 0005:00001398       __imp__GetCharacterPlacementA@24 1022b398     gdi32:GDI32.dll
 0005:0000139c       __imp__GetAspectRatioFilterEx@8 1022b39c     gdi32:GDI32.dll
 0005:000013a0       __imp__Escape@20           1022b3a0     gdi32:GDI32.dll
 0005:000013a4       __imp__SetBoundsRect@12    1022b3a4     gdi32:GDI32.dll
 0005:000013a8       __imp__GetBoundsRect@12    1022b3a8     gdi32:GDI32.dll
 0005:000013ac       __imp__ResetDCA@8          1022b3ac     gdi32:GDI32.dll
 0005:000013b0       __imp__GetOutlineTextMetricsA@12 1022b3b0     gdi32:GDI32.dll
 0005:000013b4       __imp__GetCharABCWidthsA@16 1022b3b4     gdi32:GDI32.dll
 0005:000013b8       __imp__GetFontData@20      1022b3b8     gdi32:GDI32.dll
 0005:000013bc       __imp__GetKerningPairsA@12 1022b3bc     gdi32:GDI32.dll
 0005:000013c0       __imp__GetGlyphOutlineA@28 1022b3c0     gdi32:GDI32.dll
 0005:000013c4       __imp__StartDocA@8         1022b3c4     gdi32:GDI32.dll
 0005:000013c8       __imp__StartPage@4         1022b3c8     gdi32:GDI32.dll
 0005:000013cc       __imp__EndPage@4           1022b3cc     gdi32:GDI32.dll
 0005:000013d0       __imp__SetAbortProc@8      1022b3d0     gdi32:GDI32.dll
 0005:000013d4       __imp__CreateSolidBrush@4  1022b3d4     gdi32:GDI32.dll
 0005:000013d8       __imp__EndDoc@4            1022b3d8     gdi32:GDI32.dll
 0005:000013dc       __imp__MaskBlt@48          1022b3dc     gdi32:GDI32.dll
 0005:000013e0       __imp__PlgBlt@40           1022b3e0     gdi32:GDI32.dll
 0005:000013e4       __imp__SetPixelV@16        1022b3e4     gdi32:GDI32.dll
 0005:000013e8       __imp__AngleArc@24         1022b3e8     gdi32:GDI32.dll
 0005:000013ec       __imp__GetArcDirection@4   1022b3ec     gdi32:GDI32.dll
 0005:000013f0       __imp__PolyPolyline@16     1022b3f0     gdi32:GDI32.dll
 0005:000013f4       __imp__GetColorAdjustment@8 1022b3f4     gdi32:GDI32.dll
 0005:000013f8       __imp__GetCurrentObject@8  1022b3f8     gdi32:GDI32.dll
 0005:000013fc       __imp__PolyBezier@12       1022b3fc     gdi32:GDI32.dll
 0005:00001400       __imp__DrawEscape@16       1022b400     gdi32:GDI32.dll
 0005:00001404       __imp__ExtEscape@24        1022b404     gdi32:GDI32.dll
 0005:00001408       __imp__GetCharABCWidthsFloatA@16 1022b408     gdi32:GDI32.dll
 0005:0000140c       __imp__GetCharWidthFloatA@16 1022b40c     gdi32:GDI32.dll
 0005:00001410       __imp__AbortPath@4         1022b410     gdi32:GDI32.dll
 0005:00001414       __imp__BeginPath@4         1022b414     gdi32:GDI32.dll
 0005:00001418       __imp__CloseFigure@4       1022b418     gdi32:GDI32.dll
 0005:0000141c       __imp__EndPath@4           1022b41c     gdi32:GDI32.dll
 0005:00001420       __imp__FillPath@4          1022b420     gdi32:GDI32.dll
 0005:00001424       __imp__FlattenPath@4       1022b424     gdi32:GDI32.dll
 0005:00001428       __imp__GetMiterLimit@8     1022b428     gdi32:GDI32.dll
 0005:0000142c       __imp__GetPath@16          1022b42c     gdi32:GDI32.dll
 0005:00001430       __imp__SetMiterLimit@12    1022b430     gdi32:GDI32.dll
 0005:00001434       __imp__StrokeAndFillPath@4 1022b434     gdi32:GDI32.dll
 0005:00001438       __imp__StrokePath@4        1022b438     gdi32:GDI32.dll
 0005:0000143c       __imp__WidenPath@4         1022b43c     gdi32:GDI32.dll
 0005:00001440       __imp__GdiComment@12       1022b440     gdi32:GDI32.dll
 0005:00001444       __imp__PlayEnhMetaFile@12  1022b444     gdi32:GDI32.dll
 0005:00001448       __imp__DeleteDC@4          1022b448     gdi32:GDI32.dll
 0005:0000144c       __imp__SaveDC@4            1022b44c     gdi32:GDI32.dll
 0005:00001450       __imp__RestoreDC@8         1022b450     gdi32:GDI32.dll
 0005:00001454       __imp__SelectPalette@12    1022b454     gdi32:GDI32.dll
 0005:00001458       __imp__SetBkMode@8         1022b458     gdi32:GDI32.dll
 0005:0000145c       __imp__SetPolyFillMode@8   1022b45c     gdi32:GDI32.dll
 0005:00001460       __imp__SetROP2@8           1022b460     gdi32:GDI32.dll
 0005:00001464       __imp__SetStretchBltMode@8 1022b464     gdi32:GDI32.dll
 0005:00001468       __imp__SetMapMode@8        1022b468     gdi32:GDI32.dll
 0005:0000146c       __imp__SetViewportOrgEx@16 1022b46c     gdi32:GDI32.dll
 0005:00001470       __imp__OffsetViewportOrgEx@16 1022b470     gdi32:GDI32.dll
 0005:00001474       __imp__SetViewportExtEx@16 1022b474     gdi32:GDI32.dll
 0005:00001478       __imp__ScaleViewportExtEx@24 1022b478     gdi32:GDI32.dll
 0005:0000147c       __imp__SetWindowOrgEx@16   1022b47c     gdi32:GDI32.dll
 0005:00001480       __imp__OffsetWindowOrgEx@16 1022b480     gdi32:GDI32.dll
 0005:00001484       __imp__SetWindowExtEx@16   1022b484     gdi32:GDI32.dll
 0005:00001488       __imp__ScaleWindowExtEx@24 1022b488     gdi32:GDI32.dll
 0005:0000148c       __imp__SelectClipRgn@8     1022b48c     gdi32:GDI32.dll
 0005:00001490       __imp__ExcludeClipRect@20  1022b490     gdi32:GDI32.dll
 0005:00001494       __imp__IntersectClipRect@20 1022b494     gdi32:GDI32.dll
 0005:00001498       __imp__OffsetClipRgn@12    1022b498     gdi32:GDI32.dll
 0005:0000149c       __imp__MoveToEx@16         1022b49c     gdi32:GDI32.dll
 0005:000014a0       __imp__CreateHatchBrush@8  1022b4a0     gdi32:GDI32.dll
 0005:000014a4       __imp__CreateBrushIndirect@4 1022b4a4     gdi32:GDI32.dll
 0005:000014a8       __imp__CreatePatternBrush@4 1022b4a8     gdi32:GDI32.dll
 0005:000014ac       __imp__LineTo@12           1022b4ac     gdi32:GDI32.dll
 0005:000014b0       __imp__SetTextAlign@8      1022b4b0     gdi32:GDI32.dll
 0005:000014b4       __imp__SetTextJustification@12 1022b4b4     gdi32:GDI32.dll
 0005:000014b8       __imp__SetTextCharacterExtra@8 1022b4b8     gdi32:GDI32.dll
 0005:000014bc       __imp__SetMapperFlags@8    1022b4bc     gdi32:GDI32.dll
 0005:000014c0       __imp__ArcTo@36            1022b4c0     gdi32:GDI32.dll
 0005:000014c4       __imp__SetArcDirection@8   1022b4c4     gdi32:GDI32.dll
 0005:000014c8       __imp__PolyDraw@16         1022b4c8     gdi32:GDI32.dll
 0005:000014cc       __imp__PolylineTo@12       1022b4cc     gdi32:GDI32.dll
 0005:000014d0       __imp__SetColorAdjustment@8 1022b4d0     gdi32:GDI32.dll
 0005:000014d4       __imp__PolyBezierTo@12     1022b4d4     gdi32:GDI32.dll
 0005:000014d8       __imp__GetClipRgn@8        1022b4d8     gdi32:GDI32.dll
 0005:000014dc       __imp__SelectClipPath@8    1022b4dc     gdi32:GDI32.dll
 0005:000014e0       __imp__ExtSelectClipRgn@12 1022b4e0     gdi32:GDI32.dll
 0005:000014e4       __imp__PlayMetaFileRecord@16 1022b4e4     gdi32:GDI32.dll
 0005:000014e8       __imp__EnumMetaFile@16     1022b4e8     gdi32:GDI32.dll
 0005:000014ec       __imp__PlayMetaFile@8      1022b4ec     gdi32:GDI32.dll
 0005:000014f0       __imp__CopyMetaFileA@8     1022b4f0     gdi32:GDI32.dll
 0005:000014f4       __imp__StretchDIBits@52    1022b4f4     gdi32:GDI32.dll
 0005:000014f8       __imp__EnumFontFamiliesExA@20 1022b4f8     gdi32:GDI32.dll
 0005:000014fc       __imp__CreateDIBPatternBrushPt@8 1022b4fc     gdi32:GDI32.dll
 0005:00001500       __imp__CreateFontIndirectA@4 1022b500     gdi32:GDI32.dll
 0005:00001504       __imp__CreateFontA@56      1022b504     gdi32:GDI32.dll
 0005:00001508       __imp__CreateBitmapIndirect@4 1022b508     gdi32:GDI32.dll
 0005:0000150c       __imp__SetBitmapBits@12    1022b50c     gdi32:GDI32.dll
 0005:00001510       __imp__GetBitmapBits@12    1022b510     gdi32:GDI32.dll
 0005:00001514       __imp__SetBitmapDimensionEx@16 1022b514     gdi32:GDI32.dll
 0005:00001518       __imp__GetBitmapDimensionEx@8 1022b518     gdi32:GDI32.dll
 0005:0000151c       __imp__CreateCompatibleBitmap@12 1022b51c     gdi32:GDI32.dll
 0005:00001520       __imp__CreateDiscardableBitmap@12 1022b520     gdi32:GDI32.dll
 0005:00001524       __imp__CreatePalette@4     1022b524     gdi32:GDI32.dll
 0005:00001528       __imp__CreateHalftonePalette@4 1022b528     gdi32:GDI32.dll
 0005:0000152c       __imp__GetPaletteEntries@16 1022b52c     gdi32:GDI32.dll
 0005:00001530       __imp__SetPaletteEntries@16 1022b530     gdi32:GDI32.dll
 0005:00001534       __imp__AnimatePalette@16   1022b534     gdi32:GDI32.dll
 0005:00001538       __imp__GetNearestPaletteIndex@8 1022b538     gdi32:GDI32.dll
 0005:0000153c       __imp__ResizePalette@8     1022b53c     gdi32:GDI32.dll
 0005:00001540       __imp__CreateRectRgn@16    1022b540     gdi32:GDI32.dll
 0005:00001544       __imp__CreateRectRgnIndirect@4 1022b544     gdi32:GDI32.dll
 0005:00001548       __imp__CreateEllipticRgn@16 1022b548     gdi32:GDI32.dll
 0005:0000154c       __imp__CreateEllipticRgnIndirect@4 1022b54c     gdi32:GDI32.dll
 0005:00001550       __imp__CreatePolygonRgn@12 1022b550     gdi32:GDI32.dll
 0005:00001554       __imp__CreatePolyPolygonRgn@16 1022b554     gdi32:GDI32.dll
 0005:00001558       __imp__CreateRoundRectRgn@24 1022b558     gdi32:GDI32.dll
 0005:0000155c       __imp__PathToRegion@4      1022b55c     gdi32:GDI32.dll
 0005:00001560       __imp__ExtCreateRegion@12  1022b560     gdi32:GDI32.dll
 0005:00001564       __imp__GetRegionData@12    1022b564     gdi32:GDI32.dll
 0005:00001568       __imp__SetRectRgn@20       1022b568     gdi32:GDI32.dll
 0005:0000156c       __imp__CombineRgn@16       1022b56c     gdi32:GDI32.dll
 0005:00001570       __imp__EqualRgn@8          1022b570     gdi32:GDI32.dll
 0005:00001574       __imp__OffsetRgn@12        1022b574     gdi32:GDI32.dll
 0005:00001578       __imp__GetRgnBox@8         1022b578     gdi32:GDI32.dll
 0005:0000157c       __imp__PtInRegion@12       1022b57c     gdi32:GDI32.dll
 0005:00001580       __imp__RectInRegion@8      1022b580     gdi32:GDI32.dll
 0005:00001584       __imp__CreateDCA@16        1022b584     gdi32:GDI32.dll
 0005:00001588       __imp__CreateICA@16        1022b588     gdi32:GDI32.dll
 0005:0000158c       __imp__CreateCompatibleDC@4 1022b58c     gdi32:GDI32.dll
 0005:00001590       __imp__GetDeviceCaps@8     1022b590     gdi32:GDI32.dll
 0005:00001594       __imp__GetTextColor@4      1022b594     gdi32:GDI32.dll
 0005:00001598       __imp__GetBrushOrgEx@8     1022b598     gdi32:GDI32.dll
 0005:0000159c       __imp__SetBrushOrgEx@16    1022b59c     gdi32:GDI32.dll
 0005:000015a0       __imp__EnumObjects@16      1022b5a0     gdi32:GDI32.dll
 0005:000015a4       __imp__SelectObject@8      1022b5a4     gdi32:GDI32.dll
 0005:000015a8       __imp__GetNearestColor@8   1022b5a8     gdi32:GDI32.dll
 0005:000015ac       __imp__RealizePalette@4    1022b5ac     gdi32:GDI32.dll
 0005:000015b0       __imp__UpdateColors@4      1022b5b0     gdi32:GDI32.dll
 0005:000015b4       __imp__GetBkColor@4        1022b5b4     gdi32:GDI32.dll
 0005:000015b8       __imp__GetBkMode@4         1022b5b8     gdi32:GDI32.dll
 0005:000015bc       __imp__GetPolyFillMode@4   1022b5bc     gdi32:GDI32.dll
 0005:000015c0       __imp__GetROP2@4           1022b5c0     gdi32:GDI32.dll
 0005:000015c4       __imp__GetStretchBltMode@4 1022b5c4     gdi32:GDI32.dll
 0005:000015c8       __imp__AbortDoc@4          1022b5c8     gdi32:GDI32.dll
 0005:000015cc       \177GDI32_NULL_THUNK_DATA  1022b5cc     gdi32:GDI32.dll
 0005:00001694       __imp__GetShortPathNameA@12 1022b694     kernel32:KERNEL32.dll
 0005:00001698       __imp__WritePrivateProfileStringA@16 1022b698     kernel32:KERNEL32.dll
 0005:0000169c       __imp__GetPrivateProfileSectionNamesA@12 1022b69c     kernel32:KERNEL32.dll
 0005:000016a0       __imp__GetPrivateProfileSectionA@16 1022b6a0     kernel32:KERNEL32.dll
 0005:000016a4       __imp__GetVersionExA@4     1022b6a4     kernel32:KERNEL32.dll
 0005:000016a8       __imp__InterlockedExchange@8 1022b6a8     kernel32:KERNEL32.dll
 0005:000016ac       __imp__GetACP@0            1022b6ac     kernel32:KERNEL32.dll
 0005:000016b0       __imp__GetLocaleInfoA@16   1022b6b0     kernel32:KERNEL32.dll
 0005:000016b4       __imp__GetThreadLocale@0   1022b6b4     kernel32:KERNEL32.dll
 0005:000016b8       __imp__IsBadStringPtrA@8   1022b6b8     kernel32:KERNEL32.dll
 0005:000016bc       __imp__FindResourceA@12    1022b6bc     kernel32:KERNEL32.dll
 0005:000016c0       __imp__SizeofResource@8    1022b6c0     kernel32:KERNEL32.dll
 0005:000016c4       __imp__LockResource@4      1022b6c4     kernel32:KERNEL32.dll
 0005:000016c8       __imp__LoadResource@8      1022b6c8     kernel32:KERNEL32.dll
 0005:000016cc       __imp__WideCharToMultiByte@32 1022b6cc     kernel32:KERNEL32.dll
 0005:000016d0       __imp__Sleep@4             1022b6d0     kernel32:KERNEL32.dll
 0005:000016d4       __imp__GetProcAddress@8    1022b6d4     kernel32:KERNEL32.dll
 0005:000016d8       __imp__LoadLibraryA@4      1022b6d8     kernel32:KERNEL32.dll
 0005:000016dc       __imp__GetLocalTime@4      1022b6dc     kernel32:KERNEL32.dll
 0005:000016e0       __imp__GetEnvironmentVariableW@12 1022b6e0     kernel32:KERNEL32.dll
 0005:000016e4       __imp__GetVersion@0        1022b6e4     kernel32:KERNEL32.dll
 0005:000016e8       __imp__MultiByteToWideChar@24 1022b6e8     kernel32:KERNEL32.dll
 0005:000016ec       __imp__GetEnvironmentVariableA@12 1022b6ec     kernel32:KERNEL32.dll
 0005:000016f0       __imp__CompareStringW@24   1022b6f0     kernel32:KERNEL32.dll
 0005:000016f4       __imp__CompareStringA@24   1022b6f4     kernel32:KERNEL32.dll
 0005:000016f8       __imp__lstrlenW@4          1022b6f8     kernel32:KERNEL32.dll
 0005:000016fc       __imp__GetStringTypeExW@20 1022b6fc     kernel32:KERNEL32.dll
 0005:00001700       __imp__GetStringTypeExA@20 1022b700     kernel32:KERNEL32.dll
 0005:00001704       __imp__lstrcmpiW@8         1022b704     kernel32:KERNEL32.dll
 0005:00001708       __imp__lstrcmpiA@8         1022b708     kernel32:KERNEL32.dll
 0005:0000170c       __imp__lstrlenA@4          1022b70c     kernel32:KERNEL32.dll
 0005:00001710       __imp__GetLastError@0      1022b710     kernel32:KERNEL32.dll
 0005:00001714       __imp__GetModuleHandleA@4  1022b714     kernel32:KERNEL32.dll
 0005:00001718       __imp__lstrcpynA@12        1022b718     kernel32:KERNEL32.dll
 0005:0000171c       __imp__lstrcmpW@8          1022b71c     kernel32:KERNEL32.dll
 0005:00001720       __imp__GlobalDeleteAtom@4  1022b720     kernel32:KERNEL32.dll
 0005:00001724       __imp__GlobalFindAtomA@4   1022b724     kernel32:KERNEL32.dll
 0005:00001728       __imp__GlobalAddAtomA@4    1022b728     kernel32:KERNEL32.dll
 0005:0000172c       __imp__OpenEventA@12       1022b72c     kernel32:KERNEL32.dll
 0005:00001730       __imp__lstrcpyW@8          1022b730     kernel32:KERNEL32.dll
 0005:00001734       __imp__OutputDebugStringW@4 1022b734     kernel32:KERNEL32.dll
 0005:00001738       __imp__lstrcpynW@12        1022b738     kernel32:KERNEL32.dll
 0005:0000173c       __imp__FileTimeToLocalFileTime@8 1022b73c     kernel32:KERNEL32.dll
 0005:00001740       __imp__UnmapViewOfFile@4   1022b740     kernel32:KERNEL32.dll
 0005:00001744       __imp__MapViewOfFile@20    1022b744     kernel32:KERNEL32.dll
 0005:00001748       __imp__CreateFileMappingA@24 1022b748     kernel32:KERNEL32.dll
 0005:0000174c       __imp__OpenFileMappingA@12 1022b74c     kernel32:KERNEL32.dll
 0005:00001750       __imp__GetModuleFileNameW@12 1022b750     kernel32:KERNEL32.dll
 0005:00001754       __imp__GlobalGetAtomNameA@12 1022b754     kernel32:KERNEL32.dll
 0005:00001758       __imp__GetCurrentThreadId@0 1022b758     kernel32:KERNEL32.dll
 0005:0000175c       __imp__lstrcatA@8          1022b75c     kernel32:KERNEL32.dll
 0005:00001760       __imp__FreeLibrary@4       1022b760     kernel32:KERNEL32.dll
 0005:00001764       __imp__SetEnvironmentVariableA@8 1022b764     kernel32:KERNEL32.dll
 0005:00001768       __imp__GetLocaleInfoW@16   1022b768     kernel32:KERNEL32.dll
 0005:0000176c       __imp__GetTimeZoneInformation@4 1022b76c     kernel32:KERNEL32.dll
 0005:00001770       __imp__SetStdHandle@8      1022b770     kernel32:KERNEL32.dll
 0005:00001774       __imp__GetUserDefaultLCID@0 1022b774     kernel32:KERNEL32.dll
 0005:00001778       __imp__EnumSystemLocalesA@8 1022b778     kernel32:KERNEL32.dll
 0005:0000177c       __imp__IsValidCodePage@4   1022b77c     kernel32:KERNEL32.dll
 0005:00001780       __imp__IsValidLocale@8     1022b780     kernel32:KERNEL32.dll
 0005:00001784       __imp__GetDateFormatA@24   1022b784     kernel32:KERNEL32.dll
 0005:00001788       __imp__GetTimeFormatA@24   1022b788     kernel32:KERNEL32.dll
 0005:0000178c       __imp__GetProcessHeap@0    1022b78c     kernel32:KERNEL32.dll
 0005:00001790       __imp__IsBadCodePtr@4      1022b790     kernel32:KERNEL32.dll
 0005:00001794       __imp__GetStringTypeW@16   1022b794     kernel32:KERNEL32.dll
 0005:00001798       __imp__GetStringTypeA@20   1022b798     kernel32:KERNEL32.dll
 0005:0000179c       __imp__LCMapStringW@24     1022b79c     kernel32:KERNEL32.dll
 0005:000017a0       __imp__LCMapStringA@24     1022b7a0     kernel32:KERNEL32.dll
 0005:000017a4       __imp__SetUnhandledExceptionFilter@4 1022b7a4     kernel32:KERNEL32.dll
 0005:000017a8       __imp__GetSystemTimeAsFileTime@4 1022b7a8     kernel32:KERNEL32.dll
 0005:000017ac       __imp__GetCurrentProcessId@0 1022b7ac     kernel32:KERNEL32.dll
 0005:000017b0       __imp__GetTickCount@0      1022b7b0     kernel32:KERNEL32.dll
 0005:000017b4       __imp__QueryPerformanceCounter@4 1022b7b4     kernel32:KERNEL32.dll
 0005:000017b8       __imp__UnhandledExceptionFilter@4 1022b7b8     kernel32:KERNEL32.dll
 0005:000017bc       __imp__GetEnvironmentStringsW@0 1022b7bc     kernel32:KERNEL32.dll
 0005:000017c0       __imp__FreeEnvironmentStringsW@4 1022b7c0     kernel32:KERNEL32.dll
 0005:000017c4       __imp__GetEnvironmentStrings@0 1022b7c4     kernel32:KERNEL32.dll
 0005:000017c8       __imp__FreeEnvironmentStringsA@4 1022b7c8     kernel32:KERNEL32.dll
 0005:000017cc       __imp__GetStartupInfoA@4   1022b7cc     kernel32:KERNEL32.dll
 0005:000017d0       __imp__GetFileType@4       1022b7d0     kernel32:KERNEL32.dll
 0005:000017d4       __imp__SetHandleCount@4    1022b7d4     kernel32:KERNEL32.dll
 0005:000017d8       __imp__VirtualFree@12      1022b7d8     kernel32:KERNEL32.dll
 0005:000017dc       __imp__HeapCreate@12       1022b7dc     kernel32:KERNEL32.dll
 0005:000017e0       __imp__HeapDestroy@4       1022b7e0     kernel32:KERNEL32.dll
 0005:000017e4       __imp__HeapFree@12         1022b7e4     kernel32:KERNEL32.dll
 0005:000017e8       __imp__HeapReAlloc@16      1022b7e8     kernel32:KERNEL32.dll
 0005:000017ec       __imp__HeapAlloc@12        1022b7ec     kernel32:KERNEL32.dll
 0005:000017f0       __imp__SetConsoleCtrlHandler@8 1022b7f0     kernel32:KERNEL32.dll
 0005:000017f4       __imp__FatalAppExitA@8     1022b7f4     kernel32:KERNEL32.dll
 0005:000017f8       __imp__TerminateProcess@8  1022b7f8     kernel32:KERNEL32.dll
 0005:000017fc       __imp__ExitThread@4        1022b7fc     kernel32:KERNEL32.dll
 0005:00001800       __imp__CreateThread@24     1022b800     kernel32:KERNEL32.dll
 0005:00001804       __imp__ExitProcess@4       1022b804     kernel32:KERNEL32.dll
 0005:00001808       __imp__GetCommandLineA@0   1022b808     kernel32:KERNEL32.dll
 0005:0000180c       __imp__HeapValidate@12     1022b80c     kernel32:KERNEL32.dll
 0005:00001810       __imp__VirtualQuery@12     1022b810     kernel32:KERNEL32.dll
 0005:00001814       __imp__GetSystemInfo@4     1022b814     kernel32:KERNEL32.dll
 0005:00001818       __imp__VirtualAlloc@16     1022b818     kernel32:KERNEL32.dll
 0005:0000181c       __imp__OutputDebugStringA@4 1022b81c     kernel32:KERNEL32.dll
 0005:00001820       __imp__GetStdHandle@4      1022b820     kernel32:KERNEL32.dll
 0005:00001824       __imp__DebugBreak@0        1022b824     kernel32:KERNEL32.dll
 0005:00001828       __imp__RtlUnwind@16        1022b828     kernel32:KERNEL32.dll
 0005:0000182c       __imp__LocalLock@4         1022b82c     kernel32:KERNEL32.dll
 0005:00001830       __imp__LocalUnlock@4       1022b830     kernel32:KERNEL32.dll
 0005:00001834       __imp__SetFileAttributesA@8 1022b834     kernel32:KERNEL32.dll
 0005:00001838       __imp__LocalFileTimeToFileTime@8 1022b838     kernel32:KERNEL32.dll
 0005:0000183c       __imp__GetDiskFreeSpaceA@20 1022b83c     kernel32:KERNEL32.dll
 0005:00001840       __imp__GetTempFileNameA@16 1022b840     kernel32:KERNEL32.dll
 0005:00001844       __imp__GetFileTime@16      1022b844     kernel32:KERNEL32.dll
 0005:00001848       __imp__SetFileTime@16      1022b848     kernel32:KERNEL32.dll
 0005:0000184c       __imp__GetFileAttributesA@4 1022b84c     kernel32:KERNEL32.dll
 0005:00001850       __imp__FindResourceExA@16  1022b850     kernel32:KERNEL32.dll
 0005:00001854       __imp__GetPrivateProfileStringA@24 1022b854     kernel32:KERNEL32.dll
 0005:00001858       __imp__GetFullPathNameA@16 1022b858     kernel32:KERNEL32.dll
 0005:0000185c       __imp__GetVolumeInformationA@32 1022b85c     kernel32:KERNEL32.dll
 0005:00001860       __imp__FindFirstFileA@8    1022b860     kernel32:KERNEL32.dll
 0005:00001864       __imp__FindClose@4         1022b864     kernel32:KERNEL32.dll
 0005:00001868       __imp__DeleteFileA@4       1022b868     kernel32:KERNEL32.dll
 0005:0000186c       __imp__MoveFileA@8         1022b86c     kernel32:KERNEL32.dll
 0005:00001870       __imp__GetFileSize@8       1022b870     kernel32:KERNEL32.dll
 0005:00001874       __imp__SetEndOfFile@4      1022b874     kernel32:KERNEL32.dll
 0005:00001878       __imp__UnlockFile@20       1022b878     kernel32:KERNEL32.dll
 0005:0000187c       __imp__LockFile@20         1022b87c     kernel32:KERNEL32.dll
 0005:00001880       __imp__FlushFileBuffers@4  1022b880     kernel32:KERNEL32.dll
 0005:00001884       __imp__SetFilePointer@16   1022b884     kernel32:KERNEL32.dll
 0005:00001888       __imp__WriteFile@20        1022b888     kernel32:KERNEL32.dll
 0005:0000188c       __imp__ReadFile@20         1022b88c     kernel32:KERNEL32.dll
 0005:00001890       __imp__CreateFileA@28      1022b890     kernel32:KERNEL32.dll
 0005:00001894       __imp__GetCurrentProcess@0 1022b894     kernel32:KERNEL32.dll
 0005:00001898       __imp__DuplicateHandle@28  1022b898     kernel32:KERNEL32.dll
 0005:0000189c       __imp__GetCurrentDirectoryA@8 1022b89c     kernel32:KERNEL32.dll
 0005:000018a0       __imp__GetPrivateProfileIntA@16 1022b8a0     kernel32:KERNEL32.dll
 0005:000018a4       __imp__SystemTimeToFileTime@8 1022b8a4     kernel32:KERNEL32.dll
 0005:000018a8       __imp__FileTimeToSystemTime@8 1022b8a8     kernel32:KERNEL32.dll
 0005:000018ac       __imp__GetProfileIntA@12   1022b8ac     kernel32:KERNEL32.dll
 0005:000018b0       __imp__FreeResource@4      1022b8b0     kernel32:KERNEL32.dll
 0005:000018b4       __imp__VirtualProtect@16   1022b8b4     kernel32:KERNEL32.dll
 0005:000018b8       __imp__IsBadReadPtr@8      1022b8b8     kernel32:KERNEL32.dll
 0005:000018bc       __imp__IsBadWritePtr@8     1022b8bc     kernel32:KERNEL32.dll
 0005:000018c0       __imp__InterlockedIncrement@4 1022b8c0     kernel32:KERNEL32.dll
 0005:000018c4       __imp__GetOEMCP@0          1022b8c4     kernel32:KERNEL32.dll
 0005:000018c8       __imp__GetCPInfo@8         1022b8c8     kernel32:KERNEL32.dll
 0005:000018cc       __imp__GlobalFlags@4       1022b8cc     kernel32:KERNEL32.dll
 0005:000018d0       __imp__RaiseException@16   1022b8d0     kernel32:KERNEL32.dll
 0005:000018d4       __imp__InterlockedDecrement@4 1022b8d4     kernel32:KERNEL32.dll
 0005:000018d8       __imp__SetErrorMode@4      1022b8d8     kernel32:KERNEL32.dll
 0005:000018dc       __imp__TlsGetValue@4       1022b8dc     kernel32:KERNEL32.dll
 0005:000018e0       __imp__LocalReAlloc@12     1022b8e0     kernel32:KERNEL32.dll
 0005:000018e4       __imp__TlsSetValue@8       1022b8e4     kernel32:KERNEL32.dll
 0005:000018e8       __imp__EnterCriticalSection@4 1022b8e8     kernel32:KERNEL32.dll
 0005:000018ec       __imp__GlobalReAlloc@12    1022b8ec     kernel32:KERNEL32.dll
 0005:000018f0       __imp__LeaveCriticalSection@4 1022b8f0     kernel32:KERNEL32.dll
 0005:000018f4       __imp__TlsFree@4           1022b8f4     kernel32:KERNEL32.dll
 0005:000018f8       __imp__GlobalHandle@4      1022b8f8     kernel32:KERNEL32.dll
 0005:000018fc       __imp__DeleteCriticalSection@4 1022b8fc     kernel32:KERNEL32.dll
 0005:00001900       __imp__TlsAlloc@0          1022b900     kernel32:KERNEL32.dll
 0005:00001904       __imp__InitializeCriticalSection@4 1022b904     kernel32:KERNEL32.dll
 0005:00001908       __imp__LocalAlloc@8        1022b908     kernel32:KERNEL32.dll
 0005:0000190c       __imp__lstrcmpA@8          1022b90c     kernel32:KERNEL32.dll
 0005:00001910       __imp__GetCurrentThread@0  1022b910     kernel32:KERNEL32.dll
 0005:00001914       __imp__lstrcpyA@8          1022b914     kernel32:KERNEL32.dll
 0005:00001918       __imp__ConvertDefaultLocale@4 1022b918     kernel32:KERNEL32.dll
 0005:0000191c       __imp__EnumResourceLanguagesA@20 1022b91c     kernel32:KERNEL32.dll
 0005:00001920       __imp__GetModuleFileNameA@12 1022b920     kernel32:KERNEL32.dll
 0005:00001924       __imp__CreateEventA@16     1022b924     kernel32:KERNEL32.dll
 0005:00001928       __imp__SetEvent@4          1022b928     kernel32:KERNEL32.dll
 0005:0000192c       __imp__WaitForSingleObject@8 1022b92c     kernel32:KERNEL32.dll
 0005:00001930       __imp__CloseHandle@4       1022b930     kernel32:KERNEL32.dll
 0005:00001934       __imp__GlobalFree@4        1022b934     kernel32:KERNEL32.dll
 0005:00001938       __imp__CopyFileA@12        1022b938     kernel32:KERNEL32.dll
 0005:0000193c       __imp__GlobalSize@4        1022b93c     kernel32:KERNEL32.dll
 0005:00001940       __imp__GlobalAlloc@8       1022b940     kernel32:KERNEL32.dll
 0005:00001944       __imp__FormatMessageA@28   1022b944     kernel32:KERNEL32.dll
 0005:00001948       __imp__LocalFree@4         1022b948     kernel32:KERNEL32.dll
 0005:0000194c       __imp__GlobalLock@4        1022b94c     kernel32:KERNEL32.dll
 0005:00001950       __imp__GlobalUnlock@4      1022b950     kernel32:KERNEL32.dll
 0005:00001954       __imp__MulDiv@12           1022b954     kernel32:KERNEL32.dll
 0005:00001958       __imp__SetLastError@4      1022b958     kernel32:KERNEL32.dll
 0005:0000195c       __imp__SuspendThread@4     1022b95c     kernel32:KERNEL32.dll
 0005:00001960       __imp__ResumeThread@4      1022b960     kernel32:KERNEL32.dll
 0005:00001964       __imp__GetThreadPriority@4 1022b964     kernel32:KERNEL32.dll
 0005:00001968       __imp__SetThreadPriority@8 1022b968     kernel32:KERNEL32.dll
 0005:0000196c       \177KERNEL32_NULL_THUNK_DATA 1022b96c     kernel32:KERNEL32.dll
 0005:00001a28       __imp__VarDateFromUdate@12 1022ba28     oleaut32:OLEAUT32.dll
 0005:00001a2c       __imp__SystemTimeToVariantTime@8 1022ba2c     oleaut32:OLEAUT32.dll
 0005:00001a30       __imp__VarUdateFromDate@16 1022ba30     oleaut32:OLEAUT32.dll
 0005:00001a34       __imp__VariantTimeToSystemTime@12 1022ba34     oleaut32:OLEAUT32.dll
 0005:00001a38       __imp__DosDateTimeToVariantTime@12 1022ba38     oleaut32:OLEAUT32.dll
 0005:00001a3c       __imp__LoadTypeLib@8       1022ba3c     oleaut32:OLEAUT32.dll
 0005:00001a40       __imp__VarBstrFromDate@20  1022ba40     oleaut32:OLEAUT32.dll
 0005:00001a44       __imp__VarDateFromStr@16   1022ba44     oleaut32:OLEAUT32.dll
 0005:00001a48       __imp__VarDecFromStr@16    1022ba48     oleaut32:OLEAUT32.dll
 0005:00001a4c       __imp__VarBstrFromDec@16   1022ba4c     oleaut32:OLEAUT32.dll
 0005:00001a50       __imp__SafeArrayDestroyDescriptor@4 1022ba50     oleaut32:OLEAUT32.dll
 0005:00001a54       __imp__SafeArrayDestroyData@4 1022ba54     oleaut32:OLEAUT32.dll
 0005:00001a58       __imp__SafeArrayDestroy@4  1022ba58     oleaut32:OLEAUT32.dll
 0005:00001a5c       __imp__SafeArrayUnlock@4   1022ba5c     oleaut32:OLEAUT32.dll
 0005:00001a60       __imp__SafeArrayLock@4     1022ba60     oleaut32:OLEAUT32.dll
 0005:00001a64       __imp__SafeArrayPutElement@12 1022ba64     oleaut32:OLEAUT32.dll
 0005:00001a68       __imp__SafeArrayPtrOfIndex@12 1022ba68     oleaut32:OLEAUT32.dll
 0005:00001a6c       __imp__SafeArrayGetElement@12 1022ba6c     oleaut32:OLEAUT32.dll
 0005:00001a70       __imp__SafeArrayAllocDescriptor@8 1022ba70     oleaut32:OLEAUT32.dll
 0005:00001a74       __imp__SafeArrayAllocData@4 1022ba74     oleaut32:OLEAUT32.dll
 0005:00001a78       __imp__SafeArrayCopy@8     1022ba78     oleaut32:OLEAUT32.dll
 0005:00001a7c       __imp__VarBstrFromCy@20    1022ba7c     oleaut32:OLEAUT32.dll
 0005:00001a80       __imp__VarCyFromStr@16     1022ba80     oleaut32:OLEAUT32.dll
 0005:00001a84       __imp__SysReAllocStringLen@12 1022ba84     oleaut32:OLEAUT32.dll
 0005:00001a88       __imp__SysAllocString@4    1022ba88     oleaut32:OLEAUT32.dll
 0005:00001a8c       __imp__VariantCopy@8       1022ba8c     oleaut32:OLEAUT32.dll
 0005:00001a90       __imp__SafeArrayCreate@12  1022ba90     oleaut32:OLEAUT32.dll
 0005:00001a94       __imp__SafeArrayRedim@8    1022ba94     oleaut32:OLEAUT32.dll
 0005:00001a98       __imp__SafeArrayGetLBound@12 1022ba98     oleaut32:OLEAUT32.dll
 0005:00001a9c       __imp__SafeArrayGetUBound@12 1022ba9c     oleaut32:OLEAUT32.dll
 0005:00001aa0       __imp__SafeArrayAccessData@8 1022baa0     oleaut32:OLEAUT32.dll
 0005:00001aa4       __imp__SafeArrayUnaccessData@4 1022baa4     oleaut32:OLEAUT32.dll
 0005:00001aa8       __imp__SafeArrayGetElemsize@4 1022baa8     oleaut32:OLEAUT32.dll
 0005:00001aac       __imp__SafeArrayGetDim@4   1022baac     oleaut32:OLEAUT32.dll
 0005:00001ab0       __imp__SysStringByteLen@4  1022bab0     oleaut32:OLEAUT32.dll
 0005:00001ab4       __imp__SysAllocStringByteLen@8 1022bab4     oleaut32:OLEAUT32.dll
 0005:00001ab8       __imp__SysStringLen@4      1022bab8     oleaut32:OLEAUT32.dll
 0005:00001abc       __imp__SysFreeString@4     1022babc     oleaut32:OLEAUT32.dll
 0005:00001ac0       __imp__SysAllocStringLen@8 1022bac0     oleaut32:OLEAUT32.dll
 0005:00001ac4       __imp__VariantInit@4       1022bac4     oleaut32:OLEAUT32.dll
 0005:00001ac8       __imp__VariantChangeType@16 1022bac8     oleaut32:OLEAUT32.dll
 0005:00001acc       __imp__VariantClear@4      1022bacc     oleaut32:OLEAUT32.dll
 0005:00001ad0       \177OLEAUT32_NULL_THUNK_DATA 1022bad0     oleaut32:OLEAUT32.dll
 0005:00001b1c       __imp__DragFinish@4        1022bb1c     shell32:SHELL32.dll
 0005:00001b20       __imp__DragQueryFileA@16   1022bb20     shell32:SHELL32.dll
 0005:00001b24       __imp__SHGetFileInfoA@20   1022bb24     shell32:SHELL32.dll
 0005:00001b28       __imp__ExtractIconA@12     1022bb28     shell32:SHELL32.dll
 0005:00001b2c       __imp__DragAcceptFiles@8   1022bb2c     shell32:SHELL32.dll
 0005:00001b30       \177SHELL32_NULL_THUNK_DATA 1022bb30     shell32:SHELL32.dll
 0005:00001b60       __imp__PathRemoveExtensionA@4 1022bb60     shlwapi:SHLWAPI.dll
 0005:00001b64       __imp__PathFindFileNameA@4 1022bb64     shlwapi:SHLWAPI.dll
 0005:00001b68       __imp__PathIsUNCA@4        1022bb68     shlwapi:SHLWAPI.dll
 0005:00001b6c       __imp__PathFindExtensionA@4 1022bb6c     shlwapi:SHLWAPI.dll
 0005:00001b70       __imp__PathStripToRootA@4  1022bb70     shlwapi:SHLWAPI.dll
 0005:00001b74       \177SHLWAPI_NULL_THUNK_DATA 1022bb74     shlwapi:SHLWAPI.dll
 0005:00001ba4       __imp__GetAsyncKeyState@4  1022bba4     user32:USER32.dll
 0005:00001ba8       __imp__DestroyMenu@4       1022bba8     user32:USER32.dll
 0005:00001bac       __imp__UnpackDDElParam@16  1022bbac     user32:USER32.dll
 0005:00001bb0       __imp__GetClipboardFormatNameA@12 1022bbb0     user32:USER32.dll
 0005:00001bb4       __imp__PostQuitMessage@4   1022bbb4     user32:USER32.dll
 0005:00001bb8       __imp__EndDialog@8         1022bbb8     user32:USER32.dll
 0005:00001bbc       __imp__CreateDialogIndirectParamA@20 1022bbbc     user32:USER32.dll
 0005:00001bc0       __imp__GetCursorPos@4      1022bbc0     user32:USER32.dll
 0005:00001bc4       __imp__GetMessageA@16      1022bbc4     user32:USER32.dll
 0005:00001bc8       __imp__TranslateMessage@4  1022bbc8     user32:USER32.dll
 0005:00001bcc       __imp__wsprintfA           1022bbcc     user32:USER32.dll
 0005:00001bd0       __imp__CheckMenuRadioItem@20 1022bbd0     user32:USER32.dll
 0005:00001bd4       __imp__GetMenuContextHelpId@4 1022bbd4     user32:USER32.dll
 0005:00001bd8       __imp__SetMenuContextHelpId@8 1022bbd8     user32:USER32.dll
 0005:00001bdc       __imp__LoadMenuIndirectA@4 1022bbdc     user32:USER32.dll
 0005:00001be0       __imp__LoadMenuA@8         1022bbe0     user32:USER32.dll
 0005:00001be4       __imp__RemoveMenu@12       1022bbe4     user32:USER32.dll
 0005:00001be8       __imp__ModifyMenuA@20      1022bbe8     user32:USER32.dll
 0005:00001bec       __imp__InsertMenuItemA@16  1022bbec     user32:USER32.dll
 0005:00001bf0       __imp__InsertMenuA@20      1022bbf0     user32:USER32.dll
 0005:00001bf4       __imp__GetSubMenu@8        1022bbf4     user32:USER32.dll
 0005:00001bf8       __imp__SetMenuItemInfoA@16 1022bbf8     user32:USER32.dll
 0005:00001bfc       __imp__GetMenuItemInfoA@16 1022bbfc     user32:USER32.dll
 0005:00001c00       __imp__GetMenuStringA@20   1022bc00     user32:USER32.dll
 0005:00001c04       __imp__GetMenuState@12     1022bc04     user32:USER32.dll
 0005:00001c08       __imp__GetMenuItemID@8     1022bc08     user32:USER32.dll
 0005:00001c0c       __imp__GetMenuItemCount@4  1022bc0c     user32:USER32.dll
 0005:00001c10       __imp__GetMenuDefaultItem@12 1022bc10     user32:USER32.dll
 0005:00001c14       __imp__SetMenuDefaultItem@12 1022bc14     user32:USER32.dll
 0005:00001c18       __imp__EnableMenuItem@12   1022bc18     user32:USER32.dll
 0005:00001c1c       __imp__CheckMenuItem@12    1022bc1c     user32:USER32.dll
 0005:00001c20       __imp__AppendMenuA@16      1022bc20     user32:USER32.dll
 0005:00001c24       __imp__DeleteMenu@12       1022bc24     user32:USER32.dll
 0005:00001c28       __imp__IsMenu@4            1022bc28     user32:USER32.dll
 0005:00001c2c       __imp__CreatePopupMenu@0   1022bc2c     user32:USER32.dll
 0005:00001c30       __imp__CreateMenu@0        1022bc30     user32:USER32.dll
 0005:00001c34       __imp__ScrollDC@28         1022bc34     user32:USER32.dll
 0005:00001c38       __imp__GrayStringA@36      1022bc38     user32:USER32.dll
 0005:00001c3c       __imp__GetTabbedTextExtentA@20 1022bc3c     user32:USER32.dll
 0005:00001c40       __imp__DrawTextExA@24      1022bc40     user32:USER32.dll
 0005:00001c44       __imp__DrawTextA@20        1022bc44     user32:USER32.dll
 0005:00001c48       __imp__DrawFocusRect@8     1022bc48     user32:USER32.dll
 0005:00001c4c       __imp__DrawFrameControl@16 1022bc4c     user32:USER32.dll
 0005:00001c50       __imp__DrawEdge@16         1022bc50     user32:USER32.dll
 0005:00001c54       __imp__DrawStateA@40       1022bc54     user32:USER32.dll
 0005:00001c58       __imp__DrawIcon@16         1022bc58     user32:USER32.dll
 0005:00001c5c       __imp__InvertRect@8        1022bc5c     user32:USER32.dll
 0005:00001c60       __imp__FrameRect@12        1022bc60     user32:USER32.dll
 0005:00001c64       __imp__FillRect@12         1022bc64     user32:USER32.dll
 0005:00001c68       __imp__ExcludeUpdateRgn@8  1022bc68     user32:USER32.dll
 0005:00001c6c       __imp__WindowFromDC@4      1022bc6c     user32:USER32.dll
 0005:00001c70       __imp__GetSysColorBrush@4  1022bc70     user32:USER32.dll
 0005:00001c74       __imp__TabbedTextOutA@32   1022bc74     user32:USER32.dll
 0005:00001c78       __imp__GetMenuCheckMarkDimensions@0 1022bc78     user32:USER32.dll
 0005:00001c7c       __imp__LoadBitmapA@8       1022bc7c     user32:USER32.dll
 0005:00001c80       __imp__SetMenuItemBitmaps@20 1022bc80     user32:USER32.dll
 0005:00001c84       __imp__OpenIcon@4          1022bc84     user32:USER32.dll
 0005:00001c88       __imp__CloseWindow@4       1022bc88     user32:USER32.dll
 0005:00001c8c       __imp__LoadCursorA@8       1022bc8c     user32:USER32.dll
 0005:00001c90       __imp__PostThreadMessageA@16 1022bc90     user32:USER32.dll
 0005:00001c94       __imp__MapDialogRect@8     1022bc94     user32:USER32.dll
 0005:00001c98       __imp__GetWindowContextHelpId@4 1022bc98     user32:USER32.dll
 0005:00001c9c       __imp__SetWindowContextHelpId@8 1022bc9c     user32:USER32.dll
 0005:00001ca0       __imp__SendNotifyMessageA@16 1022bca0     user32:USER32.dll
 0005:00001ca4       __imp__GetForegroundWindow@0 1022bca4     user32:USER32.dll
 0005:00001ca8       __imp__SetForegroundWindow@4 1022bca8     user32:USER32.dll
 0005:00001cac       __imp__ShowCaret@4         1022bcac     user32:USER32.dll
 0005:00001cb0       __imp__HideCaret@4         1022bcb0     user32:USER32.dll
 0005:00001cb4       __imp__SetCaretPos@8       1022bcb4     user32:USER32.dll
 0005:00001cb8       __imp__GetCaretPos@4       1022bcb8     user32:USER32.dll
 0005:00001cbc       __imp__CreateCaret@16      1022bcbc     user32:USER32.dll
 0005:00001cc0       __imp__GetClipboardViewer@0 1022bcc0     user32:USER32.dll
 0005:00001cc4       __imp__GetClipboardOwner@0 1022bcc4     user32:USER32.dll
 0005:00001cc8       __imp__GetOpenClipboardWindow@0 1022bcc8     user32:USER32.dll
 0005:00001ccc       __imp__OpenClipboard@4     1022bccc     user32:USER32.dll
 0005:00001cd0       __imp__SetClipboardViewer@4 1022bcd0     user32:USER32.dll
 0005:00001cd4       __imp__ChangeClipboardChain@8 1022bcd4     user32:USER32.dll
 0005:00001cd8       __imp__FlashWindow@8       1022bcd8     user32:USER32.dll
 0005:00001cdc       __imp__WindowFromPoint@8   1022bcdc     user32:USER32.dll
 0005:00001ce0       __imp__SetParent@8         1022bce0     user32:USER32.dll
 0005:00001ce4       __imp__GetLastActivePopup@4 1022bce4     user32:USER32.dll
 0005:00001ce8       __imp__FindWindowExA@16    1022bce8     user32:USER32.dll
 0005:00001cec       __imp__ChildWindowFromPointEx@16 1022bcec     user32:USER32.dll
 0005:00001cf0       __imp__ChildWindowFromPoint@12 1022bcf0     user32:USER32.dll
 0005:00001cf4       __imp__ShowScrollBar@12    1022bcf4     user32:USER32.dll
 0005:00001cf8       __imp__GetNextDlgTabItem@12 1022bcf8     user32:USER32.dll
 0005:00001cfc       __imp__GetNextDlgGroupItem@12 1022bcfc     user32:USER32.dll
 0005:00001d00       __imp__DlgDirSelectComboBoxExA@16 1022bd00     user32:USER32.dll
 0005:00001d04       __imp__DlgDirSelectExA@16  1022bd04     user32:USER32.dll
 0005:00001d08       __imp__SetRectEmpty@4      1022bd08     user32:USER32.dll
 0005:00001d0c       __imp__DlgDirListA@20      1022bd0c     user32:USER32.dll
 0005:00001d10       __imp__GetDesktopWindow@0  1022bd10     user32:USER32.dll
 0005:00001d14       __imp__SetCapture@4        1022bd14     user32:USER32.dll
 0005:00001d18       __imp__GetActiveWindow@0   1022bd18     user32:USER32.dll
 0005:00001d1c       __imp__KillTimer@8         1022bd1c     user32:USER32.dll
 0005:00001d20       __imp__SetTimer@16         1022bd20     user32:USER32.dll
 0005:00001d24       __imp__DrawCaption@16      1022bd24     user32:USER32.dll
 0005:00001d28       __imp__DrawAnimatedRects@16 1022bd28     user32:USER32.dll
 0005:00001d2c       __imp__EnableScrollBar@12  1022bd2c     user32:USER32.dll
 0005:00001d30       __imp__RedrawWindow@16     1022bd30     user32:USER32.dll
 0005:00001d34       __imp__LockWindowUpdate@4  1022bd34     user32:USER32.dll
 0005:00001d38       __imp__GetDCEx@12          1022bd38     user32:USER32.dll
 0005:00001d3c       __imp__ShowOwnedPopups@8   1022bd3c     user32:USER32.dll
 0005:00001d40       __imp__IsWindowVisible@4   1022bd40     user32:USER32.dll
 0005:00001d44       __imp__ValidateRgn@8       1022bd44     user32:USER32.dll
 0005:00001d48       __imp__ValidateRect@8      1022bd48     user32:USER32.dll
 0005:00001d4c       __imp__InvalidateRgn@12    1022bd4c     user32:USER32.dll
 0005:00001d50       __imp__InvalidateRect@12   1022bd50     user32:USER32.dll
 0005:00001d54       __imp__GetUpdateRgn@12     1022bd54     user32:USER32.dll
 0005:00001d58       __imp__GetUpdateRect@12    1022bd58     user32:USER32.dll
 0005:00001d5c       __imp__UpdateWindow@4      1022bd5c     user32:USER32.dll
 0005:00001d60       __imp__ReleaseDC@8         1022bd60     user32:USER32.dll
 0005:00001d64       __imp__GetWindowDC@4       1022bd64     user32:USER32.dll
 0005:00001d68       __imp__GetSysColor@4       1022bd68     user32:USER32.dll
 0005:00001d6c       __imp__SendMessageA@16     1022bd6c     user32:USER32.dll
 0005:00001d70       __imp__GetSystemMetrics@4  1022bd70     user32:USER32.dll
 0005:00001d74       __imp__FindWindowA@8       1022bd74     user32:USER32.dll
 0005:00001d78       __imp__CharLowerW@4        1022bd78     user32:USER32.dll
 0005:00001d7c       __imp__CharLowerA@4        1022bd7c     user32:USER32.dll
 0005:00001d80       __imp__CharUpperW@4        1022bd80     user32:USER32.dll
 0005:00001d84       __imp__MsgWaitForMultipleObjects@20 1022bd84     user32:USER32.dll
 0005:00001d88       __imp__IsWindowUnicode@4   1022bd88     user32:USER32.dll
 0005:00001d8c       __imp__GetMessageW@16      1022bd8c     user32:USER32.dll
 0005:00001d90       __imp__DispatchMessageW@4  1022bd90     user32:USER32.dll
 0005:00001d94       __imp__SubtractRect@12     1022bd94     user32:USER32.dll
 0005:00001d98       __imp__UnionRect@12        1022bd98     user32:USER32.dll
 0005:00001d9c       __imp__InflateRect@12      1022bd9c     user32:USER32.dll
 0005:00001da0       __imp__SetRect@20          1022bda0     user32:USER32.dll
 0005:00001da4       __imp__GetDC@4             1022bda4     user32:USER32.dll
 0005:00001da8       __imp__EndPaint@8          1022bda8     user32:USER32.dll
 0005:00001dac       __imp__BeginPaint@8        1022bdac     user32:USER32.dll
 0005:00001db0       __imp__ClientToScreen@8    1022bdb0     user32:USER32.dll
 0005:00001db4       __imp__BringWindowToTop@4  1022bdb4     user32:USER32.dll
 0005:00001db8       __imp__GetWindowRgn@8      1022bdb8     user32:USER32.dll
 0005:00001dbc       __imp__SetWindowRgn@12     1022bdbc     user32:USER32.dll
 0005:00001dc0       __imp__ArrangeIconicWindows@4 1022bdc0     user32:USER32.dll
 0005:00001dc4       __imp__IsZoomed@4          1022bdc4     user32:USER32.dll
 0005:00001dc8       __imp__HiliteMenuItem@16   1022bdc8     user32:USER32.dll
 0005:00001dcc       __imp__GetSystemMenu@8     1022bdcc     user32:USER32.dll
 0005:00001dd0       __imp__DrawMenuBar@4       1022bdd0     user32:USER32.dll
 0005:00001dd4       __imp__SetMenu@8           1022bdd4     user32:USER32.dll
 0005:00001dd8       __imp__GetMenu@4           1022bdd8     user32:USER32.dll
 0005:00001ddc       __imp__DragDetect@12       1022bddc     user32:USER32.dll
 0005:00001de0       __imp__ReleaseCapture@0    1022bde0     user32:USER32.dll
 0005:00001de4       __imp__GetDialogBaseUnits@0 1022bde4     user32:USER32.dll
 0005:00001de8       __imp__LoadAcceleratorsA@8 1022bde8     user32:USER32.dll
 0005:00001dec       __imp__TranslateAcceleratorA@12 1022bdec     user32:USER32.dll
 0005:00001df0       __imp__ReuseDDElParam@20   1022bdf0     user32:USER32.dll
 0005:00001df4       __imp__DestroyIcon@4       1022bdf4     user32:USER32.dll
 0005:00001df8       __imp__PostMessageA@16     1022bdf8     user32:USER32.dll
 0005:00001dfc       __imp__EnableWindow@8      1022bdfc     user32:USER32.dll
 0005:00001e00       __imp__IsWindowEnabled@4   1022be00     user32:USER32.dll
 0005:00001e04       __imp__ShowWindow@8        1022be04     user32:USER32.dll
 0005:00001e08       __imp__MoveWindow@24       1022be08     user32:USER32.dll
 0005:00001e0c       __imp__SetWindowTextA@8    1022be0c     user32:USER32.dll
 0005:00001e10       __imp__IsDialogMessageA@8  1022be10     user32:USER32.dll
 0005:00001e14       __imp__ScrollWindowEx@32   1022be14     user32:USER32.dll
 0005:00001e18       __imp__IsDlgButtonChecked@8 1022be18     user32:USER32.dll
 0005:00001e1c       __imp__SetDlgItemTextA@12  1022be1c     user32:USER32.dll
 0005:00001e20       __imp__SetDlgItemInt@16    1022be20     user32:USER32.dll
 0005:00001e24       __imp__GetDlgItemTextA@16  1022be24     user32:USER32.dll
 0005:00001e28       __imp__GetDlgItemInt@16    1022be28     user32:USER32.dll
 0005:00001e2c       __imp__CheckRadioButton@16 1022be2c     user32:USER32.dll
 0005:00001e30       __imp__CheckDlgButton@12   1022be30     user32:USER32.dll
 0005:00001e34       __imp__RegisterWindowMessageA@4 1022be34     user32:USER32.dll
 0005:00001e38       __imp__LoadIconA@8         1022be38     user32:USER32.dll
 0005:00001e3c       __imp__SendDlgItemMessageA@20 1022be3c     user32:USER32.dll
 0005:00001e40       __imp__GetClientRect@8     1022be40     user32:USER32.dll
 0005:00001e44       __imp__MapWindowPoints@16  1022be44     user32:USER32.dll
 0005:00001e48       __imp__PeekMessageA@20     1022be48     user32:USER32.dll
 0005:00001e4c       __imp__DispatchMessageA@4  1022be4c     user32:USER32.dll
 0005:00001e50       __imp__GetFocus@0          1022be50     user32:USER32.dll
 0005:00001e54       __imp__SetActiveWindow@4   1022be54     user32:USER32.dll
 0005:00001e58       __imp__SetFocus@4          1022be58     user32:USER32.dll
 0005:00001e5c       __imp__AdjustWindowRectEx@16 1022be5c     user32:USER32.dll
 0005:00001e60       __imp__ScreenToClient@8    1022be60     user32:USER32.dll
 0005:00001e64       __imp__EqualRect@8         1022be64     user32:USER32.dll
 0005:00001e68       __imp__DeferWindowPos@32   1022be68     user32:USER32.dll
 0005:00001e6c       __imp__BeginDeferWindowPos@4 1022be6c     user32:USER32.dll
 0005:00001e70       __imp__CopyRect@8          1022be70     user32:USER32.dll
 0005:00001e74       __imp__EndDeferWindowPos@4 1022be74     user32:USER32.dll
 0005:00001e78       __imp__ScrollWindow@20     1022be78     user32:USER32.dll
 0005:00001e7c       __imp__GetScrollInfo@12    1022be7c     user32:USER32.dll
 0005:00001e80       __imp__SetScrollInfo@16    1022be80     user32:USER32.dll
 0005:00001e84       __imp__GetScrollRange@16   1022be84     user32:USER32.dll
 0005:00001e88       __imp__SetScrollRange@20   1022be88     user32:USER32.dll
 0005:00001e8c       __imp__GetKeyNameTextA@12  1022be8c     user32:USER32.dll
 0005:00001e90       __imp__MapVirtualKeyA@8    1022be90     user32:USER32.dll
 0005:00001e94       __imp__IsClipboardFormatAvailable@4 1022be94     user32:USER32.dll
 0005:00001e98       __imp__MessageBeep@4       1022be98     user32:USER32.dll
 0005:00001e9c       __imp__DlgDirListComboBoxA@20 1022be9c     user32:USER32.dll
 0005:00001ea0       __imp__PtInRect@12         1022bea0     user32:USER32.dll
 0005:00001ea4       __imp__IsRectEmpty@4       1022bea4     user32:USER32.dll
 0005:00001ea8       __imp__CharUpperA@4        1022bea8     user32:USER32.dll
 0005:00001eac       __imp__LoadImageA@24       1022beac     user32:USER32.dll
 0005:00001eb0       __imp__CopyImage@20        1022beb0     user32:USER32.dll
 0005:00001eb4       __imp__GetWindowRect@8     1022beb4     user32:USER32.dll
 0005:00001eb8       __imp__GetWindowPlacement@8 1022beb8     user32:USER32.dll
 0005:00001ebc       __imp__IsIconic@4          1022bebc     user32:USER32.dll
 0005:00001ec0       __imp__SystemParametersInfoA@16 1022bec0     user32:USER32.dll
 0005:00001ec4       __imp__IntersectRect@12    1022bec4     user32:USER32.dll
 0005:00001ec8       __imp__OffsetRect@12       1022bec8     user32:USER32.dll
 0005:00001ecc       __imp__SetWindowPos@28     1022becc     user32:USER32.dll
 0005:00001ed0       __imp__SetWindowLongA@12   1022bed0     user32:USER32.dll
 0005:00001ed4       __imp__GetWindowLongA@8    1022bed4     user32:USER32.dll
 0005:00001ed8       __imp__GetMessagePos@0     1022bed8     user32:USER32.dll
 0005:00001edc       __imp__GetMessageTime@0    1022bedc     user32:USER32.dll
 0005:00001ee0       __imp__DefWindowProcA@16   1022bee0     user32:USER32.dll
 0005:00001ee4       __imp__RemovePropA@8       1022bee4     user32:USER32.dll
 0005:00001ee8       __imp__CallWindowProcA@20  1022bee8     user32:USER32.dll
 0005:00001eec       __imp__GetPropA@8          1022beec     user32:USER32.dll
 0005:00001ef0       __imp__UnhookWindowsHookEx@4 1022bef0     user32:USER32.dll
 0005:00001ef4       __imp__SetPropA@12         1022bef4     user32:USER32.dll
 0005:00001ef8       __imp__GetScrollPos@8      1022bef8     user32:USER32.dll
 0005:00001efc       __imp__SetScrollPos@16     1022befc     user32:USER32.dll
 0005:00001f00       __imp__GetTopWindow@4      1022bf00     user32:USER32.dll
 0005:00001f04       __imp__MessageBoxA@16      1022bf04     user32:USER32.dll
 0005:00001f08       __imp__IsChild@8           1022bf08     user32:USER32.dll
 0005:00001f0c       __imp__GetParent@4         1022bf0c     user32:USER32.dll
 0005:00001f10       __imp__GetWindow@8         1022bf10     user32:USER32.dll
 0005:00001f14       __imp__GetCapture@0        1022bf14     user32:USER32.dll
 0005:00001f18       __imp__WinHelpA@16         1022bf18     user32:USER32.dll
 0005:00001f1c       __imp__GetClassInfoA@12    1022bf1c     user32:USER32.dll
 0005:00001f20       __imp__RegisterClassA@4    1022bf20     user32:USER32.dll
 0005:00001f24       __imp__UnregisterClassA@8  1022bf24     user32:USER32.dll
 0005:00001f28       __imp__TrackPopupMenuEx@24 1022bf28     user32:USER32.dll
 0005:00001f2c       __imp__TrackPopupMenu@28   1022bf2c     user32:USER32.dll
 0005:00001f30       __imp__SetWindowPlacement@8 1022bf30     user32:USER32.dll
 0005:00001f34       __imp__GetDlgItem@8        1022bf34     user32:USER32.dll
 0005:00001f38       __imp__GetWindowTextLengthA@4 1022bf38     user32:USER32.dll
 0005:00001f3c       __imp__GetWindowTextA@12   1022bf3c     user32:USER32.dll
 0005:00001f40       __imp__GetKeyState@4       1022bf40     user32:USER32.dll
 0005:00001f44       __imp__DestroyWindow@4     1022bf44     user32:USER32.dll
 0005:00001f48       __imp__GetDlgCtrlID@4      1022bf48     user32:USER32.dll
 0005:00001f4c       __imp__IsWindow@4          1022bf4c     user32:USER32.dll
 0005:00001f50       __imp__CreateWindowExA@48  1022bf50     user32:USER32.dll
 0005:00001f54       __imp__SetWindowsHookExA@16 1022bf54     user32:USER32.dll
 0005:00001f58       __imp__CallNextHookEx@16   1022bf58     user32:USER32.dll
 0005:00001f5c       __imp__GetClassLongA@8     1022bf5c     user32:USER32.dll
 0005:00001f60       __imp__GetClassInfoExA@12  1022bf60     user32:USER32.dll
 0005:00001f64       __imp__GetClassNameA@12    1022bf64     user32:USER32.dll
 0005:00001f68       __imp__SetCursor@4         1022bf68     user32:USER32.dll
 0005:00001f6c       \177USER32_NULL_THUNK_DATA 1022bf6c     user32:USER32.dll
 0005:00002058       __imp__GetFileVersionInfoA@16 1022c058     version:VERSION.dll
 0005:0000205c       __imp__GetFileVersionInfoSizeA@8 1022c05c     version:VERSION.dll
 0005:00002060       __imp__VerQueryValueA@16   1022c060     version:VERSION.dll
 0005:00002064       \177VERSION_NULL_THUNK_DATA 1022c064     version:VERSION.dll
 0005:00002090       __imp__OpenPrinterA@12     1022c090     winspool:WINSPOOL.DRV
 0005:00002094       __imp__GetJobA@24          1022c094     winspool:WINSPOOL.DRV
 0005:00002098       __imp__ClosePrinter@4      1022c098     winspool:WINSPOOL.DRV
 0005:0000209c       __imp__DocumentPropertiesA@24 1022c09c     winspool:WINSPOOL.DRV
 0005:000020a0       \177WINSPOOL_NULL_THUNK_DATA 1022c0a0     winspool:WINSPOOL.DRV
 0005:000020cc       __imp__CommDlgExtendedError@0 1022c0cc     comdlg32:comdlg32.dll
 0005:000020d0       __imp__PrintDlgA@4         1022c0d0     comdlg32:comdlg32.dll
 0005:000020d4       __imp__PageSetupDlgA@4     1022c0d4     comdlg32:comdlg32.dll
 0005:000020d8       __imp__FindTextA@4         1022c0d8     comdlg32:comdlg32.dll
 0005:000020dc       __imp__ReplaceTextA@4      1022c0dc     comdlg32:comdlg32.dll
 0005:000020e0       __imp__ChooseColorA@4      1022c0e0     comdlg32:comdlg32.dll
 0005:000020e4       __imp__GetFileTitleA@12    1022c0e4     comdlg32:comdlg32.dll
 0005:000020e8       __imp__GetOpenFileNameA@4  1022c0e8     comdlg32:comdlg32.dll
 0005:000020ec       __imp__GetSaveFileNameA@4  1022c0ec     comdlg32:comdlg32.dll
 0005:000020f0       \177comdlg32_NULL_THUNK_DATA 1022c0f0     comdlg32:comdlg32.dll
 0005:00002120       __imp__WriteFmtUserTypeStg@12 1022c120     ole32:ole32.dll
 0005:00002124       __imp__SetConvertStg@8     1022c124     ole32:ole32.dll
 0005:00002128       __imp__WriteClassStg@8     1022c128     ole32:ole32.dll
 0005:0000212c       __imp__CreateBindCtx@8     1022c12c     ole32:ole32.dll
 0005:00002130       __imp__CoTaskMemAlloc@4    1022c130     ole32:ole32.dll
 0005:00002134       __imp__OleDuplicateData@12 1022c134     ole32:ole32.dll
 0005:00002138       __imp__OleRegGetUserType@12 1022c138     ole32:ole32.dll
 0005:0000213c       __imp__ReadFmtUserTypeStg@12 1022c13c     ole32:ole32.dll
 0005:00002140       __imp__ReadClassStg@8      1022c140     ole32:ole32.dll
 0005:00002144       __imp__StringFromCLSID@8   1022c144     ole32:ole32.dll
 0005:00002148       __imp__CoTreatAsClass@8    1022c148     ole32:ole32.dll
 0005:0000214c       __imp__ReleaseStgMedium@4  1022c14c     ole32:ole32.dll
 0005:00002150       __imp__CoRegisterClassObject@20 1022c150     ole32:ole32.dll
 0005:00002154       __imp__CoRevokeClassObject@4 1022c154     ole32:ole32.dll
 0005:00002158       __imp__CoDisconnectObject@8 1022c158     ole32:ole32.dll
 0005:0000215c       __imp__CoCreateInstance@20 1022c15c     ole32:ole32.dll
 0005:00002160       __imp__StringFromGUID2@12  1022c160     ole32:ole32.dll
 0005:00002164       __imp__CoReleaseMarshalData@4 1022c164     ole32:ole32.dll
 0005:00002168       __imp__CoMarshalInterface@24 1022c168     ole32:ole32.dll
 0005:0000216c       __imp__CreateStreamOnHGlobal@12 1022c16c     ole32:ole32.dll
 0005:00002170       __imp__CoUnmarshalInterface@12 1022c170     ole32:ole32.dll
 0005:00002174       __imp__CLSIDFromString@8   1022c174     ole32:ole32.dll
 0005:00002178       __imp__CLSIDFromProgID@8   1022c178     ole32:ole32.dll
 0005:0000217c       __imp__OleRun@4            1022c17c     ole32:ole32.dll
 0005:00002180       __imp__CoTaskMemFree@4     1022c180     ole32:ole32.dll
 0005:00002184       \177ole32_NULL_THUNK_DATA  1022c184     ole32:ole32.dll
 0006:00000000       __DELAY_IMPORT_DESCRIPTOR_OLEACC 10230000     oleacc:OLEACC.dll
 0006:00000020       __NULL_DELAY_IMPORT_DESCRIPTOR 10230020     oleacc:OLEACC.dll
 0006:0000004c       \177OLEACC_NULL_THUNK_DATA_DLN 1023004c     oleacc:OLEACC.dll
 0006:00000078       __imp__LresultFromObject@12 10230078     oleacc:OLEACC.dll
 0006:0000007c       __imp__AccessibleObjectFromWindow@16 1023007c     oleacc:OLEACC.dll
 0006:00000080       __imp__CreateStdAccessibleObject@16 10230080     oleacc:OLEACC.dll
 0006:00000084       \177OLEACC_NULL_THUNK_DATA_DLA 10230084     oleacc:OLEACC.dll
 0006:0000020c       \177OLEACC_NULL_THUNK_DATA_DLB 1023020c     oleacc:OLEACC.dll

 entry point at        0002:00001333


 Exports

  ordinal    name

        1    ?CloseMiniX@@YGXXZ (void __stdcall CloseMiniX(void))
               exported name: CloseMiniX
        2    ?OpenMiniX@@YGXXZ (void __stdcall OpenMiniX(void))
               exported name: OpenMiniX
        3    ?ReadMiniXMonitor@@YGXPAU_MiniX_Monitor@@@Z (void __stdcall ReadMiniXMonitor(struct _MiniX_Monitor *))
               exported name: ReadMiniXMonitor
        4    ?ReadMiniXSerialNumber@@YGJXZ (long __stdcall ReadMiniXSerialNumber(void))
               exported name: ReadMiniXSerialNumber
        5    ?ReadMiniXSettings@@YGXPAU_MiniX_Settings@@@Z (void __stdcall ReadMiniXSettings(struct _MiniX_Settings *))
               exported name: ReadMiniXSettings
        6    ?ReadMinixOemMxDeviceType@@YGJXZ (long __stdcall ReadMinixOemMxDeviceType(void))
               exported name: ReadMinixOemMxDeviceType
        7    ?SendMiniXCommand@@YGXE@Z (void __stdcall SendMiniXCommand(unsigned char))
               exported name: SendMiniXCommand
        8    ?SetMiniXCurrent@@YGXN@Z (void __stdcall SetMiniXCurrent(double))
               exported name: SetMiniXCurrent
        9    ?SetMiniXHV@@YGXN@Z (void __stdcall SetMiniXHV(double))
               exported name: SetMiniXHV
       10    ?isMiniXDlg@@YGEXZ (unsigned char __stdcall isMiniXDlg(void))
               exported name: isMiniXDlg
       11    _DllCanUnloadNow@0
               exported name: DllCanUnloadNow
       12    _DllGetClassObject@12
               exported name: DllGetClassObject
       13    _DllRegisterServer@0
               exported name: DllRegisterServer
